---
triple:          'arm64-apple-darwin'
binary-path:     main
relocations:
  - { offsetInCU: 0xC6, offset: 0xC6, size: 0x8, addend: 0x0, symName: __ZNKSt9type_infoeqERKS_, symObjAddr: 0x0, symBinAddr: 0x100003590, symSize: 0x74 }
  - { offsetInCU: 0x6BF1, offset: 0x6BF1, size: 0x8, addend: 0x0, symName: __ZStL8__ioinit, symObjAddr: 0xE8E08, symBinAddr: 0x1000410B0, symSize: 0x0 }
  - { offsetInCU: 0x778A, offset: 0x778A, size: 0x8, addend: 0x0, symName: __ZN9__gnu_cxxL21__default_lock_policyE, symObjAddr: 0x129B0, symBinAddr: 0x100026AA0, symSize: 0x0 }
  - { offsetInCU: 0x79A1, offset: 0x79A1, size: 0x8, addend: 0x0, symName: __ZN6__pstl9execution2v1L3seqE, symObjAddr: 0x129C8, symBinAddr: 0x100026AB8, symSize: 0x0 }
  - { offsetInCU: 0x79BB, offset: 0x79BB, size: 0x8, addend: 0x0, symName: __ZN6__pstl9execution2v1L3parE, symObjAddr: 0x129C9, symBinAddr: 0x100026AB9, symSize: 0x0 }
  - { offsetInCU: 0x79DB, offset: 0x79DB, size: 0x8, addend: 0x0, symName: __ZN6__pstl9execution2v1L9par_unseqE, symObjAddr: 0x129CA, symBinAddr: 0x100026ABA, symSize: 0x0 }
  - { offsetInCU: 0x79F1, offset: 0x79F1, size: 0x8, addend: 0x0, symName: __ZN6__pstl9execution2v1L5unseqE, symObjAddr: 0x129CB, symBinAddr: 0x100026ABB, symSize: 0x0 }
  - { offsetInCU: 0x2634D, offset: 0x2634D, size: 0x8, addend: 0x0, symName: __GLOBAL__sub_I_main.cpp, symObjAddr: 0x12990, symBinAddr: 0x100015F20, symSize: 0x1C }
  - { offsetInCU: 0x26351, offset: 0x26351, size: 0x8, addend: 0x0, symName: __ZN9__gnu_cxx13new_allocatorI5QuarkE7destroyIS1_EEvPT_, symObjAddr: 0x12960, symBinAddr: 0x100015EF0, symSize: 0x30 }
  - { offsetInCU: 0x26359, offset: 0x26359, size: 0x8, addend: 0x0, symName: __GLOBAL__sub_I_main.cpp, symObjAddr: 0x12990, symBinAddr: 0x100015F20, symSize: 0x1C }
  - { offsetInCU: 0x263A0, offset: 0x263A0, size: 0x8, addend: 0x0, symName: __ZNSt14_Sp_ebo_helperILi0ESaI5QuarkELb1EE6_S_getERS2_, symObjAddr: 0x1294C, symBinAddr: 0x100015EDC, symSize: 0x14 }
  - { offsetInCU: 0x263A8, offset: 0x263A8, size: 0x8, addend: 0x0, symName: __ZN9__gnu_cxx13new_allocatorI5QuarkE7destroyIS1_EEvPT_, symObjAddr: 0x12960, symBinAddr: 0x100015EF0, symSize: 0x30 }
  - { offsetInCU: 0x263D2, offset: 0x263D2, size: 0x8, addend: 0x0, symName: __ZN9__gnu_cxx13new_allocatorI3TauE7destroyIS1_EEvPT_, symObjAddr: 0x1291C, symBinAddr: 0x100015EAC, symSize: 0x30 }
  - { offsetInCU: 0x263DA, offset: 0x263DA, size: 0x8, addend: 0x0, symName: __ZNSt14_Sp_ebo_helperILi0ESaI5QuarkELb1EE6_S_getERS2_, symObjAddr: 0x1294C, symBinAddr: 0x100015EDC, symSize: 0x14 }
  - { offsetInCU: 0x26421, offset: 0x26421, size: 0x8, addend: 0x0, symName: __ZNSt14_Sp_ebo_helperILi0ESaI3TauELb1EE6_S_getERS2_, symObjAddr: 0x12908, symBinAddr: 0x100015E98, symSize: 0x14 }
  - { offsetInCU: 0x26429, offset: 0x26429, size: 0x8, addend: 0x0, symName: __ZN9__gnu_cxx13new_allocatorI3TauE7destroyIS1_EEvPT_, symObjAddr: 0x1291C, symBinAddr: 0x100015EAC, symSize: 0x30 }
  - { offsetInCU: 0x26453, offset: 0x26453, size: 0x8, addend: 0x0, symName: __ZN9__gnu_cxx13new_allocatorI8ElectronE7destroyIS1_EEvPT_, symObjAddr: 0x128D8, symBinAddr: 0x100015E68, symSize: 0x30 }
  - { offsetInCU: 0x2645B, offset: 0x2645B, size: 0x8, addend: 0x0, symName: __ZNSt14_Sp_ebo_helperILi0ESaI3TauELb1EE6_S_getERS2_, symObjAddr: 0x12908, symBinAddr: 0x100015E98, symSize: 0x14 }
  - { offsetInCU: 0x264A2, offset: 0x264A2, size: 0x8, addend: 0x0, symName: __ZNSt14_Sp_ebo_helperILi0ESaI8ElectronELb1EE6_S_getERS2_, symObjAddr: 0x128C4, symBinAddr: 0x100015E54, symSize: 0x14 }
  - { offsetInCU: 0x264AA, offset: 0x264AA, size: 0x8, addend: 0x0, symName: __ZN9__gnu_cxx13new_allocatorI8ElectronE7destroyIS1_EEvPT_, symObjAddr: 0x128D8, symBinAddr: 0x100015E68, symSize: 0x30 }
  - { offsetInCU: 0x264D4, offset: 0x264D4, size: 0x8, addend: 0x0, symName: __ZN9__gnu_cxx13new_allocatorI8NeutrinoE7destroyIS1_EEvPT_, symObjAddr: 0x12894, symBinAddr: 0x100015E24, symSize: 0x30 }
  - { offsetInCU: 0x264DC, offset: 0x264DC, size: 0x8, addend: 0x0, symName: __ZNSt14_Sp_ebo_helperILi0ESaI8ElectronELb1EE6_S_getERS2_, symObjAddr: 0x128C4, symBinAddr: 0x100015E54, symSize: 0x14 }
  - { offsetInCU: 0x26523, offset: 0x26523, size: 0x8, addend: 0x0, symName: __ZNSt14_Sp_ebo_helperILi0ESaI8NeutrinoELb1EE6_S_getERS2_, symObjAddr: 0x12880, symBinAddr: 0x100015E10, symSize: 0x14 }
  - { offsetInCU: 0x2652B, offset: 0x2652B, size: 0x8, addend: 0x0, symName: __ZN9__gnu_cxx13new_allocatorI8NeutrinoE7destroyIS1_EEvPT_, symObjAddr: 0x12894, symBinAddr: 0x100015E24, symSize: 0x30 }
  - { offsetInCU: 0x26555, offset: 0x26555, size: 0x8, addend: 0x0, symName: __ZN9__gnu_cxx13new_allocatorI4MuonE7destroyIS1_EEvPT_, symObjAddr: 0x12850, symBinAddr: 0x100015DE0, symSize: 0x30 }
  - { offsetInCU: 0x2655D, offset: 0x2655D, size: 0x8, addend: 0x0, symName: __ZNSt14_Sp_ebo_helperILi0ESaI8NeutrinoELb1EE6_S_getERS2_, symObjAddr: 0x12880, symBinAddr: 0x100015E10, symSize: 0x14 }
  - { offsetInCU: 0x265A4, offset: 0x265A4, size: 0x8, addend: 0x0, symName: __ZNSt14_Sp_ebo_helperILi0ESaI4MuonELb1EE6_S_getERS2_, symObjAddr: 0x1283C, symBinAddr: 0x100015DCC, symSize: 0x14 }
  - { offsetInCU: 0x265AC, offset: 0x265AC, size: 0x8, addend: 0x0, symName: __ZN9__gnu_cxx13new_allocatorI4MuonE7destroyIS1_EEvPT_, symObjAddr: 0x12850, symBinAddr: 0x100015DE0, symSize: 0x30 }
  - { offsetInCU: 0x265D6, offset: 0x265D6, size: 0x8, addend: 0x0, symName: __ZN9__gnu_cxx13new_allocatorI5GluonE7destroyIS1_EEvPT_, symObjAddr: 0x1280C, symBinAddr: 0x100015D9C, symSize: 0x30 }
  - { offsetInCU: 0x265DE, offset: 0x265DE, size: 0x8, addend: 0x0, symName: __ZNSt14_Sp_ebo_helperILi0ESaI4MuonELb1EE6_S_getERS2_, symObjAddr: 0x1283C, symBinAddr: 0x100015DCC, symSize: 0x14 }
  - { offsetInCU: 0x26625, offset: 0x26625, size: 0x8, addend: 0x0, symName: __ZNSt14_Sp_ebo_helperILi0ESaI5GluonELb1EE6_S_getERS2_, symObjAddr: 0x127F8, symBinAddr: 0x100015D88, symSize: 0x14 }
  - { offsetInCU: 0x2662D, offset: 0x2662D, size: 0x8, addend: 0x0, symName: __ZN9__gnu_cxx13new_allocatorI5GluonE7destroyIS1_EEvPT_, symObjAddr: 0x1280C, symBinAddr: 0x100015D9C, symSize: 0x30 }
  - { offsetInCU: 0x26657, offset: 0x26657, size: 0x8, addend: 0x0, symName: __ZN9__gnu_cxx13new_allocatorI6PhotonE7destroyIS1_EEvPT_, symObjAddr: 0x127C8, symBinAddr: 0x100015D58, symSize: 0x30 }
  - { offsetInCU: 0x2665F, offset: 0x2665F, size: 0x8, addend: 0x0, symName: __ZNSt14_Sp_ebo_helperILi0ESaI5GluonELb1EE6_S_getERS2_, symObjAddr: 0x127F8, symBinAddr: 0x100015D88, symSize: 0x14 }
  - { offsetInCU: 0x266A6, offset: 0x266A6, size: 0x8, addend: 0x0, symName: __ZNSt14_Sp_ebo_helperILi0ESaI6PhotonELb1EE6_S_getERS2_, symObjAddr: 0x127B4, symBinAddr: 0x100015D44, symSize: 0x14 }
  - { offsetInCU: 0x266AE, offset: 0x266AE, size: 0x8, addend: 0x0, symName: __ZN9__gnu_cxx13new_allocatorI6PhotonE7destroyIS1_EEvPT_, symObjAddr: 0x127C8, symBinAddr: 0x100015D58, symSize: 0x30 }
  - { offsetInCU: 0x266D8, offset: 0x266D8, size: 0x8, addend: 0x0, symName: __ZN9__gnu_cxx13new_allocatorI7Z_BosonE7destroyIS1_EEvPT_, symObjAddr: 0x12784, symBinAddr: 0x100015D14, symSize: 0x30 }
  - { offsetInCU: 0x266E0, offset: 0x266E0, size: 0x8, addend: 0x0, symName: __ZNSt14_Sp_ebo_helperILi0ESaI6PhotonELb1EE6_S_getERS2_, symObjAddr: 0x127B4, symBinAddr: 0x100015D44, symSize: 0x14 }
  - { offsetInCU: 0x26727, offset: 0x26727, size: 0x8, addend: 0x0, symName: __ZNSt14_Sp_ebo_helperILi0ESaI7Z_BosonELb1EE6_S_getERS2_, symObjAddr: 0x12770, symBinAddr: 0x100015D00, symSize: 0x14 }
  - { offsetInCU: 0x2672F, offset: 0x2672F, size: 0x8, addend: 0x0, symName: __ZN9__gnu_cxx13new_allocatorI7Z_BosonE7destroyIS1_EEvPT_, symObjAddr: 0x12784, symBinAddr: 0x100015D14, symSize: 0x30 }
  - { offsetInCU: 0x26759, offset: 0x26759, size: 0x8, addend: 0x0, symName: __ZN9__gnu_cxx13new_allocatorI7W_BosonE7destroyIS1_EEvPT_, symObjAddr: 0x12740, symBinAddr: 0x100015CD0, symSize: 0x30 }
  - { offsetInCU: 0x26761, offset: 0x26761, size: 0x8, addend: 0x0, symName: __ZNSt14_Sp_ebo_helperILi0ESaI7Z_BosonELb1EE6_S_getERS2_, symObjAddr: 0x12770, symBinAddr: 0x100015D00, symSize: 0x14 }
  - { offsetInCU: 0x267A8, offset: 0x267A8, size: 0x8, addend: 0x0, symName: __ZNSt14_Sp_ebo_helperILi0ESaI7W_BosonELb1EE6_S_getERS2_, symObjAddr: 0x1272C, symBinAddr: 0x100015CBC, symSize: 0x14 }
  - { offsetInCU: 0x267B0, offset: 0x267B0, size: 0x8, addend: 0x0, symName: __ZN9__gnu_cxx13new_allocatorI7W_BosonE7destroyIS1_EEvPT_, symObjAddr: 0x12740, symBinAddr: 0x100015CD0, symSize: 0x30 }
  - { offsetInCU: 0x267DA, offset: 0x267DA, size: 0x8, addend: 0x0, symName: __ZN9__gnu_cxx13new_allocatorI5HiggsE7destroyIS1_EEvPT_, symObjAddr: 0x126FC, symBinAddr: 0x100015C8C, symSize: 0x30 }
  - { offsetInCU: 0x267E2, offset: 0x267E2, size: 0x8, addend: 0x0, symName: __ZNSt14_Sp_ebo_helperILi0ESaI7W_BosonELb1EE6_S_getERS2_, symObjAddr: 0x1272C, symBinAddr: 0x100015CBC, symSize: 0x14 }
  - { offsetInCU: 0x26829, offset: 0x26829, size: 0x8, addend: 0x0, symName: __ZNSt14_Sp_ebo_helperILi0ESaI5HiggsELb1EE6_S_getERS2_, symObjAddr: 0x126E8, symBinAddr: 0x100015C78, symSize: 0x14 }
  - { offsetInCU: 0x26831, offset: 0x26831, size: 0x8, addend: 0x0, symName: __ZN9__gnu_cxx13new_allocatorI5HiggsE7destroyIS1_EEvPT_, symObjAddr: 0x126FC, symBinAddr: 0x100015C8C, symSize: 0x30 }
  - { offsetInCU: 0x2685B, offset: 0x2685B, size: 0x8, addend: 0x0, symName: __ZNSt16allocator_traitsISaI5QuarkEE7destroyIS0_EEvRS1_PT_, symObjAddr: 0x126C0, symBinAddr: 0x100015C50, symSize: 0x28 }
  - { offsetInCU: 0x26863, offset: 0x26863, size: 0x8, addend: 0x0, symName: __ZNSt14_Sp_ebo_helperILi0ESaI5HiggsELb1EE6_S_getERS2_, symObjAddr: 0x126E8, symBinAddr: 0x100015C78, symSize: 0x14 }
  - { offsetInCU: 0x268AE, offset: 0x268AE, size: 0x8, addend: 0x0, symName: __ZNSt23_Sp_counted_ptr_inplaceI5QuarkSaIS0_ELN9__gnu_cxx12_Lock_policyE2EE5_Impl8_M_allocEv, symObjAddr: 0x126A4, symBinAddr: 0x100015C34, symSize: 0x1C }
  - { offsetInCU: 0x268B6, offset: 0x268B6, size: 0x8, addend: 0x0, symName: __ZNSt16allocator_traitsISaI5QuarkEE7destroyIS0_EEvRS1_PT_, symObjAddr: 0x126C0, symBinAddr: 0x100015C50, symSize: 0x28 }
  - { offsetInCU: 0x268DD, offset: 0x268DD, size: 0x8, addend: 0x0, symName: __ZNSt16allocator_traitsISaI3TauEE7destroyIS0_EEvRS1_PT_, symObjAddr: 0x1267C, symBinAddr: 0x100015C0C, symSize: 0x28 }
  - { offsetInCU: 0x268E5, offset: 0x268E5, size: 0x8, addend: 0x0, symName: __ZNSt23_Sp_counted_ptr_inplaceI5QuarkSaIS0_ELN9__gnu_cxx12_Lock_policyE2EE5_Impl8_M_allocEv, symObjAddr: 0x126A4, symBinAddr: 0x100015C34, symSize: 0x1C }
  - { offsetInCU: 0x26930, offset: 0x26930, size: 0x8, addend: 0x0, symName: __ZNSt23_Sp_counted_ptr_inplaceI3TauSaIS0_ELN9__gnu_cxx12_Lock_policyE2EE5_Impl8_M_allocEv, symObjAddr: 0x12660, symBinAddr: 0x100015BF0, symSize: 0x1C }
  - { offsetInCU: 0x26938, offset: 0x26938, size: 0x8, addend: 0x0, symName: __ZNSt16allocator_traitsISaI3TauEE7destroyIS0_EEvRS1_PT_, symObjAddr: 0x1267C, symBinAddr: 0x100015C0C, symSize: 0x28 }
  - { offsetInCU: 0x2695F, offset: 0x2695F, size: 0x8, addend: 0x0, symName: __ZNSt16allocator_traitsISaI8ElectronEE7destroyIS0_EEvRS1_PT_, symObjAddr: 0x12638, symBinAddr: 0x100015BC8, symSize: 0x28 }
  - { offsetInCU: 0x26967, offset: 0x26967, size: 0x8, addend: 0x0, symName: __ZNSt23_Sp_counted_ptr_inplaceI3TauSaIS0_ELN9__gnu_cxx12_Lock_policyE2EE5_Impl8_M_allocEv, symObjAddr: 0x12660, symBinAddr: 0x100015BF0, symSize: 0x1C }
  - { offsetInCU: 0x269B2, offset: 0x269B2, size: 0x8, addend: 0x0, symName: __ZNSt23_Sp_counted_ptr_inplaceI8ElectronSaIS0_ELN9__gnu_cxx12_Lock_policyE2EE5_Impl8_M_allocEv, symObjAddr: 0x1261C, symBinAddr: 0x100015BAC, symSize: 0x1C }
  - { offsetInCU: 0x269BA, offset: 0x269BA, size: 0x8, addend: 0x0, symName: __ZNSt16allocator_traitsISaI8ElectronEE7destroyIS0_EEvRS1_PT_, symObjAddr: 0x12638, symBinAddr: 0x100015BC8, symSize: 0x28 }
  - { offsetInCU: 0x269E1, offset: 0x269E1, size: 0x8, addend: 0x0, symName: __ZNSt16allocator_traitsISaI8NeutrinoEE7destroyIS0_EEvRS1_PT_, symObjAddr: 0x125F4, symBinAddr: 0x100015B84, symSize: 0x28 }
  - { offsetInCU: 0x269E9, offset: 0x269E9, size: 0x8, addend: 0x0, symName: __ZNSt23_Sp_counted_ptr_inplaceI8ElectronSaIS0_ELN9__gnu_cxx12_Lock_policyE2EE5_Impl8_M_allocEv, symObjAddr: 0x1261C, symBinAddr: 0x100015BAC, symSize: 0x1C }
  - { offsetInCU: 0x26A34, offset: 0x26A34, size: 0x8, addend: 0x0, symName: __ZNSt23_Sp_counted_ptr_inplaceI8NeutrinoSaIS0_ELN9__gnu_cxx12_Lock_policyE2EE5_Impl8_M_allocEv, symObjAddr: 0x125D8, symBinAddr: 0x100015B68, symSize: 0x1C }
  - { offsetInCU: 0x26A3C, offset: 0x26A3C, size: 0x8, addend: 0x0, symName: __ZNSt16allocator_traitsISaI8NeutrinoEE7destroyIS0_EEvRS1_PT_, symObjAddr: 0x125F4, symBinAddr: 0x100015B84, symSize: 0x28 }
  - { offsetInCU: 0x26A63, offset: 0x26A63, size: 0x8, addend: 0x0, symName: __ZNSt16allocator_traitsISaI4MuonEE7destroyIS0_EEvRS1_PT_, symObjAddr: 0x125B0, symBinAddr: 0x100015B40, symSize: 0x28 }
  - { offsetInCU: 0x26A6B, offset: 0x26A6B, size: 0x8, addend: 0x0, symName: __ZNSt23_Sp_counted_ptr_inplaceI8NeutrinoSaIS0_ELN9__gnu_cxx12_Lock_policyE2EE5_Impl8_M_allocEv, symObjAddr: 0x125D8, symBinAddr: 0x100015B68, symSize: 0x1C }
  - { offsetInCU: 0x26AB6, offset: 0x26AB6, size: 0x8, addend: 0x0, symName: __ZNSt23_Sp_counted_ptr_inplaceI4MuonSaIS0_ELN9__gnu_cxx12_Lock_policyE2EE5_Impl8_M_allocEv, symObjAddr: 0x12594, symBinAddr: 0x100015B24, symSize: 0x1C }
  - { offsetInCU: 0x26ABE, offset: 0x26ABE, size: 0x8, addend: 0x0, symName: __ZNSt16allocator_traitsISaI4MuonEE7destroyIS0_EEvRS1_PT_, symObjAddr: 0x125B0, symBinAddr: 0x100015B40, symSize: 0x28 }
  - { offsetInCU: 0x26AE5, offset: 0x26AE5, size: 0x8, addend: 0x0, symName: __ZNSt16allocator_traitsISaI5GluonEE7destroyIS0_EEvRS1_PT_, symObjAddr: 0x1256C, symBinAddr: 0x100015AFC, symSize: 0x28 }
  - { offsetInCU: 0x26AED, offset: 0x26AED, size: 0x8, addend: 0x0, symName: __ZNSt23_Sp_counted_ptr_inplaceI4MuonSaIS0_ELN9__gnu_cxx12_Lock_policyE2EE5_Impl8_M_allocEv, symObjAddr: 0x12594, symBinAddr: 0x100015B24, symSize: 0x1C }
  - { offsetInCU: 0x26B38, offset: 0x26B38, size: 0x8, addend: 0x0, symName: __ZNSt23_Sp_counted_ptr_inplaceI5GluonSaIS0_ELN9__gnu_cxx12_Lock_policyE2EE5_Impl8_M_allocEv, symObjAddr: 0x12550, symBinAddr: 0x100015AE0, symSize: 0x1C }
  - { offsetInCU: 0x26B40, offset: 0x26B40, size: 0x8, addend: 0x0, symName: __ZNSt16allocator_traitsISaI5GluonEE7destroyIS0_EEvRS1_PT_, symObjAddr: 0x1256C, symBinAddr: 0x100015AFC, symSize: 0x28 }
  - { offsetInCU: 0x26B67, offset: 0x26B67, size: 0x8, addend: 0x0, symName: __ZNSt16allocator_traitsISaI6PhotonEE7destroyIS0_EEvRS1_PT_, symObjAddr: 0x12528, symBinAddr: 0x100015AB8, symSize: 0x28 }
  - { offsetInCU: 0x26B6F, offset: 0x26B6F, size: 0x8, addend: 0x0, symName: __ZNSt23_Sp_counted_ptr_inplaceI5GluonSaIS0_ELN9__gnu_cxx12_Lock_policyE2EE5_Impl8_M_allocEv, symObjAddr: 0x12550, symBinAddr: 0x100015AE0, symSize: 0x1C }
  - { offsetInCU: 0x26BBA, offset: 0x26BBA, size: 0x8, addend: 0x0, symName: __ZNSt23_Sp_counted_ptr_inplaceI6PhotonSaIS0_ELN9__gnu_cxx12_Lock_policyE2EE5_Impl8_M_allocEv, symObjAddr: 0x1250C, symBinAddr: 0x100015A9C, symSize: 0x1C }
  - { offsetInCU: 0x26BC2, offset: 0x26BC2, size: 0x8, addend: 0x0, symName: __ZNSt16allocator_traitsISaI6PhotonEE7destroyIS0_EEvRS1_PT_, symObjAddr: 0x12528, symBinAddr: 0x100015AB8, symSize: 0x28 }
  - { offsetInCU: 0x26BE9, offset: 0x26BE9, size: 0x8, addend: 0x0, symName: __ZNSt16allocator_traitsISaI7Z_BosonEE7destroyIS0_EEvRS1_PT_, symObjAddr: 0x124E4, symBinAddr: 0x100015A74, symSize: 0x28 }
  - { offsetInCU: 0x26BF1, offset: 0x26BF1, size: 0x8, addend: 0x0, symName: __ZNSt23_Sp_counted_ptr_inplaceI6PhotonSaIS0_ELN9__gnu_cxx12_Lock_policyE2EE5_Impl8_M_allocEv, symObjAddr: 0x1250C, symBinAddr: 0x100015A9C, symSize: 0x1C }
  - { offsetInCU: 0x26C3C, offset: 0x26C3C, size: 0x8, addend: 0x0, symName: __ZNSt23_Sp_counted_ptr_inplaceI7Z_BosonSaIS0_ELN9__gnu_cxx12_Lock_policyE2EE5_Impl8_M_allocEv, symObjAddr: 0x124C8, symBinAddr: 0x100015A58, symSize: 0x1C }
  - { offsetInCU: 0x26C44, offset: 0x26C44, size: 0x8, addend: 0x0, symName: __ZNSt16allocator_traitsISaI7Z_BosonEE7destroyIS0_EEvRS1_PT_, symObjAddr: 0x124E4, symBinAddr: 0x100015A74, symSize: 0x28 }
  - { offsetInCU: 0x26C6B, offset: 0x26C6B, size: 0x8, addend: 0x0, symName: __ZNSt16allocator_traitsISaI7W_BosonEE7destroyIS0_EEvRS1_PT_, symObjAddr: 0x124A0, symBinAddr: 0x100015A30, symSize: 0x28 }
  - { offsetInCU: 0x26C73, offset: 0x26C73, size: 0x8, addend: 0x0, symName: __ZNSt23_Sp_counted_ptr_inplaceI7Z_BosonSaIS0_ELN9__gnu_cxx12_Lock_policyE2EE5_Impl8_M_allocEv, symObjAddr: 0x124C8, symBinAddr: 0x100015A58, symSize: 0x1C }
  - { offsetInCU: 0x26CBE, offset: 0x26CBE, size: 0x8, addend: 0x0, symName: __ZNSt23_Sp_counted_ptr_inplaceI7W_BosonSaIS0_ELN9__gnu_cxx12_Lock_policyE2EE5_Impl8_M_allocEv, symObjAddr: 0x12484, symBinAddr: 0x100015A14, symSize: 0x1C }
  - { offsetInCU: 0x26CC6, offset: 0x26CC6, size: 0x8, addend: 0x0, symName: __ZNSt16allocator_traitsISaI7W_BosonEE7destroyIS0_EEvRS1_PT_, symObjAddr: 0x124A0, symBinAddr: 0x100015A30, symSize: 0x28 }
  - { offsetInCU: 0x26CED, offset: 0x26CED, size: 0x8, addend: 0x0, symName: __ZNSt16allocator_traitsISaI5HiggsEE7destroyIS0_EEvRS1_PT_, symObjAddr: 0x1245C, symBinAddr: 0x1000159EC, symSize: 0x28 }
  - { offsetInCU: 0x26CF5, offset: 0x26CF5, size: 0x8, addend: 0x0, symName: __ZNSt23_Sp_counted_ptr_inplaceI7W_BosonSaIS0_ELN9__gnu_cxx12_Lock_policyE2EE5_Impl8_M_allocEv, symObjAddr: 0x12484, symBinAddr: 0x100015A14, symSize: 0x1C }
  - { offsetInCU: 0x26D40, offset: 0x26D40, size: 0x8, addend: 0x0, symName: __ZNSt23_Sp_counted_ptr_inplaceI5HiggsSaIS0_ELN9__gnu_cxx12_Lock_policyE2EE5_Impl8_M_allocEv, symObjAddr: 0x12440, symBinAddr: 0x1000159D0, symSize: 0x1C }
  - { offsetInCU: 0x26D48, offset: 0x26D48, size: 0x8, addend: 0x0, symName: __ZNSt16allocator_traitsISaI5HiggsEE7destroyIS0_EEvRS1_PT_, symObjAddr: 0x1245C, symBinAddr: 0x1000159EC, symSize: 0x28 }
  - { offsetInCU: 0x26D73, offset: 0x26D73, size: 0x8, addend: 0x0, symName: __ZNSt23_Sp_counted_ptr_inplaceI5QuarkSaIS0_ELN9__gnu_cxx12_Lock_policyE2EE14_M_get_deleterERKSt9type_info, symObjAddr: 0x123CC, symBinAddr: 0x10001595C, symSize: 0x74 }
  - { offsetInCU: 0x26D7B, offset: 0x26D7B, size: 0x8, addend: 0x0, symName: __ZNSt23_Sp_counted_ptr_inplaceI5HiggsSaIS0_ELN9__gnu_cxx12_Lock_policyE2EE5_Impl8_M_allocEv, symObjAddr: 0x12440, symBinAddr: 0x1000159D0, symSize: 0x1C }
  - { offsetInCU: 0x26DCE, offset: 0x26DCE, size: 0x8, addend: 0x0, symName: __ZNSt23_Sp_counted_ptr_inplaceI5QuarkSaIS0_ELN9__gnu_cxx12_Lock_policyE2EE10_M_destroyEv, symObjAddr: 0x12378, symBinAddr: 0x100015908, symSize: 0x54 }
  - { offsetInCU: 0x26DD6, offset: 0x26DD6, size: 0x8, addend: 0x0, symName: __ZNSt23_Sp_counted_ptr_inplaceI5QuarkSaIS0_ELN9__gnu_cxx12_Lock_policyE2EE14_M_get_deleterERKSt9type_info, symObjAddr: 0x123CC, symBinAddr: 0x10001595C, symSize: 0x74 }
  - { offsetInCU: 0x26E25, offset: 0x26E25, size: 0x8, addend: 0x0, symName: __ZNSt23_Sp_counted_ptr_inplaceI5QuarkSaIS0_ELN9__gnu_cxx12_Lock_policyE2EE10_M_disposeEv, symObjAddr: 0x12334, symBinAddr: 0x1000158C4, symSize: 0x44 }
  - { offsetInCU: 0x26E2D, offset: 0x26E2D, size: 0x8, addend: 0x0, symName: __ZNSt23_Sp_counted_ptr_inplaceI5QuarkSaIS0_ELN9__gnu_cxx12_Lock_policyE2EE10_M_destroyEv, symObjAddr: 0x12378, symBinAddr: 0x100015908, symSize: 0x54 }
  - { offsetInCU: 0x26ECA, offset: 0x26ECA, size: 0x8, addend: 0x0, symName: __ZNSt23_Sp_counted_ptr_inplaceI5QuarkSaIS0_ELN9__gnu_cxx12_Lock_policyE2EED0Ev, symObjAddr: 0x1230C, symBinAddr: 0x10001589C, symSize: 0x28 }
  - { offsetInCU: 0x26ED2, offset: 0x26ED2, size: 0x8, addend: 0x0, symName: __ZNSt23_Sp_counted_ptr_inplaceI5QuarkSaIS0_ELN9__gnu_cxx12_Lock_policyE2EE10_M_disposeEv, symObjAddr: 0x12334, symBinAddr: 0x1000158C4, symSize: 0x44 }
  - { offsetInCU: 0x26EF8, offset: 0x26EF8, size: 0x8, addend: 0x0, symName: __ZNSt23_Sp_counted_ptr_inplaceI5QuarkSaIS0_ELN9__gnu_cxx12_Lock_policyE2EED1Ev, symObjAddr: 0x122CC, symBinAddr: 0x10001585C, symSize: 0x40 }
  - { offsetInCU: 0x26F00, offset: 0x26F00, size: 0x8, addend: 0x0, symName: __ZNSt23_Sp_counted_ptr_inplaceI5QuarkSaIS0_ELN9__gnu_cxx12_Lock_policyE2EED0Ev, symObjAddr: 0x1230C, symBinAddr: 0x10001589C, symSize: 0x28 }
  - { offsetInCU: 0x26EDB, offset: 0x26EDB, size: 0x8, addend: 0x0, symName: __ZNSt23_Sp_counted_ptr_inplaceI3TauSaIS0_ELN9__gnu_cxx12_Lock_policyE2EE14_M_get_deleterERKSt9type_info, symObjAddr: 0x12258, symBinAddr: 0x1000157E8, symSize: 0x74 }
  - { offsetInCU: 0x26EE3, offset: 0x26EE3, size: 0x8, addend: 0x0, symName: __ZNSt23_Sp_counted_ptr_inplaceI5QuarkSaIS0_ELN9__gnu_cxx12_Lock_policyE2EED1Ev, symObjAddr: 0x122CC, symBinAddr: 0x10001585C, symSize: 0x40 }
  - { offsetInCU: 0x26F36, offset: 0x26F36, size: 0x8, addend: 0x0, symName: __ZNSt23_Sp_counted_ptr_inplaceI3TauSaIS0_ELN9__gnu_cxx12_Lock_policyE2EE10_M_destroyEv, symObjAddr: 0x12204, symBinAddr: 0x100015794, symSize: 0x54 }
  - { offsetInCU: 0x26F3E, offset: 0x26F3E, size: 0x8, addend: 0x0, symName: __ZNSt23_Sp_counted_ptr_inplaceI3TauSaIS0_ELN9__gnu_cxx12_Lock_policyE2EE14_M_get_deleterERKSt9type_info, symObjAddr: 0x12258, symBinAddr: 0x1000157E8, symSize: 0x74 }
  - { offsetInCU: 0x26F8D, offset: 0x26F8D, size: 0x8, addend: 0x0, symName: __ZNSt23_Sp_counted_ptr_inplaceI3TauSaIS0_ELN9__gnu_cxx12_Lock_policyE2EE10_M_disposeEv, symObjAddr: 0x121C0, symBinAddr: 0x100015750, symSize: 0x44 }
  - { offsetInCU: 0x26F95, offset: 0x26F95, size: 0x8, addend: 0x0, symName: __ZNSt23_Sp_counted_ptr_inplaceI3TauSaIS0_ELN9__gnu_cxx12_Lock_policyE2EE10_M_destroyEv, symObjAddr: 0x12204, symBinAddr: 0x100015794, symSize: 0x54 }
  - { offsetInCU: 0x27030, offset: 0x27030, size: 0x8, addend: 0x0, symName: __ZNSt23_Sp_counted_ptr_inplaceI3TauSaIS0_ELN9__gnu_cxx12_Lock_policyE2EED0Ev, symObjAddr: 0x12198, symBinAddr: 0x100015728, symSize: 0x28 }
  - { offsetInCU: 0x27038, offset: 0x27038, size: 0x8, addend: 0x0, symName: __ZNSt23_Sp_counted_ptr_inplaceI3TauSaIS0_ELN9__gnu_cxx12_Lock_policyE2EE10_M_disposeEv, symObjAddr: 0x121C0, symBinAddr: 0x100015750, symSize: 0x44 }
  - { offsetInCU: 0x2705E, offset: 0x2705E, size: 0x8, addend: 0x0, symName: __ZNSt23_Sp_counted_ptr_inplaceI3TauSaIS0_ELN9__gnu_cxx12_Lock_policyE2EED1Ev, symObjAddr: 0x12158, symBinAddr: 0x1000156E8, symSize: 0x40 }
  - { offsetInCU: 0x27066, offset: 0x27066, size: 0x8, addend: 0x0, symName: __ZNSt23_Sp_counted_ptr_inplaceI3TauSaIS0_ELN9__gnu_cxx12_Lock_policyE2EED0Ev, symObjAddr: 0x12198, symBinAddr: 0x100015728, symSize: 0x28 }
  - { offsetInCU: 0x27043, offset: 0x27043, size: 0x8, addend: 0x0, symName: __ZNSt23_Sp_counted_ptr_inplaceI8ElectronSaIS0_ELN9__gnu_cxx12_Lock_policyE2EE14_M_get_deleterERKSt9type_info, symObjAddr: 0x120E4, symBinAddr: 0x100015674, symSize: 0x74 }
  - { offsetInCU: 0x2704B, offset: 0x2704B, size: 0x8, addend: 0x0, symName: __ZNSt23_Sp_counted_ptr_inplaceI3TauSaIS0_ELN9__gnu_cxx12_Lock_policyE2EED1Ev, symObjAddr: 0x12158, symBinAddr: 0x1000156E8, symSize: 0x40 }
  - { offsetInCU: 0x2709E, offset: 0x2709E, size: 0x8, addend: 0x0, symName: __ZNSt23_Sp_counted_ptr_inplaceI8ElectronSaIS0_ELN9__gnu_cxx12_Lock_policyE2EE10_M_destroyEv, symObjAddr: 0x12090, symBinAddr: 0x100015620, symSize: 0x54 }
  - { offsetInCU: 0x270A6, offset: 0x270A6, size: 0x8, addend: 0x0, symName: __ZNSt23_Sp_counted_ptr_inplaceI8ElectronSaIS0_ELN9__gnu_cxx12_Lock_policyE2EE14_M_get_deleterERKSt9type_info, symObjAddr: 0x120E4, symBinAddr: 0x100015674, symSize: 0x74 }
  - { offsetInCU: 0x270F5, offset: 0x270F5, size: 0x8, addend: 0x0, symName: __ZNSt23_Sp_counted_ptr_inplaceI8ElectronSaIS0_ELN9__gnu_cxx12_Lock_policyE2EE10_M_disposeEv, symObjAddr: 0x1204C, symBinAddr: 0x1000155DC, symSize: 0x44 }
  - { offsetInCU: 0x270FD, offset: 0x270FD, size: 0x8, addend: 0x0, symName: __ZNSt23_Sp_counted_ptr_inplaceI8ElectronSaIS0_ELN9__gnu_cxx12_Lock_policyE2EE10_M_destroyEv, symObjAddr: 0x12090, symBinAddr: 0x100015620, symSize: 0x54 }
  - { offsetInCU: 0x2719D, offset: 0x2719D, size: 0x8, addend: 0x0, symName: __ZNSt23_Sp_counted_ptr_inplaceI8ElectronSaIS0_ELN9__gnu_cxx12_Lock_policyE2EED0Ev, symObjAddr: 0x12024, symBinAddr: 0x1000155B4, symSize: 0x28 }
  - { offsetInCU: 0x271A5, offset: 0x271A5, size: 0x8, addend: 0x0, symName: __ZNSt23_Sp_counted_ptr_inplaceI8ElectronSaIS0_ELN9__gnu_cxx12_Lock_policyE2EE10_M_disposeEv, symObjAddr: 0x1204C, symBinAddr: 0x1000155DC, symSize: 0x44 }
  - { offsetInCU: 0x271CB, offset: 0x271CB, size: 0x8, addend: 0x0, symName: __ZNSt23_Sp_counted_ptr_inplaceI8ElectronSaIS0_ELN9__gnu_cxx12_Lock_policyE2EED1Ev, symObjAddr: 0x11FE4, symBinAddr: 0x100015574, symSize: 0x40 }
  - { offsetInCU: 0x271D3, offset: 0x271D3, size: 0x8, addend: 0x0, symName: __ZNSt23_Sp_counted_ptr_inplaceI8ElectronSaIS0_ELN9__gnu_cxx12_Lock_policyE2EED0Ev, symObjAddr: 0x12024, symBinAddr: 0x1000155B4, symSize: 0x28 }
  - { offsetInCU: 0x271AB, offset: 0x271AB, size: 0x8, addend: 0x0, symName: __ZNSt23_Sp_counted_ptr_inplaceI8NeutrinoSaIS0_ELN9__gnu_cxx12_Lock_policyE2EE14_M_get_deleterERKSt9type_info, symObjAddr: 0x11F70, symBinAddr: 0x100015500, symSize: 0x74 }
  - { offsetInCU: 0x271B3, offset: 0x271B3, size: 0x8, addend: 0x0, symName: __ZNSt23_Sp_counted_ptr_inplaceI8ElectronSaIS0_ELN9__gnu_cxx12_Lock_policyE2EED1Ev, symObjAddr: 0x11FE4, symBinAddr: 0x100015574, symSize: 0x40 }
  - { offsetInCU: 0x27206, offset: 0x27206, size: 0x8, addend: 0x0, symName: __ZNSt23_Sp_counted_ptr_inplaceI8NeutrinoSaIS0_ELN9__gnu_cxx12_Lock_policyE2EE10_M_destroyEv, symObjAddr: 0x11F1C, symBinAddr: 0x1000154AC, symSize: 0x54 }
  - { offsetInCU: 0x2720E, offset: 0x2720E, size: 0x8, addend: 0x0, symName: __ZNSt23_Sp_counted_ptr_inplaceI8NeutrinoSaIS0_ELN9__gnu_cxx12_Lock_policyE2EE14_M_get_deleterERKSt9type_info, symObjAddr: 0x11F70, symBinAddr: 0x100015500, symSize: 0x74 }
  - { offsetInCU: 0x2725D, offset: 0x2725D, size: 0x8, addend: 0x0, symName: __ZNSt23_Sp_counted_ptr_inplaceI8NeutrinoSaIS0_ELN9__gnu_cxx12_Lock_policyE2EE10_M_disposeEv, symObjAddr: 0x11ED8, symBinAddr: 0x100015468, symSize: 0x44 }
  - { offsetInCU: 0x27265, offset: 0x27265, size: 0x8, addend: 0x0, symName: __ZNSt23_Sp_counted_ptr_inplaceI8NeutrinoSaIS0_ELN9__gnu_cxx12_Lock_policyE2EE10_M_destroyEv, symObjAddr: 0x11F1C, symBinAddr: 0x1000154AC, symSize: 0x54 }
  - { offsetInCU: 0x27305, offset: 0x27305, size: 0x8, addend: 0x0, symName: __ZNSt23_Sp_counted_ptr_inplaceI8NeutrinoSaIS0_ELN9__gnu_cxx12_Lock_policyE2EED0Ev, symObjAddr: 0x11EB0, symBinAddr: 0x100015440, symSize: 0x28 }
  - { offsetInCU: 0x2730D, offset: 0x2730D, size: 0x8, addend: 0x0, symName: __ZNSt23_Sp_counted_ptr_inplaceI8NeutrinoSaIS0_ELN9__gnu_cxx12_Lock_policyE2EE10_M_disposeEv, symObjAddr: 0x11ED8, symBinAddr: 0x100015468, symSize: 0x44 }
  - { offsetInCU: 0x27333, offset: 0x27333, size: 0x8, addend: 0x0, symName: __ZNSt23_Sp_counted_ptr_inplaceI8NeutrinoSaIS0_ELN9__gnu_cxx12_Lock_policyE2EED1Ev, symObjAddr: 0x11E70, symBinAddr: 0x100015400, symSize: 0x40 }
  - { offsetInCU: 0x2733B, offset: 0x2733B, size: 0x8, addend: 0x0, symName: __ZNSt23_Sp_counted_ptr_inplaceI8NeutrinoSaIS0_ELN9__gnu_cxx12_Lock_policyE2EED0Ev, symObjAddr: 0x11EB0, symBinAddr: 0x100015440, symSize: 0x28 }
  - { offsetInCU: 0x27313, offset: 0x27313, size: 0x8, addend: 0x0, symName: __ZNSt23_Sp_counted_ptr_inplaceI4MuonSaIS0_ELN9__gnu_cxx12_Lock_policyE2EE14_M_get_deleterERKSt9type_info, symObjAddr: 0x11DFC, symBinAddr: 0x10001538C, symSize: 0x74 }
  - { offsetInCU: 0x2731B, offset: 0x2731B, size: 0x8, addend: 0x0, symName: __ZNSt23_Sp_counted_ptr_inplaceI8NeutrinoSaIS0_ELN9__gnu_cxx12_Lock_policyE2EED1Ev, symObjAddr: 0x11E70, symBinAddr: 0x100015400, symSize: 0x40 }
  - { offsetInCU: 0x2736E, offset: 0x2736E, size: 0x8, addend: 0x0, symName: __ZNSt23_Sp_counted_ptr_inplaceI4MuonSaIS0_ELN9__gnu_cxx12_Lock_policyE2EE10_M_destroyEv, symObjAddr: 0x11DA8, symBinAddr: 0x100015338, symSize: 0x54 }
  - { offsetInCU: 0x27376, offset: 0x27376, size: 0x8, addend: 0x0, symName: __ZNSt23_Sp_counted_ptr_inplaceI4MuonSaIS0_ELN9__gnu_cxx12_Lock_policyE2EE14_M_get_deleterERKSt9type_info, symObjAddr: 0x11DFC, symBinAddr: 0x10001538C, symSize: 0x74 }
  - { offsetInCU: 0x273C5, offset: 0x273C5, size: 0x8, addend: 0x0, symName: __ZNSt23_Sp_counted_ptr_inplaceI4MuonSaIS0_ELN9__gnu_cxx12_Lock_policyE2EE10_M_disposeEv, symObjAddr: 0x11D64, symBinAddr: 0x1000152F4, symSize: 0x44 }
  - { offsetInCU: 0x273CD, offset: 0x273CD, size: 0x8, addend: 0x0, symName: __ZNSt23_Sp_counted_ptr_inplaceI4MuonSaIS0_ELN9__gnu_cxx12_Lock_policyE2EE10_M_destroyEv, symObjAddr: 0x11DA8, symBinAddr: 0x100015338, symSize: 0x54 }
  - { offsetInCU: 0x27469, offset: 0x27469, size: 0x8, addend: 0x0, symName: __ZNSt23_Sp_counted_ptr_inplaceI4MuonSaIS0_ELN9__gnu_cxx12_Lock_policyE2EED0Ev, symObjAddr: 0x11D3C, symBinAddr: 0x1000152CC, symSize: 0x28 }
  - { offsetInCU: 0x27471, offset: 0x27471, size: 0x8, addend: 0x0, symName: __ZNSt23_Sp_counted_ptr_inplaceI4MuonSaIS0_ELN9__gnu_cxx12_Lock_policyE2EE10_M_disposeEv, symObjAddr: 0x11D64, symBinAddr: 0x1000152F4, symSize: 0x44 }
  - { offsetInCU: 0x27497, offset: 0x27497, size: 0x8, addend: 0x0, symName: __ZNSt23_Sp_counted_ptr_inplaceI4MuonSaIS0_ELN9__gnu_cxx12_Lock_policyE2EED1Ev, symObjAddr: 0x11CFC, symBinAddr: 0x10001528C, symSize: 0x40 }
  - { offsetInCU: 0x2749F, offset: 0x2749F, size: 0x8, addend: 0x0, symName: __ZNSt23_Sp_counted_ptr_inplaceI4MuonSaIS0_ELN9__gnu_cxx12_Lock_policyE2EED0Ev, symObjAddr: 0x11D3C, symBinAddr: 0x1000152CC, symSize: 0x28 }
  - { offsetInCU: 0x2747B, offset: 0x2747B, size: 0x8, addend: 0x0, symName: __ZNSt23_Sp_counted_ptr_inplaceI5GluonSaIS0_ELN9__gnu_cxx12_Lock_policyE2EE14_M_get_deleterERKSt9type_info, symObjAddr: 0x11C88, symBinAddr: 0x100015218, symSize: 0x74 }
  - { offsetInCU: 0x27483, offset: 0x27483, size: 0x8, addend: 0x0, symName: __ZNSt23_Sp_counted_ptr_inplaceI4MuonSaIS0_ELN9__gnu_cxx12_Lock_policyE2EED1Ev, symObjAddr: 0x11CFC, symBinAddr: 0x10001528C, symSize: 0x40 }
  - { offsetInCU: 0x274D6, offset: 0x274D6, size: 0x8, addend: 0x0, symName: __ZNSt23_Sp_counted_ptr_inplaceI5GluonSaIS0_ELN9__gnu_cxx12_Lock_policyE2EE10_M_destroyEv, symObjAddr: 0x11C34, symBinAddr: 0x1000151C4, symSize: 0x54 }
  - { offsetInCU: 0x274DE, offset: 0x274DE, size: 0x8, addend: 0x0, symName: __ZNSt23_Sp_counted_ptr_inplaceI5GluonSaIS0_ELN9__gnu_cxx12_Lock_policyE2EE14_M_get_deleterERKSt9type_info, symObjAddr: 0x11C88, symBinAddr: 0x100015218, symSize: 0x74 }
  - { offsetInCU: 0x2752D, offset: 0x2752D, size: 0x8, addend: 0x0, symName: __ZNSt23_Sp_counted_ptr_inplaceI5GluonSaIS0_ELN9__gnu_cxx12_Lock_policyE2EE10_M_disposeEv, symObjAddr: 0x11BF0, symBinAddr: 0x100015180, symSize: 0x44 }
  - { offsetInCU: 0x27535, offset: 0x27535, size: 0x8, addend: 0x0, symName: __ZNSt23_Sp_counted_ptr_inplaceI5GluonSaIS0_ELN9__gnu_cxx12_Lock_policyE2EE10_M_destroyEv, symObjAddr: 0x11C34, symBinAddr: 0x1000151C4, symSize: 0x54 }
  - { offsetInCU: 0x275D2, offset: 0x275D2, size: 0x8, addend: 0x0, symName: __ZNSt23_Sp_counted_ptr_inplaceI5GluonSaIS0_ELN9__gnu_cxx12_Lock_policyE2EED0Ev, symObjAddr: 0x11BC8, symBinAddr: 0x100015158, symSize: 0x28 }
  - { offsetInCU: 0x275DA, offset: 0x275DA, size: 0x8, addend: 0x0, symName: __ZNSt23_Sp_counted_ptr_inplaceI5GluonSaIS0_ELN9__gnu_cxx12_Lock_policyE2EE10_M_disposeEv, symObjAddr: 0x11BF0, symBinAddr: 0x100015180, symSize: 0x44 }
  - { offsetInCU: 0x27600, offset: 0x27600, size: 0x8, addend: 0x0, symName: __ZNSt23_Sp_counted_ptr_inplaceI5GluonSaIS0_ELN9__gnu_cxx12_Lock_policyE2EED1Ev, symObjAddr: 0x11B88, symBinAddr: 0x100015118, symSize: 0x40 }
  - { offsetInCU: 0x27608, offset: 0x27608, size: 0x8, addend: 0x0, symName: __ZNSt23_Sp_counted_ptr_inplaceI5GluonSaIS0_ELN9__gnu_cxx12_Lock_policyE2EED0Ev, symObjAddr: 0x11BC8, symBinAddr: 0x100015158, symSize: 0x28 }
  - { offsetInCU: 0x275E3, offset: 0x275E3, size: 0x8, addend: 0x0, symName: __ZNSt23_Sp_counted_ptr_inplaceI6PhotonSaIS0_ELN9__gnu_cxx12_Lock_policyE2EE14_M_get_deleterERKSt9type_info, symObjAddr: 0x11B14, symBinAddr: 0x1000150A4, symSize: 0x74 }
  - { offsetInCU: 0x275EB, offset: 0x275EB, size: 0x8, addend: 0x0, symName: __ZNSt23_Sp_counted_ptr_inplaceI5GluonSaIS0_ELN9__gnu_cxx12_Lock_policyE2EED1Ev, symObjAddr: 0x11B88, symBinAddr: 0x100015118, symSize: 0x40 }
  - { offsetInCU: 0x2763E, offset: 0x2763E, size: 0x8, addend: 0x0, symName: __ZNSt23_Sp_counted_ptr_inplaceI6PhotonSaIS0_ELN9__gnu_cxx12_Lock_policyE2EE10_M_destroyEv, symObjAddr: 0x11AC0, symBinAddr: 0x100015050, symSize: 0x54 }
  - { offsetInCU: 0x27646, offset: 0x27646, size: 0x8, addend: 0x0, symName: __ZNSt23_Sp_counted_ptr_inplaceI6PhotonSaIS0_ELN9__gnu_cxx12_Lock_policyE2EE14_M_get_deleterERKSt9type_info, symObjAddr: 0x11B14, symBinAddr: 0x1000150A4, symSize: 0x74 }
  - { offsetInCU: 0x27695, offset: 0x27695, size: 0x8, addend: 0x0, symName: __ZNSt23_Sp_counted_ptr_inplaceI6PhotonSaIS0_ELN9__gnu_cxx12_Lock_policyE2EE10_M_disposeEv, symObjAddr: 0x11A7C, symBinAddr: 0x10001500C, symSize: 0x44 }
  - { offsetInCU: 0x2769D, offset: 0x2769D, size: 0x8, addend: 0x0, symName: __ZNSt23_Sp_counted_ptr_inplaceI6PhotonSaIS0_ELN9__gnu_cxx12_Lock_policyE2EE10_M_destroyEv, symObjAddr: 0x11AC0, symBinAddr: 0x100015050, symSize: 0x54 }
  - { offsetInCU: 0x2773B, offset: 0x2773B, size: 0x8, addend: 0x0, symName: __ZNSt23_Sp_counted_ptr_inplaceI6PhotonSaIS0_ELN9__gnu_cxx12_Lock_policyE2EED0Ev, symObjAddr: 0x11A54, symBinAddr: 0x100014FE4, symSize: 0x28 }
  - { offsetInCU: 0x27743, offset: 0x27743, size: 0x8, addend: 0x0, symName: __ZNSt23_Sp_counted_ptr_inplaceI6PhotonSaIS0_ELN9__gnu_cxx12_Lock_policyE2EE10_M_disposeEv, symObjAddr: 0x11A7C, symBinAddr: 0x10001500C, symSize: 0x44 }
  - { offsetInCU: 0x27769, offset: 0x27769, size: 0x8, addend: 0x0, symName: __ZNSt23_Sp_counted_ptr_inplaceI6PhotonSaIS0_ELN9__gnu_cxx12_Lock_policyE2EED1Ev, symObjAddr: 0x11A14, symBinAddr: 0x100014FA4, symSize: 0x40 }
  - { offsetInCU: 0x27771, offset: 0x27771, size: 0x8, addend: 0x0, symName: __ZNSt23_Sp_counted_ptr_inplaceI6PhotonSaIS0_ELN9__gnu_cxx12_Lock_policyE2EED0Ev, symObjAddr: 0x11A54, symBinAddr: 0x100014FE4, symSize: 0x28 }
  - { offsetInCU: 0x2774B, offset: 0x2774B, size: 0x8, addend: 0x0, symName: __ZNSt23_Sp_counted_ptr_inplaceI7Z_BosonSaIS0_ELN9__gnu_cxx12_Lock_policyE2EE14_M_get_deleterERKSt9type_info, symObjAddr: 0x119A0, symBinAddr: 0x100014F30, symSize: 0x74 }
  - { offsetInCU: 0x27753, offset: 0x27753, size: 0x8, addend: 0x0, symName: __ZNSt23_Sp_counted_ptr_inplaceI6PhotonSaIS0_ELN9__gnu_cxx12_Lock_policyE2EED1Ev, symObjAddr: 0x11A14, symBinAddr: 0x100014FA4, symSize: 0x40 }
  - { offsetInCU: 0x277A6, offset: 0x277A6, size: 0x8, addend: 0x0, symName: __ZNSt23_Sp_counted_ptr_inplaceI7Z_BosonSaIS0_ELN9__gnu_cxx12_Lock_policyE2EE10_M_destroyEv, symObjAddr: 0x1194C, symBinAddr: 0x100014EDC, symSize: 0x54 }
  - { offsetInCU: 0x277AE, offset: 0x277AE, size: 0x8, addend: 0x0, symName: __ZNSt23_Sp_counted_ptr_inplaceI7Z_BosonSaIS0_ELN9__gnu_cxx12_Lock_policyE2EE14_M_get_deleterERKSt9type_info, symObjAddr: 0x119A0, symBinAddr: 0x100014F30, symSize: 0x74 }
  - { offsetInCU: 0x277FD, offset: 0x277FD, size: 0x8, addend: 0x0, symName: __ZNSt23_Sp_counted_ptr_inplaceI7Z_BosonSaIS0_ELN9__gnu_cxx12_Lock_policyE2EE10_M_disposeEv, symObjAddr: 0x11908, symBinAddr: 0x100014E98, symSize: 0x44 }
  - { offsetInCU: 0x27805, offset: 0x27805, size: 0x8, addend: 0x0, symName: __ZNSt23_Sp_counted_ptr_inplaceI7Z_BosonSaIS0_ELN9__gnu_cxx12_Lock_policyE2EE10_M_destroyEv, symObjAddr: 0x1194C, symBinAddr: 0x100014EDC, symSize: 0x54 }
  - { offsetInCU: 0x278A4, offset: 0x278A4, size: 0x8, addend: 0x0, symName: __ZNSt23_Sp_counted_ptr_inplaceI7Z_BosonSaIS0_ELN9__gnu_cxx12_Lock_policyE2EED0Ev, symObjAddr: 0x118E0, symBinAddr: 0x100014E70, symSize: 0x28 }
  - { offsetInCU: 0x278AC, offset: 0x278AC, size: 0x8, addend: 0x0, symName: __ZNSt23_Sp_counted_ptr_inplaceI7Z_BosonSaIS0_ELN9__gnu_cxx12_Lock_policyE2EE10_M_disposeEv, symObjAddr: 0x11908, symBinAddr: 0x100014E98, symSize: 0x44 }
  - { offsetInCU: 0x278D2, offset: 0x278D2, size: 0x8, addend: 0x0, symName: __ZNSt23_Sp_counted_ptr_inplaceI7Z_BosonSaIS0_ELN9__gnu_cxx12_Lock_policyE2EED1Ev, symObjAddr: 0x118A0, symBinAddr: 0x100014E30, symSize: 0x40 }
  - { offsetInCU: 0x278DA, offset: 0x278DA, size: 0x8, addend: 0x0, symName: __ZNSt23_Sp_counted_ptr_inplaceI7Z_BosonSaIS0_ELN9__gnu_cxx12_Lock_policyE2EED0Ev, symObjAddr: 0x118E0, symBinAddr: 0x100014E70, symSize: 0x28 }
  - { offsetInCU: 0x278B3, offset: 0x278B3, size: 0x8, addend: 0x0, symName: __ZNSt23_Sp_counted_ptr_inplaceI7W_BosonSaIS0_ELN9__gnu_cxx12_Lock_policyE2EE14_M_get_deleterERKSt9type_info, symObjAddr: 0x1182C, symBinAddr: 0x100014DBC, symSize: 0x74 }
  - { offsetInCU: 0x278BB, offset: 0x278BB, size: 0x8, addend: 0x0, symName: __ZNSt23_Sp_counted_ptr_inplaceI7Z_BosonSaIS0_ELN9__gnu_cxx12_Lock_policyE2EED1Ev, symObjAddr: 0x118A0, symBinAddr: 0x100014E30, symSize: 0x40 }
  - { offsetInCU: 0x2790E, offset: 0x2790E, size: 0x8, addend: 0x0, symName: __ZNSt23_Sp_counted_ptr_inplaceI7W_BosonSaIS0_ELN9__gnu_cxx12_Lock_policyE2EE10_M_destroyEv, symObjAddr: 0x117D8, symBinAddr: 0x100014D68, symSize: 0x54 }
  - { offsetInCU: 0x27916, offset: 0x27916, size: 0x8, addend: 0x0, symName: __ZNSt23_Sp_counted_ptr_inplaceI7W_BosonSaIS0_ELN9__gnu_cxx12_Lock_policyE2EE14_M_get_deleterERKSt9type_info, symObjAddr: 0x1182C, symBinAddr: 0x100014DBC, symSize: 0x74 }
  - { offsetInCU: 0x27965, offset: 0x27965, size: 0x8, addend: 0x0, symName: __ZNSt23_Sp_counted_ptr_inplaceI7W_BosonSaIS0_ELN9__gnu_cxx12_Lock_policyE2EE10_M_disposeEv, symObjAddr: 0x11794, symBinAddr: 0x100014D24, symSize: 0x44 }
  - { offsetInCU: 0x2796D, offset: 0x2796D, size: 0x8, addend: 0x0, symName: __ZNSt23_Sp_counted_ptr_inplaceI7W_BosonSaIS0_ELN9__gnu_cxx12_Lock_policyE2EE10_M_destroyEv, symObjAddr: 0x117D8, symBinAddr: 0x100014D68, symSize: 0x54 }
  - { offsetInCU: 0x27A0C, offset: 0x27A0C, size: 0x8, addend: 0x0, symName: __ZNSt23_Sp_counted_ptr_inplaceI7W_BosonSaIS0_ELN9__gnu_cxx12_Lock_policyE2EED0Ev, symObjAddr: 0x1176C, symBinAddr: 0x100014CFC, symSize: 0x28 }
  - { offsetInCU: 0x27A14, offset: 0x27A14, size: 0x8, addend: 0x0, symName: __ZNSt23_Sp_counted_ptr_inplaceI7W_BosonSaIS0_ELN9__gnu_cxx12_Lock_policyE2EE10_M_disposeEv, symObjAddr: 0x11794, symBinAddr: 0x100014D24, symSize: 0x44 }
  - { offsetInCU: 0x27A3A, offset: 0x27A3A, size: 0x8, addend: 0x0, symName: __ZNSt23_Sp_counted_ptr_inplaceI7W_BosonSaIS0_ELN9__gnu_cxx12_Lock_policyE2EED1Ev, symObjAddr: 0x1172C, symBinAddr: 0x100014CBC, symSize: 0x40 }
  - { offsetInCU: 0x27A42, offset: 0x27A42, size: 0x8, addend: 0x0, symName: __ZNSt23_Sp_counted_ptr_inplaceI7W_BosonSaIS0_ELN9__gnu_cxx12_Lock_policyE2EED0Ev, symObjAddr: 0x1176C, symBinAddr: 0x100014CFC, symSize: 0x28 }
  - { offsetInCU: 0x27A1B, offset: 0x27A1B, size: 0x8, addend: 0x0, symName: __ZNSt23_Sp_counted_ptr_inplaceI5HiggsSaIS0_ELN9__gnu_cxx12_Lock_policyE2EE14_M_get_deleterERKSt9type_info, symObjAddr: 0x116B8, symBinAddr: 0x100014C48, symSize: 0x74 }
  - { offsetInCU: 0x27A23, offset: 0x27A23, size: 0x8, addend: 0x0, symName: __ZNSt23_Sp_counted_ptr_inplaceI7W_BosonSaIS0_ELN9__gnu_cxx12_Lock_policyE2EED1Ev, symObjAddr: 0x1172C, symBinAddr: 0x100014CBC, symSize: 0x40 }
  - { offsetInCU: 0x27A76, offset: 0x27A76, size: 0x8, addend: 0x0, symName: __ZNSt23_Sp_counted_ptr_inplaceI5HiggsSaIS0_ELN9__gnu_cxx12_Lock_policyE2EE10_M_destroyEv, symObjAddr: 0x11664, symBinAddr: 0x100014BF4, symSize: 0x54 }
  - { offsetInCU: 0x27A7E, offset: 0x27A7E, size: 0x8, addend: 0x0, symName: __ZNSt23_Sp_counted_ptr_inplaceI5HiggsSaIS0_ELN9__gnu_cxx12_Lock_policyE2EE14_M_get_deleterERKSt9type_info, symObjAddr: 0x116B8, symBinAddr: 0x100014C48, symSize: 0x74 }
  - { offsetInCU: 0x27ACD, offset: 0x27ACD, size: 0x8, addend: 0x0, symName: __ZNSt23_Sp_counted_ptr_inplaceI5HiggsSaIS0_ELN9__gnu_cxx12_Lock_policyE2EE10_M_disposeEv, symObjAddr: 0x11620, symBinAddr: 0x100014BB0, symSize: 0x44 }
  - { offsetInCU: 0x27AD5, offset: 0x27AD5, size: 0x8, addend: 0x0, symName: __ZNSt23_Sp_counted_ptr_inplaceI5HiggsSaIS0_ELN9__gnu_cxx12_Lock_policyE2EE10_M_destroyEv, symObjAddr: 0x11664, symBinAddr: 0x100014BF4, symSize: 0x54 }
  - { offsetInCU: 0x27B72, offset: 0x27B72, size: 0x8, addend: 0x0, symName: __ZNSt23_Sp_counted_ptr_inplaceI5HiggsSaIS0_ELN9__gnu_cxx12_Lock_policyE2EED0Ev, symObjAddr: 0x115F8, symBinAddr: 0x100014B88, symSize: 0x28 }
  - { offsetInCU: 0x27B7A, offset: 0x27B7A, size: 0x8, addend: 0x0, symName: __ZNSt23_Sp_counted_ptr_inplaceI5HiggsSaIS0_ELN9__gnu_cxx12_Lock_policyE2EE10_M_disposeEv, symObjAddr: 0x11620, symBinAddr: 0x100014BB0, symSize: 0x44 }
  - { offsetInCU: 0x27BA0, offset: 0x27BA0, size: 0x8, addend: 0x0, symName: __ZNSt23_Sp_counted_ptr_inplaceI5HiggsSaIS0_ELN9__gnu_cxx12_Lock_policyE2EED1Ev, symObjAddr: 0x115B8, symBinAddr: 0x100014B48, symSize: 0x40 }
  - { offsetInCU: 0x27BA8, offset: 0x27BA8, size: 0x8, addend: 0x0, symName: __ZNSt23_Sp_counted_ptr_inplaceI5HiggsSaIS0_ELN9__gnu_cxx12_Lock_policyE2EED0Ev, symObjAddr: 0x115F8, symBinAddr: 0x100014B88, symSize: 0x28 }
  - { offsetInCU: 0x27BA7, offset: 0x27BA7, size: 0x8, addend: 0x0, symName: __Z41__static_initialization_and_destruction_0ii, symObjAddr: 0x11558, symBinAddr: 0x100014AE8, symSize: 0x60 }
  - { offsetInCU: 0x27BAF, offset: 0x27BAF, size: 0x8, addend: 0x0, symName: __ZNSt23_Sp_counted_ptr_inplaceI5HiggsSaIS0_ELN9__gnu_cxx12_Lock_policyE2EED1Ev, symObjAddr: 0x115B8, symBinAddr: 0x100014B48, symSize: 0x40 }
  - { offsetInCU: 0x27C2D, offset: 0x27C2D, size: 0x8, addend: 0x0, symName: __ZNSt12__shared_ptrI8ParticleLN9__gnu_cxx12_Lock_policyE2EEC2EOS3_, symObjAddr: 0x114FC, symBinAddr: 0x100014A8C, symSize: 0x5C }
  - { offsetInCU: 0x27C35, offset: 0x27C35, size: 0x8, addend: 0x0, symName: __Z41__static_initialization_and_destruction_0ii, symObjAddr: 0x11558, symBinAddr: 0x100014AE8, symSize: 0x60 }
  - { offsetInCU: 0x27C72, offset: 0x27C72, size: 0x8, addend: 0x0, symName: __ZNSt10shared_ptrI8ParticleEC1EOS1_, symObjAddr: 0x114C0, symBinAddr: 0x100014A50, symSize: 0x3C }
  - { offsetInCU: 0x27C7A, offset: 0x27C7A, size: 0x8, addend: 0x0, symName: __ZNSt12__shared_ptrI8ParticleLN9__gnu_cxx12_Lock_policyE2EEC2EOS3_, symObjAddr: 0x114FC, symBinAddr: 0x100014A8C, symSize: 0x5C }
  - { offsetInCU: 0x27C88, offset: 0x27C88, size: 0x8, addend: 0x0, symName: __ZN9__gnu_cxx13new_allocatorISt10shared_ptrI8ParticleEE9constructIS3_JS3_EEEvPT_DpOT0_, symObjAddr: 0x11474, symBinAddr: 0x100014A04, symSize: 0x4C }
  - { offsetInCU: 0x27C90, offset: 0x27C90, size: 0x8, addend: 0x0, symName: __ZNSt10shared_ptrI8ParticleEC1EOS1_, symObjAddr: 0x114C0, symBinAddr: 0x100014A50, symSize: 0x3C }
  - { offsetInCU: 0x27D6B, offset: 0x27D6B, size: 0x8, addend: 0x0, symName: __ZSt7forwardISt10shared_ptrI8ParticleEEOT_RNSt16remove_referenceIS3_E4typeE, symObjAddr: 0x11460, symBinAddr: 0x1000149F0, symSize: 0x14 }
  - { offsetInCU: 0x27D73, offset: 0x27D73, size: 0x8, addend: 0x0, symName: __ZN9__gnu_cxx13new_allocatorISt10shared_ptrI8ParticleEE9constructIS3_JS3_EEEvPT_DpOT0_, symObjAddr: 0x11474, symBinAddr: 0x100014A04, symSize: 0x4C }
  - { offsetInCU: 0x27D56, offset: 0x27D56, size: 0x8, addend: 0x0, symName: __ZN9__gnu_cxx13new_allocatorI7W_BosonE9constructIS1_JdiiibEEEvPT_DpOT0_, symObjAddr: 0x11380, symBinAddr: 0x100014910, symSize: 0xE0 }
  - { offsetInCU: 0x27D5E, offset: 0x27D5E, size: 0x8, addend: 0x0, symName: __ZSt7forwardISt10shared_ptrI8ParticleEEOT_RNSt16remove_referenceIS3_E4typeE, symObjAddr: 0x11460, symBinAddr: 0x1000149F0, symSize: 0x14 }
  - { offsetInCU: 0x27E19, offset: 0x27E19, size: 0x8, addend: 0x0, symName: __ZN9__gnu_cxx13new_allocatorI7Z_BosonE9constructIS1_JdiiiEEEvPT_DpOT0_, symObjAddr: 0x112B4, symBinAddr: 0x100014844, symSize: 0xCC }
  - { offsetInCU: 0x27E21, offset: 0x27E21, size: 0x8, addend: 0x0, symName: __ZN9__gnu_cxx13new_allocatorI7W_BosonE9constructIS1_JdiiibEEEvPT_DpOT0_, symObjAddr: 0x11380, symBinAddr: 0x100014910, symSize: 0xE0 }
  - { offsetInCU: 0x27ECB, offset: 0x27ECB, size: 0x8, addend: 0x0, symName: __ZN9__gnu_cxx16__aligned_bufferI5HiggsE7_M_addrEv, symObjAddr: 0x112A0, symBinAddr: 0x100014830, symSize: 0x14 }
  - { offsetInCU: 0x27ED3, offset: 0x27ED3, size: 0x8, addend: 0x0, symName: __ZN9__gnu_cxx13new_allocatorI7Z_BosonE9constructIS1_JdiiiEEEvPT_DpOT0_, symObjAddr: 0x112B4, symBinAddr: 0x100014844, symSize: 0xCC }
  - { offsetInCU: 0x27EFE, offset: 0x27EFE, size: 0x8, addend: 0x0, symName: __ZN9__gnu_cxx13new_allocatorI5HiggsE9constructIS1_JddddEEEvPT_DpOT0_, symObjAddr: 0x111E0, symBinAddr: 0x100014770, symSize: 0xC0 }
  - { offsetInCU: 0x27F06, offset: 0x27F06, size: 0x8, addend: 0x0, symName: __ZN9__gnu_cxx16__aligned_bufferI5HiggsE7_M_addrEv, symObjAddr: 0x112A0, symBinAddr: 0x100014830, symSize: 0x14 }
  - { offsetInCU: 0x28008, offset: 0x28008, size: 0x8, addend: 0x0, symName: __ZNSt14_Sp_ebo_helperILi0ESaI5HiggsELb1EEC2ERKS1_, symObjAddr: 0x111B8, symBinAddr: 0x100014748, symSize: 0x28 }
  - { offsetInCU: 0x28010, offset: 0x28010, size: 0x8, addend: 0x0, symName: __ZN9__gnu_cxx13new_allocatorI5HiggsE9constructIS1_JddddEEEvPT_DpOT0_, symObjAddr: 0x111E0, symBinAddr: 0x100014770, symSize: 0xC0 }
  - { offsetInCU: 0x28010, offset: 0x28010, size: 0x8, addend: 0x0, symName: __ZN9__gnu_cxx13new_allocatorISt23_Sp_counted_ptr_inplaceI5HiggsSaIS2_ELNS_12_Lock_policyE2EEE10deallocateEPS5_m, symObjAddr: 0x11188, symBinAddr: 0x100014718, symSize: 0x30 }
  - { offsetInCU: 0x28018, offset: 0x28018, size: 0x8, addend: 0x0, symName: __ZNSt14_Sp_ebo_helperILi0ESaI5HiggsELb1EEC2ERKS1_, symObjAddr: 0x111B8, symBinAddr: 0x100014748, symSize: 0x28 }
  - { offsetInCU: 0x28145, offset: 0x28145, size: 0x8, addend: 0x0, symName: __ZSt11__addressofISaISt23_Sp_counted_ptr_inplaceI5HiggsSaIS1_ELN9__gnu_cxx12_Lock_policyE2EEEEPT_RS7_, symObjAddr: 0x11174, symBinAddr: 0x100014704, symSize: 0x14 }
  - { offsetInCU: 0x2814D, offset: 0x2814D, size: 0x8, addend: 0x0, symName: __ZN9__gnu_cxx13new_allocatorISt23_Sp_counted_ptr_inplaceI5HiggsSaIS2_ELNS_12_Lock_policyE2EEE10deallocateEPS5_m, symObjAddr: 0x11188, symBinAddr: 0x100014718, symSize: 0x30 }
  - { offsetInCU: 0x280B0, offset: 0x280B0, size: 0x8, addend: 0x0, symName: __ZN9__gnu_cxx13new_allocatorISt23_Sp_counted_ptr_inplaceI5HiggsSaIS2_ELNS_12_Lock_policyE2EEE8allocateEmPKv, symObjAddr: 0x110FC, symBinAddr: 0x10001468C, symSize: 0x78 }
  - { offsetInCU: 0x280B8, offset: 0x280B8, size: 0x8, addend: 0x0, symName: __ZSt11__addressofISaISt23_Sp_counted_ptr_inplaceI5HiggsSaIS1_ELN9__gnu_cxx12_Lock_policyE2EEEEPT_RS7_, symObjAddr: 0x11174, symBinAddr: 0x100014704, symSize: 0x14 }
  - { offsetInCU: 0x28112, offset: 0x28112, size: 0x8, addend: 0x0, symName: __ZNK9__gnu_cxx13new_allocatorISt23_Sp_counted_ptr_inplaceI5HiggsSaIS2_ELNS_12_Lock_policyE2EEE11_M_max_sizeEv, symObjAddr: 0x110E8, symBinAddr: 0x100014678, symSize: 0x14 }
  - { offsetInCU: 0x2811A, offset: 0x2811A, size: 0x8, addend: 0x0, symName: __ZN9__gnu_cxx13new_allocatorISt23_Sp_counted_ptr_inplaceI5HiggsSaIS2_ELNS_12_Lock_policyE2EEE8allocateEmPKv, symObjAddr: 0x110FC, symBinAddr: 0x10001468C, symSize: 0x78 }
  - { offsetInCU: 0x28145, offset: 0x28145, size: 0x8, addend: 0x0, symName: __ZN9__gnu_cxx16__aligned_bufferI7W_BosonE7_M_addrEv, symObjAddr: 0x110D4, symBinAddr: 0x100014664, symSize: 0x14 }
  - { offsetInCU: 0x2814D, offset: 0x2814D, size: 0x8, addend: 0x0, symName: __ZNK9__gnu_cxx13new_allocatorISt23_Sp_counted_ptr_inplaceI5HiggsSaIS2_ELNS_12_Lock_policyE2EEE11_M_max_sizeEv, symObjAddr: 0x110E8, symBinAddr: 0x100014678, symSize: 0x14 }
  - { offsetInCU: 0x28178, offset: 0x28178, size: 0x8, addend: 0x0, symName: __ZN9__gnu_cxx13new_allocatorI7W_BosonE9constructIS1_JddddbEEEvPT_DpOT0_, symObjAddr: 0x11000, symBinAddr: 0x100014590, symSize: 0xD4 }
  - { offsetInCU: 0x28180, offset: 0x28180, size: 0x8, addend: 0x0, symName: __ZN9__gnu_cxx16__aligned_bufferI7W_BosonE7_M_addrEv, symObjAddr: 0x110D4, symBinAddr: 0x100014664, symSize: 0x14 }
  - { offsetInCU: 0x28299, offset: 0x28299, size: 0x8, addend: 0x0, symName: __ZNSt14_Sp_ebo_helperILi0ESaI7W_BosonELb1EEC2ERKS1_, symObjAddr: 0x10FD8, symBinAddr: 0x100014568, symSize: 0x28 }
  - { offsetInCU: 0x282A1, offset: 0x282A1, size: 0x8, addend: 0x0, symName: __ZN9__gnu_cxx13new_allocatorI7W_BosonE9constructIS1_JddddbEEEvPT_DpOT0_, symObjAddr: 0x11000, symBinAddr: 0x100014590, symSize: 0xD4 }
  - { offsetInCU: 0x2829F, offset: 0x2829F, size: 0x8, addend: 0x0, symName: __ZN9__gnu_cxx13new_allocatorISt23_Sp_counted_ptr_inplaceI7W_BosonSaIS2_ELNS_12_Lock_policyE2EEE10deallocateEPS5_m, symObjAddr: 0x10FA8, symBinAddr: 0x100014538, symSize: 0x30 }
  - { offsetInCU: 0x282A7, offset: 0x282A7, size: 0x8, addend: 0x0, symName: __ZNSt14_Sp_ebo_helperILi0ESaI7W_BosonELb1EEC2ERKS1_, symObjAddr: 0x10FD8, symBinAddr: 0x100014568, symSize: 0x28 }
  - { offsetInCU: 0x283DA, offset: 0x283DA, size: 0x8, addend: 0x0, symName: __ZSt11__addressofISaISt23_Sp_counted_ptr_inplaceI7W_BosonSaIS1_ELN9__gnu_cxx12_Lock_policyE2EEEEPT_RS7_, symObjAddr: 0x10F94, symBinAddr: 0x100014524, symSize: 0x14 }
  - { offsetInCU: 0x283E2, offset: 0x283E2, size: 0x8, addend: 0x0, symName: __ZN9__gnu_cxx13new_allocatorISt23_Sp_counted_ptr_inplaceI7W_BosonSaIS2_ELNS_12_Lock_policyE2EEE10deallocateEPS5_m, symObjAddr: 0x10FA8, symBinAddr: 0x100014538, symSize: 0x30 }
  - { offsetInCU: 0x2833F, offset: 0x2833F, size: 0x8, addend: 0x0, symName: __ZN9__gnu_cxx13new_allocatorISt23_Sp_counted_ptr_inplaceI7W_BosonSaIS2_ELNS_12_Lock_policyE2EEE8allocateEmPKv, symObjAddr: 0x10F1C, symBinAddr: 0x1000144AC, symSize: 0x78 }
  - { offsetInCU: 0x28347, offset: 0x28347, size: 0x8, addend: 0x0, symName: __ZSt11__addressofISaISt23_Sp_counted_ptr_inplaceI7W_BosonSaIS1_ELN9__gnu_cxx12_Lock_policyE2EEEEPT_RS7_, symObjAddr: 0x10F94, symBinAddr: 0x100014524, symSize: 0x14 }
  - { offsetInCU: 0x283A1, offset: 0x283A1, size: 0x8, addend: 0x0, symName: __ZNK9__gnu_cxx13new_allocatorISt23_Sp_counted_ptr_inplaceI7W_BosonSaIS2_ELNS_12_Lock_policyE2EEE11_M_max_sizeEv, symObjAddr: 0x10F08, symBinAddr: 0x100014498, symSize: 0x14 }
  - { offsetInCU: 0x283A9, offset: 0x283A9, size: 0x8, addend: 0x0, symName: __ZN9__gnu_cxx13new_allocatorISt23_Sp_counted_ptr_inplaceI7W_BosonSaIS2_ELNS_12_Lock_policyE2EEE8allocateEmPKv, symObjAddr: 0x10F1C, symBinAddr: 0x1000144AC, symSize: 0x78 }
  - { offsetInCU: 0x283D4, offset: 0x283D4, size: 0x8, addend: 0x0, symName: __ZN9__gnu_cxx16__aligned_bufferI7Z_BosonE7_M_addrEv, symObjAddr: 0x10EF4, symBinAddr: 0x100014484, symSize: 0x14 }
  - { offsetInCU: 0x283DC, offset: 0x283DC, size: 0x8, addend: 0x0, symName: __ZNK9__gnu_cxx13new_allocatorISt23_Sp_counted_ptr_inplaceI7W_BosonSaIS2_ELNS_12_Lock_policyE2EEE11_M_max_sizeEv, symObjAddr: 0x10F08, symBinAddr: 0x100014498, symSize: 0x14 }
  - { offsetInCU: 0x28407, offset: 0x28407, size: 0x8, addend: 0x0, symName: __ZN9__gnu_cxx13new_allocatorI7Z_BosonE9constructIS1_JddddEEEvPT_DpOT0_, symObjAddr: 0x10E34, symBinAddr: 0x1000143C4, symSize: 0xC0 }
  - { offsetInCU: 0x2840F, offset: 0x2840F, size: 0x8, addend: 0x0, symName: __ZN9__gnu_cxx16__aligned_bufferI7Z_BosonE7_M_addrEv, symObjAddr: 0x10EF4, symBinAddr: 0x100014484, symSize: 0x14 }
  - { offsetInCU: 0x28513, offset: 0x28513, size: 0x8, addend: 0x0, symName: __ZNSt14_Sp_ebo_helperILi0ESaI7Z_BosonELb1EEC2ERKS1_, symObjAddr: 0x10E0C, symBinAddr: 0x10001439C, symSize: 0x28 }
  - { offsetInCU: 0x2851B, offset: 0x2851B, size: 0x8, addend: 0x0, symName: __ZN9__gnu_cxx13new_allocatorI7Z_BosonE9constructIS1_JddddEEEvPT_DpOT0_, symObjAddr: 0x10E34, symBinAddr: 0x1000143C4, symSize: 0xC0 }
  - { offsetInCU: 0x28519, offset: 0x28519, size: 0x8, addend: 0x0, symName: __ZN9__gnu_cxx13new_allocatorISt23_Sp_counted_ptr_inplaceI7Z_BosonSaIS2_ELNS_12_Lock_policyE2EEE10deallocateEPS5_m, symObjAddr: 0x10DDC, symBinAddr: 0x10001436C, symSize: 0x30 }
  - { offsetInCU: 0x28521, offset: 0x28521, size: 0x8, addend: 0x0, symName: __ZNSt14_Sp_ebo_helperILi0ESaI7Z_BosonELb1EEC2ERKS1_, symObjAddr: 0x10E0C, symBinAddr: 0x10001439C, symSize: 0x28 }
  - { offsetInCU: 0x28654, offset: 0x28654, size: 0x8, addend: 0x0, symName: __ZSt11__addressofISaISt23_Sp_counted_ptr_inplaceI7Z_BosonSaIS1_ELN9__gnu_cxx12_Lock_policyE2EEEEPT_RS7_, symObjAddr: 0x10DC8, symBinAddr: 0x100014358, symSize: 0x14 }
  - { offsetInCU: 0x2865C, offset: 0x2865C, size: 0x8, addend: 0x0, symName: __ZN9__gnu_cxx13new_allocatorISt23_Sp_counted_ptr_inplaceI7Z_BosonSaIS2_ELNS_12_Lock_policyE2EEE10deallocateEPS5_m, symObjAddr: 0x10DDC, symBinAddr: 0x10001436C, symSize: 0x30 }
  - { offsetInCU: 0x285B9, offset: 0x285B9, size: 0x8, addend: 0x0, symName: __ZN9__gnu_cxx13new_allocatorISt23_Sp_counted_ptr_inplaceI7Z_BosonSaIS2_ELNS_12_Lock_policyE2EEE8allocateEmPKv, symObjAddr: 0x10D50, symBinAddr: 0x1000142E0, symSize: 0x78 }
  - { offsetInCU: 0x285C1, offset: 0x285C1, size: 0x8, addend: 0x0, symName: __ZSt11__addressofISaISt23_Sp_counted_ptr_inplaceI7Z_BosonSaIS1_ELN9__gnu_cxx12_Lock_policyE2EEEEPT_RS7_, symObjAddr: 0x10DC8, symBinAddr: 0x100014358, symSize: 0x14 }
  - { offsetInCU: 0x2861B, offset: 0x2861B, size: 0x8, addend: 0x0, symName: __ZNK9__gnu_cxx13new_allocatorISt23_Sp_counted_ptr_inplaceI7Z_BosonSaIS2_ELNS_12_Lock_policyE2EEE11_M_max_sizeEv, symObjAddr: 0x10D3C, symBinAddr: 0x1000142CC, symSize: 0x14 }
  - { offsetInCU: 0x28623, offset: 0x28623, size: 0x8, addend: 0x0, symName: __ZN9__gnu_cxx13new_allocatorISt23_Sp_counted_ptr_inplaceI7Z_BosonSaIS2_ELNS_12_Lock_policyE2EEE8allocateEmPKv, symObjAddr: 0x10D50, symBinAddr: 0x1000142E0, symSize: 0x78 }
  - { offsetInCU: 0x2864E, offset: 0x2864E, size: 0x8, addend: 0x0, symName: __ZN9__gnu_cxx16__aligned_bufferI6PhotonE7_M_addrEv, symObjAddr: 0x10D28, symBinAddr: 0x1000142B8, symSize: 0x14 }
  - { offsetInCU: 0x28656, offset: 0x28656, size: 0x8, addend: 0x0, symName: __ZNK9__gnu_cxx13new_allocatorISt23_Sp_counted_ptr_inplaceI7Z_BosonSaIS2_ELNS_12_Lock_policyE2EEE11_M_max_sizeEv, symObjAddr: 0x10D3C, symBinAddr: 0x1000142CC, symSize: 0x14 }
  - { offsetInCU: 0x28681, offset: 0x28681, size: 0x8, addend: 0x0, symName: __ZN9__gnu_cxx13new_allocatorI6PhotonE9constructIS1_JiiiiEEEvPT_DpOT0_, symObjAddr: 0x10C58, symBinAddr: 0x1000141E8, symSize: 0xD0 }
  - { offsetInCU: 0x28689, offset: 0x28689, size: 0x8, addend: 0x0, symName: __ZN9__gnu_cxx16__aligned_bufferI6PhotonE7_M_addrEv, symObjAddr: 0x10D28, symBinAddr: 0x1000142B8, symSize: 0x14 }
  - { offsetInCU: 0x2878C, offset: 0x2878C, size: 0x8, addend: 0x0, symName: __ZNSt14_Sp_ebo_helperILi0ESaI6PhotonELb1EEC2ERKS1_, symObjAddr: 0x10C30, symBinAddr: 0x1000141C0, symSize: 0x28 }
  - { offsetInCU: 0x28794, offset: 0x28794, size: 0x8, addend: 0x0, symName: __ZN9__gnu_cxx13new_allocatorI6PhotonE9constructIS1_JiiiiEEEvPT_DpOT0_, symObjAddr: 0x10C58, symBinAddr: 0x1000141E8, symSize: 0xD0 }
  - { offsetInCU: 0x28793, offset: 0x28793, size: 0x8, addend: 0x0, symName: __ZN9__gnu_cxx13new_allocatorISt23_Sp_counted_ptr_inplaceI6PhotonSaIS2_ELNS_12_Lock_policyE2EEE10deallocateEPS5_m, symObjAddr: 0x10C00, symBinAddr: 0x100014190, symSize: 0x30 }
  - { offsetInCU: 0x2879B, offset: 0x2879B, size: 0x8, addend: 0x0, symName: __ZNSt14_Sp_ebo_helperILi0ESaI6PhotonELb1EEC2ERKS1_, symObjAddr: 0x10C30, symBinAddr: 0x1000141C0, symSize: 0x28 }
  - { offsetInCU: 0x288CB, offset: 0x288CB, size: 0x8, addend: 0x0, symName: __ZSt11__addressofISaISt23_Sp_counted_ptr_inplaceI6PhotonSaIS1_ELN9__gnu_cxx12_Lock_policyE2EEEEPT_RS7_, symObjAddr: 0x10BEC, symBinAddr: 0x10001417C, symSize: 0x14 }
  - { offsetInCU: 0x288D3, offset: 0x288D3, size: 0x8, addend: 0x0, symName: __ZN9__gnu_cxx13new_allocatorISt23_Sp_counted_ptr_inplaceI6PhotonSaIS2_ELNS_12_Lock_policyE2EEE10deallocateEPS5_m, symObjAddr: 0x10C00, symBinAddr: 0x100014190, symSize: 0x30 }
  - { offsetInCU: 0x28833, offset: 0x28833, size: 0x8, addend: 0x0, symName: __ZN9__gnu_cxx13new_allocatorISt23_Sp_counted_ptr_inplaceI6PhotonSaIS2_ELNS_12_Lock_policyE2EEE8allocateEmPKv, symObjAddr: 0x10B74, symBinAddr: 0x100014104, symSize: 0x78 }
  - { offsetInCU: 0x2883B, offset: 0x2883B, size: 0x8, addend: 0x0, symName: __ZSt11__addressofISaISt23_Sp_counted_ptr_inplaceI6PhotonSaIS1_ELN9__gnu_cxx12_Lock_policyE2EEEEPT_RS7_, symObjAddr: 0x10BEC, symBinAddr: 0x10001417C, symSize: 0x14 }
  - { offsetInCU: 0x28895, offset: 0x28895, size: 0x8, addend: 0x0, symName: __ZNK9__gnu_cxx13new_allocatorISt23_Sp_counted_ptr_inplaceI6PhotonSaIS2_ELNS_12_Lock_policyE2EEE11_M_max_sizeEv, symObjAddr: 0x10B60, symBinAddr: 0x1000140F0, symSize: 0x14 }
  - { offsetInCU: 0x2889D, offset: 0x2889D, size: 0x8, addend: 0x0, symName: __ZN9__gnu_cxx13new_allocatorISt23_Sp_counted_ptr_inplaceI6PhotonSaIS2_ELNS_12_Lock_policyE2EEE8allocateEmPKv, symObjAddr: 0x10B74, symBinAddr: 0x100014104, symSize: 0x78 }
  - { offsetInCU: 0x288C8, offset: 0x288C8, size: 0x8, addend: 0x0, symName: __ZN9__gnu_cxx16__aligned_bufferI5GluonE7_M_addrEv, symObjAddr: 0x10B4C, symBinAddr: 0x1000140DC, symSize: 0x14 }
  - { offsetInCU: 0x288D0, offset: 0x288D0, size: 0x8, addend: 0x0, symName: __ZNK9__gnu_cxx13new_allocatorISt23_Sp_counted_ptr_inplaceI6PhotonSaIS2_ELNS_12_Lock_policyE2EEE11_M_max_sizeEv, symObjAddr: 0x10B60, symBinAddr: 0x1000140F0, symSize: 0x14 }
  - { offsetInCU: 0x28905, offset: 0x28905, size: 0x8, addend: 0x0, symName: __ZN9__gnu_cxx13new_allocatorI5GluonE9constructIS1_Jddddb11Colour_listS4_EEEvPT_DpOT0_, symObjAddr: 0x10A4C, symBinAddr: 0x100013FDC, symSize: 0x100 }
  - { offsetInCU: 0x2890D, offset: 0x2890D, size: 0x8, addend: 0x0, symName: __ZN9__gnu_cxx16__aligned_bufferI5GluonE7_M_addrEv, symObjAddr: 0x10B4C, symBinAddr: 0x1000140DC, symSize: 0x14 }
  - { offsetInCU: 0x28A4E, offset: 0x28A4E, size: 0x8, addend: 0x0, symName: __ZNSt14_Sp_ebo_helperILi0ESaI5GluonELb1EEC2ERKS1_, symObjAddr: 0x10A24, symBinAddr: 0x100013FB4, symSize: 0x28 }
  - { offsetInCU: 0x28A56, offset: 0x28A56, size: 0x8, addend: 0x0, symName: __ZN9__gnu_cxx13new_allocatorI5GluonE9constructIS1_Jddddb11Colour_listS4_EEEvPT_DpOT0_, symObjAddr: 0x10A4C, symBinAddr: 0x100013FDC, symSize: 0x100 }
  - { offsetInCU: 0x28A56, offset: 0x28A56, size: 0x8, addend: 0x0, symName: __ZN9__gnu_cxx13new_allocatorISt23_Sp_counted_ptr_inplaceI5GluonSaIS2_ELNS_12_Lock_policyE2EEE10deallocateEPS5_m, symObjAddr: 0x109E8, symBinAddr: 0x100013F78, symSize: 0x3C }
  - { offsetInCU: 0x28A5E, offset: 0x28A5E, size: 0x8, addend: 0x0, symName: __ZNSt14_Sp_ebo_helperILi0ESaI5GluonELb1EEC2ERKS1_, symObjAddr: 0x10A24, symBinAddr: 0x100013FB4, symSize: 0x28 }
  - { offsetInCU: 0x28B8B, offset: 0x28B8B, size: 0x8, addend: 0x0, symName: __ZSt11__addressofISaISt23_Sp_counted_ptr_inplaceI5GluonSaIS1_ELN9__gnu_cxx12_Lock_policyE2EEEEPT_RS7_, symObjAddr: 0x109D4, symBinAddr: 0x100013F64, symSize: 0x14 }
  - { offsetInCU: 0x28B93, offset: 0x28B93, size: 0x8, addend: 0x0, symName: __ZN9__gnu_cxx13new_allocatorISt23_Sp_counted_ptr_inplaceI5GluonSaIS2_ELNS_12_Lock_policyE2EEE10deallocateEPS5_m, symObjAddr: 0x109E8, symBinAddr: 0x100013F78, symSize: 0x3C }
  - { offsetInCU: 0x28AF6, offset: 0x28AF6, size: 0x8, addend: 0x0, symName: __ZN9__gnu_cxx13new_allocatorISt23_Sp_counted_ptr_inplaceI5GluonSaIS2_ELNS_12_Lock_policyE2EEE8allocateEmPKv, symObjAddr: 0x1094C, symBinAddr: 0x100013EDC, symSize: 0x88 }
  - { offsetInCU: 0x28AFE, offset: 0x28AFE, size: 0x8, addend: 0x0, symName: __ZSt11__addressofISaISt23_Sp_counted_ptr_inplaceI5GluonSaIS1_ELN9__gnu_cxx12_Lock_policyE2EEEEPT_RS7_, symObjAddr: 0x109D4, symBinAddr: 0x100013F64, symSize: 0x14 }
  - { offsetInCU: 0x28B58, offset: 0x28B58, size: 0x8, addend: 0x0, symName: __ZNK9__gnu_cxx13new_allocatorISt23_Sp_counted_ptr_inplaceI5GluonSaIS2_ELNS_12_Lock_policyE2EEE11_M_max_sizeEv, symObjAddr: 0x10934, symBinAddr: 0x100013EC4, symSize: 0x18 }
  - { offsetInCU: 0x28B60, offset: 0x28B60, size: 0x8, addend: 0x0, symName: __ZN9__gnu_cxx13new_allocatorISt23_Sp_counted_ptr_inplaceI5GluonSaIS2_ELNS_12_Lock_policyE2EEE8allocateEmPKv, symObjAddr: 0x1094C, symBinAddr: 0x100013EDC, symSize: 0x88 }
  - { offsetInCU: 0x28B91, offset: 0x28B91, size: 0x8, addend: 0x0, symName: __ZN9__gnu_cxx13new_allocatorI8NeutrinoE9constructIS1_Jddddb14Lepton_flavourbEEEvPT_DpOT0_, symObjAddr: 0x10834, symBinAddr: 0x100013DC4, symSize: 0x100 }
  - { offsetInCU: 0x28B99, offset: 0x28B99, size: 0x8, addend: 0x0, symName: __ZNK9__gnu_cxx13new_allocatorISt23_Sp_counted_ptr_inplaceI5GluonSaIS2_ELNS_12_Lock_policyE2EEE11_M_max_sizeEv, symObjAddr: 0x10934, symBinAddr: 0x100013EC4, symSize: 0x18 }
  - { offsetInCU: 0x28C7E, offset: 0x28C7E, size: 0x8, addend: 0x0, symName: __ZN9__gnu_cxx13new_allocatorI3TauE9constructIS1_JdiiibEEEvPT_DpOT0_, symObjAddr: 0x10754, symBinAddr: 0x100013CE4, symSize: 0xE0 }
  - { offsetInCU: 0x28C86, offset: 0x28C86, size: 0x8, addend: 0x0, symName: __ZN9__gnu_cxx13new_allocatorI8NeutrinoE9constructIS1_Jddddb14Lepton_flavourbEEEvPT_DpOT0_, symObjAddr: 0x10834, symBinAddr: 0x100013DC4, symSize: 0x100 }
  - { offsetInCU: 0x28D4B, offset: 0x28D4B, size: 0x8, addend: 0x0, symName: __ZN9__gnu_cxx13new_allocatorI5QuarkE9constructIS1_Jdiiib13Quark_flavour11Colour_listEEEvPT_DpOT0_, symObjAddr: 0x1063C, symBinAddr: 0x100013BCC, symSize: 0x118 }
  - { offsetInCU: 0x28D53, offset: 0x28D53, size: 0x8, addend: 0x0, symName: __ZN9__gnu_cxx13new_allocatorI3TauE9constructIS1_JdiiibEEEvPT_DpOT0_, symObjAddr: 0x10754, symBinAddr: 0x100013CE4, symSize: 0xE0 }
  - { offsetInCU: 0x28E3C, offset: 0x28E3C, size: 0x8, addend: 0x0, symName: __ZN9__gnu_cxx16__aligned_bufferI4MuonE7_M_addrEv, symObjAddr: 0x10628, symBinAddr: 0x100013BB8, symSize: 0x14 }
  - { offsetInCU: 0x28E44, offset: 0x28E44, size: 0x8, addend: 0x0, symName: __ZN9__gnu_cxx13new_allocatorI5QuarkE9constructIS1_Jdiiib13Quark_flavour11Colour_listEEEvPT_DpOT0_, symObjAddr: 0x1063C, symBinAddr: 0x100013BCC, symSize: 0x118 }
  - { offsetInCU: 0x28E6F, offset: 0x28E6F, size: 0x8, addend: 0x0, symName: __ZN9__gnu_cxx13new_allocatorI4MuonE9constructIS1_JddddbbEEEvPT_DpOT0_, symObjAddr: 0x10540, symBinAddr: 0x100013AD0, symSize: 0xE8 }
  - { offsetInCU: 0x28E77, offset: 0x28E77, size: 0x8, addend: 0x0, symName: __ZN9__gnu_cxx16__aligned_bufferI4MuonE7_M_addrEv, symObjAddr: 0x10628, symBinAddr: 0x100013BB8, symSize: 0x14 }
  - { offsetInCU: 0x28FA2, offset: 0x28FA2, size: 0x8, addend: 0x0, symName: __ZNSt14_Sp_ebo_helperILi0ESaI4MuonELb1EEC2ERKS1_, symObjAddr: 0x10518, symBinAddr: 0x100013AA8, symSize: 0x28 }
  - { offsetInCU: 0x28FAA, offset: 0x28FAA, size: 0x8, addend: 0x0, symName: __ZN9__gnu_cxx13new_allocatorI4MuonE9constructIS1_JddddbbEEEvPT_DpOT0_, symObjAddr: 0x10540, symBinAddr: 0x100013AD0, symSize: 0xE8 }
  - { offsetInCU: 0x28FAB, offset: 0x28FAB, size: 0x8, addend: 0x0, symName: __ZN9__gnu_cxx13new_allocatorISt23_Sp_counted_ptr_inplaceI4MuonSaIS2_ELNS_12_Lock_policyE2EEE10deallocateEPS5_m, symObjAddr: 0x104DC, symBinAddr: 0x100013A6C, symSize: 0x3C }
  - { offsetInCU: 0x28FB3, offset: 0x28FB3, size: 0x8, addend: 0x0, symName: __ZNSt14_Sp_ebo_helperILi0ESaI4MuonELb1EEC2ERKS1_, symObjAddr: 0x10518, symBinAddr: 0x100013AA8, symSize: 0x28 }
  - { offsetInCU: 0x290DD, offset: 0x290DD, size: 0x8, addend: 0x0, symName: __ZSt11__addressofISaISt23_Sp_counted_ptr_inplaceI4MuonSaIS1_ELN9__gnu_cxx12_Lock_policyE2EEEEPT_RS7_, symObjAddr: 0x104C8, symBinAddr: 0x100013A58, symSize: 0x14 }
  - { offsetInCU: 0x290E5, offset: 0x290E5, size: 0x8, addend: 0x0, symName: __ZN9__gnu_cxx13new_allocatorISt23_Sp_counted_ptr_inplaceI4MuonSaIS2_ELNS_12_Lock_policyE2EEE10deallocateEPS5_m, symObjAddr: 0x104DC, symBinAddr: 0x100013A6C, symSize: 0x3C }
  - { offsetInCU: 0x2904B, offset: 0x2904B, size: 0x8, addend: 0x0, symName: __ZN9__gnu_cxx13new_allocatorISt23_Sp_counted_ptr_inplaceI4MuonSaIS2_ELNS_12_Lock_policyE2EEE8allocateEmPKv, symObjAddr: 0x10440, symBinAddr: 0x1000139D0, symSize: 0x88 }
  - { offsetInCU: 0x29053, offset: 0x29053, size: 0x8, addend: 0x0, symName: __ZSt11__addressofISaISt23_Sp_counted_ptr_inplaceI4MuonSaIS1_ELN9__gnu_cxx12_Lock_policyE2EEEEPT_RS7_, symObjAddr: 0x104C8, symBinAddr: 0x100013A58, symSize: 0x14 }
  - { offsetInCU: 0x290AD, offset: 0x290AD, size: 0x8, addend: 0x0, symName: __ZNK9__gnu_cxx13new_allocatorISt23_Sp_counted_ptr_inplaceI4MuonSaIS2_ELNS_12_Lock_policyE2EEE11_M_max_sizeEv, symObjAddr: 0x10428, symBinAddr: 0x1000139B8, symSize: 0x18 }
  - { offsetInCU: 0x290B5, offset: 0x290B5, size: 0x8, addend: 0x0, symName: __ZN9__gnu_cxx13new_allocatorISt23_Sp_counted_ptr_inplaceI4MuonSaIS2_ELNS_12_Lock_policyE2EEE8allocateEmPKv, symObjAddr: 0x10440, symBinAddr: 0x1000139D0, symSize: 0x88 }
  - { offsetInCU: 0x290DC, offset: 0x290DC, size: 0x8, addend: 0x0, symName: __ZN9__gnu_cxx13new_allocatorI8ElectronE9constructIS1_JddddbEEEvPT_DpOT0_, symObjAddr: 0x10354, symBinAddr: 0x1000138E4, symSize: 0xD4 }
  - { offsetInCU: 0x290E4, offset: 0x290E4, size: 0x8, addend: 0x0, symName: __ZNK9__gnu_cxx13new_allocatorISt23_Sp_counted_ptr_inplaceI4MuonSaIS2_ELNS_12_Lock_policyE2EEE11_M_max_sizeEv, symObjAddr: 0x10428, symBinAddr: 0x1000139B8, symSize: 0x18 }
  - { offsetInCU: 0x2919F, offset: 0x2919F, size: 0x8, addend: 0x0, symName: __ZN9__gnu_cxx13new_allocatorI5QuarkE9constructIS1_Jddddb13Quark_flavour11Colour_listEEEvPT_DpOT0_, symObjAddr: 0x10248, symBinAddr: 0x1000137D8, symSize: 0x10C }
  - { offsetInCU: 0x291A7, offset: 0x291A7, size: 0x8, addend: 0x0, symName: __ZN9__gnu_cxx13new_allocatorI8ElectronE9constructIS1_JddddbEEEvPT_DpOT0_, symObjAddr: 0x10354, symBinAddr: 0x1000138E4, symSize: 0xD4 }
  - { offsetInCU: 0x29290, offset: 0x29290, size: 0x8, addend: 0x0, symName: __ZN9__gnu_cxx16__aligned_bufferI8NeutrinoE7_M_addrEv, symObjAddr: 0x10234, symBinAddr: 0x1000137C4, symSize: 0x14 }
  - { offsetInCU: 0x29298, offset: 0x29298, size: 0x8, addend: 0x0, symName: __ZN9__gnu_cxx13new_allocatorI5QuarkE9constructIS1_Jddddb13Quark_flavour11Colour_listEEEvPT_DpOT0_, symObjAddr: 0x10248, symBinAddr: 0x1000137D8, symSize: 0x10C }
  - { offsetInCU: 0x292C3, offset: 0x292C3, size: 0x8, addend: 0x0, symName: __ZN9__gnu_cxx13new_allocatorI8NeutrinoE9constructIS1_Jdiiib14Lepton_flavourbEEEvPT_DpOT0_, symObjAddr: 0x10128, symBinAddr: 0x1000136B8, symSize: 0x10C }
  - { offsetInCU: 0x292CB, offset: 0x292CB, size: 0x8, addend: 0x0, symName: __ZN9__gnu_cxx16__aligned_bufferI8NeutrinoE7_M_addrEv, symObjAddr: 0x10234, symBinAddr: 0x1000137C4, symSize: 0x14 }
  - { offsetInCU: 0x2940F, offset: 0x2940F, size: 0x8, addend: 0x0, symName: __ZNSt14_Sp_ebo_helperILi0ESaI8NeutrinoELb1EEC2ERKS1_, symObjAddr: 0x10100, symBinAddr: 0x100013690, symSize: 0x28 }
  - { offsetInCU: 0x29417, offset: 0x29417, size: 0x8, addend: 0x0, symName: __ZN9__gnu_cxx13new_allocatorI8NeutrinoE9constructIS1_Jdiiib14Lepton_flavourbEEEvPT_DpOT0_, symObjAddr: 0x10128, symBinAddr: 0x1000136B8, symSize: 0x10C }
  - { offsetInCU: 0x29414, offset: 0x29414, size: 0x8, addend: 0x0, symName: __ZN9__gnu_cxx13new_allocatorISt23_Sp_counted_ptr_inplaceI8NeutrinoSaIS2_ELNS_12_Lock_policyE2EEE10deallocateEPS5_m, symObjAddr: 0x100C4, symBinAddr: 0x100013654, symSize: 0x3C }
  - { offsetInCU: 0x2941C, offset: 0x2941C, size: 0x8, addend: 0x0, symName: __ZNSt14_Sp_ebo_helperILi0ESaI8NeutrinoELb1EEC2ERKS1_, symObjAddr: 0x10100, symBinAddr: 0x100013690, symSize: 0x28 }
  - { offsetInCU: 0x29552, offset: 0x29552, size: 0x8, addend: 0x0, symName: __ZSt11__addressofISaISt23_Sp_counted_ptr_inplaceI8NeutrinoSaIS1_ELN9__gnu_cxx12_Lock_policyE2EEEEPT_RS7_, symObjAddr: 0x100B0, symBinAddr: 0x100013640, symSize: 0x14 }
  - { offsetInCU: 0x2955A, offset: 0x2955A, size: 0x8, addend: 0x0, symName: __ZN9__gnu_cxx13new_allocatorISt23_Sp_counted_ptr_inplaceI8NeutrinoSaIS2_ELNS_12_Lock_policyE2EEE10deallocateEPS5_m, symObjAddr: 0x100C4, symBinAddr: 0x100013654, symSize: 0x3C }
  - { offsetInCU: 0x294B4, offset: 0x294B4, size: 0x8, addend: 0x0, symName: __ZN9__gnu_cxx13new_allocatorISt23_Sp_counted_ptr_inplaceI8NeutrinoSaIS2_ELNS_12_Lock_policyE2EEE8allocateEmPKv, symObjAddr: 0x10028, symBinAddr: 0x1000135B8, symSize: 0x88 }
  - { offsetInCU: 0x294BC, offset: 0x294BC, size: 0x8, addend: 0x0, symName: __ZSt11__addressofISaISt23_Sp_counted_ptr_inplaceI8NeutrinoSaIS1_ELN9__gnu_cxx12_Lock_policyE2EEEEPT_RS7_, symObjAddr: 0x100B0, symBinAddr: 0x100013640, symSize: 0x14 }
  - { offsetInCU: 0x29516, offset: 0x29516, size: 0x8, addend: 0x0, symName: __ZNK9__gnu_cxx13new_allocatorISt23_Sp_counted_ptr_inplaceI8NeutrinoSaIS2_ELNS_12_Lock_policyE2EEE11_M_max_sizeEv, symObjAddr: 0x10010, symBinAddr: 0x1000135A0, symSize: 0x18 }
  - { offsetInCU: 0x2951E, offset: 0x2951E, size: 0x8, addend: 0x0, symName: __ZN9__gnu_cxx13new_allocatorISt23_Sp_counted_ptr_inplaceI8NeutrinoSaIS2_ELNS_12_Lock_policyE2EEE8allocateEmPKv, symObjAddr: 0x10028, symBinAddr: 0x1000135B8, symSize: 0x88 }
  - { offsetInCU: 0x29549, offset: 0x29549, size: 0x8, addend: 0x0, symName: __ZN9__gnu_cxx16__aligned_bufferI8ElectronE7_M_addrEv, symObjAddr: 0xFFFC, symBinAddr: 0x10001358C, symSize: 0x14 }
  - { offsetInCU: 0x29551, offset: 0x29551, size: 0x8, addend: 0x0, symName: __ZNK9__gnu_cxx13new_allocatorISt23_Sp_counted_ptr_inplaceI8NeutrinoSaIS2_ELNS_12_Lock_policyE2EEE11_M_max_sizeEv, symObjAddr: 0x10010, symBinAddr: 0x1000135A0, symSize: 0x18 }
  - { offsetInCU: 0x2957C, offset: 0x2957C, size: 0x8, addend: 0x0, symName: __ZN9__gnu_cxx13new_allocatorI8ElectronE9constructIS1_JdiiibEEEvPT_DpOT0_, symObjAddr: 0xFF1C, symBinAddr: 0x1000134AC, symSize: 0xE0 }
  - { offsetInCU: 0x29584, offset: 0x29584, size: 0x8, addend: 0x0, symName: __ZN9__gnu_cxx16__aligned_bufferI8ElectronE7_M_addrEv, symObjAddr: 0xFFFC, symBinAddr: 0x10001358C, symSize: 0x14 }
  - { offsetInCU: 0x2969E, offset: 0x2969E, size: 0x8, addend: 0x0, symName: __ZNSt14_Sp_ebo_helperILi0ESaI8ElectronELb1EEC2ERKS1_, symObjAddr: 0xFEF4, symBinAddr: 0x100013484, symSize: 0x28 }
  - { offsetInCU: 0x296A6, offset: 0x296A6, size: 0x8, addend: 0x0, symName: __ZN9__gnu_cxx13new_allocatorI8ElectronE9constructIS1_JdiiibEEEvPT_DpOT0_, symObjAddr: 0xFF1C, symBinAddr: 0x1000134AC, symSize: 0xE0 }
  - { offsetInCU: 0x296A3, offset: 0x296A3, size: 0x8, addend: 0x0, symName: __ZN9__gnu_cxx13new_allocatorISt23_Sp_counted_ptr_inplaceI8ElectronSaIS2_ELNS_12_Lock_policyE2EEE10deallocateEPS5_m, symObjAddr: 0xFEB0, symBinAddr: 0x100013440, symSize: 0x44 }
  - { offsetInCU: 0x296AB, offset: 0x296AB, size: 0x8, addend: 0x0, symName: __ZNSt14_Sp_ebo_helperILi0ESaI8ElectronELb1EEC2ERKS1_, symObjAddr: 0xFEF4, symBinAddr: 0x100013484, symSize: 0x28 }
  - { offsetInCU: 0x297E1, offset: 0x297E1, size: 0x8, addend: 0x0, symName: __ZSt11__addressofISaISt23_Sp_counted_ptr_inplaceI8ElectronSaIS1_ELN9__gnu_cxx12_Lock_policyE2EEEEPT_RS7_, symObjAddr: 0xFE9C, symBinAddr: 0x10001342C, symSize: 0x14 }
  - { offsetInCU: 0x297E9, offset: 0x297E9, size: 0x8, addend: 0x0, symName: __ZN9__gnu_cxx13new_allocatorISt23_Sp_counted_ptr_inplaceI8ElectronSaIS2_ELNS_12_Lock_policyE2EEE10deallocateEPS5_m, symObjAddr: 0xFEB0, symBinAddr: 0x100013440, symSize: 0x44 }
  - { offsetInCU: 0x29743, offset: 0x29743, size: 0x8, addend: 0x0, symName: __ZN9__gnu_cxx13new_allocatorISt23_Sp_counted_ptr_inplaceI8ElectronSaIS2_ELNS_12_Lock_policyE2EEE8allocateEmPKv, symObjAddr: 0xFE04, symBinAddr: 0x100013394, symSize: 0x98 }
  - { offsetInCU: 0x2974B, offset: 0x2974B, size: 0x8, addend: 0x0, symName: __ZSt11__addressofISaISt23_Sp_counted_ptr_inplaceI8ElectronSaIS1_ELN9__gnu_cxx12_Lock_policyE2EEEEPT_RS7_, symObjAddr: 0xFE9C, symBinAddr: 0x10001342C, symSize: 0x14 }
  - { offsetInCU: 0x297A5, offset: 0x297A5, size: 0x8, addend: 0x0, symName: __ZNK9__gnu_cxx13new_allocatorISt23_Sp_counted_ptr_inplaceI8ElectronSaIS2_ELNS_12_Lock_policyE2EEE11_M_max_sizeEv, symObjAddr: 0xFDE4, symBinAddr: 0x100013374, symSize: 0x20 }
  - { offsetInCU: 0x297AD, offset: 0x297AD, size: 0x8, addend: 0x0, symName: __ZN9__gnu_cxx13new_allocatorISt23_Sp_counted_ptr_inplaceI8ElectronSaIS2_ELNS_12_Lock_policyE2EEE8allocateEmPKv, symObjAddr: 0xFE04, symBinAddr: 0x100013394, symSize: 0x98 }
  - { offsetInCU: 0x297D8, offset: 0x297D8, size: 0x8, addend: 0x0, symName: __ZN9__gnu_cxx16__aligned_bufferI3TauE7_M_addrEv, symObjAddr: 0xFDD0, symBinAddr: 0x100013360, symSize: 0x14 }
  - { offsetInCU: 0x297E0, offset: 0x297E0, size: 0x8, addend: 0x0, symName: __ZNK9__gnu_cxx13new_allocatorISt23_Sp_counted_ptr_inplaceI8ElectronSaIS2_ELNS_12_Lock_policyE2EEE11_M_max_sizeEv, symObjAddr: 0xFDE4, symBinAddr: 0x100013374, symSize: 0x20 }
  - { offsetInCU: 0x2980B, offset: 0x2980B, size: 0x8, addend: 0x0, symName: __ZN9__gnu_cxx13new_allocatorI3TauE9constructIS1_JddddbEEEvPT_DpOT0_, symObjAddr: 0xFCFC, symBinAddr: 0x10001328C, symSize: 0xD4 }
  - { offsetInCU: 0x29813, offset: 0x29813, size: 0x8, addend: 0x0, symName: __ZN9__gnu_cxx16__aligned_bufferI3TauE7_M_addrEv, symObjAddr: 0xFDD0, symBinAddr: 0x100013360, symSize: 0x14 }
  - { offsetInCU: 0x29928, offset: 0x29928, size: 0x8, addend: 0x0, symName: __ZNSt14_Sp_ebo_helperILi0ESaI3TauELb1EEC2ERKS1_, symObjAddr: 0xFCD4, symBinAddr: 0x100013264, symSize: 0x28 }
  - { offsetInCU: 0x29930, offset: 0x29930, size: 0x8, addend: 0x0, symName: __ZN9__gnu_cxx13new_allocatorI3TauE9constructIS1_JddddbEEEvPT_DpOT0_, symObjAddr: 0xFCFC, symBinAddr: 0x10001328C, symSize: 0xD4 }
  - { offsetInCU: 0x29932, offset: 0x29932, size: 0x8, addend: 0x0, symName: __ZN9__gnu_cxx13new_allocatorISt23_Sp_counted_ptr_inplaceI3TauSaIS2_ELNS_12_Lock_policyE2EEE10deallocateEPS5_m, symObjAddr: 0xFCA4, symBinAddr: 0x100013234, symSize: 0x30 }
  - { offsetInCU: 0x2993A, offset: 0x2993A, size: 0x8, addend: 0x0, symName: __ZNSt14_Sp_ebo_helperILi0ESaI3TauELb1EEC2ERKS1_, symObjAddr: 0xFCD4, symBinAddr: 0x100013264, symSize: 0x28 }
  - { offsetInCU: 0x29A61, offset: 0x29A61, size: 0x8, addend: 0x0, symName: __ZSt11__addressofISaISt23_Sp_counted_ptr_inplaceI3TauSaIS1_ELN9__gnu_cxx12_Lock_policyE2EEEEPT_RS7_, symObjAddr: 0xFC90, symBinAddr: 0x100013220, symSize: 0x14 }
  - { offsetInCU: 0x29A69, offset: 0x29A69, size: 0x8, addend: 0x0, symName: __ZN9__gnu_cxx13new_allocatorISt23_Sp_counted_ptr_inplaceI3TauSaIS2_ELNS_12_Lock_policyE2EEE10deallocateEPS5_m, symObjAddr: 0xFCA4, symBinAddr: 0x100013234, symSize: 0x30 }
  - { offsetInCU: 0x299D2, offset: 0x299D2, size: 0x8, addend: 0x0, symName: __ZN9__gnu_cxx13new_allocatorISt23_Sp_counted_ptr_inplaceI3TauSaIS2_ELNS_12_Lock_policyE2EEE8allocateEmPKv, symObjAddr: 0xFC18, symBinAddr: 0x1000131A8, symSize: 0x78 }
  - { offsetInCU: 0x299DA, offset: 0x299DA, size: 0x8, addend: 0x0, symName: __ZSt11__addressofISaISt23_Sp_counted_ptr_inplaceI3TauSaIS1_ELN9__gnu_cxx12_Lock_policyE2EEEEPT_RS7_, symObjAddr: 0xFC90, symBinAddr: 0x100013220, symSize: 0x14 }
  - { offsetInCU: 0x29A34, offset: 0x29A34, size: 0x8, addend: 0x0, symName: __ZNK9__gnu_cxx13new_allocatorISt23_Sp_counted_ptr_inplaceI3TauSaIS2_ELNS_12_Lock_policyE2EEE11_M_max_sizeEv, symObjAddr: 0xFC04, symBinAddr: 0x100013194, symSize: 0x14 }
  - { offsetInCU: 0x29A3C, offset: 0x29A3C, size: 0x8, addend: 0x0, symName: __ZN9__gnu_cxx13new_allocatorISt23_Sp_counted_ptr_inplaceI3TauSaIS2_ELNS_12_Lock_policyE2EEE8allocateEmPKv, symObjAddr: 0xFC18, symBinAddr: 0x1000131A8, symSize: 0x78 }
  - { offsetInCU: 0x29A67, offset: 0x29A67, size: 0x8, addend: 0x0, symName: __ZN9__gnu_cxx16__aligned_bufferI5QuarkE7_M_addrEv, symObjAddr: 0xFBF0, symBinAddr: 0x100013180, symSize: 0x14 }
  - { offsetInCU: 0x29A6F, offset: 0x29A6F, size: 0x8, addend: 0x0, symName: __ZNK9__gnu_cxx13new_allocatorISt23_Sp_counted_ptr_inplaceI3TauSaIS2_ELNS_12_Lock_policyE2EEE11_M_max_sizeEv, symObjAddr: 0xFC04, symBinAddr: 0x100013194, symSize: 0x14 }
  - { offsetInCU: 0x29A9A, offset: 0x29A9A, size: 0x8, addend: 0x0, symName: __ZN9__gnu_cxx13new_allocatorI5QuarkE9constructIS1_Jiiiib13Quark_flavour11Colour_listEEEvPT_DpOT0_, symObjAddr: 0xFAD4, symBinAddr: 0x100013064, symSize: 0x11C }
  - { offsetInCU: 0x29AA2, offset: 0x29AA2, size: 0x8, addend: 0x0, symName: __ZN9__gnu_cxx16__aligned_bufferI5QuarkE7_M_addrEv, symObjAddr: 0xFBF0, symBinAddr: 0x100013180, symSize: 0x14 }
  - { offsetInCU: 0x29BE3, offset: 0x29BE3, size: 0x8, addend: 0x0, symName: __ZNSt14_Sp_ebo_helperILi0ESaI5QuarkELb1EEC2ERKS1_, symObjAddr: 0xFAAC, symBinAddr: 0x10001303C, symSize: 0x28 }
  - { offsetInCU: 0x29BEB, offset: 0x29BEB, size: 0x8, addend: 0x0, symName: __ZN9__gnu_cxx13new_allocatorI5QuarkE9constructIS1_Jiiiib13Quark_flavour11Colour_listEEEvPT_DpOT0_, symObjAddr: 0xFAD4, symBinAddr: 0x100013064, symSize: 0x11C }
  - { offsetInCU: 0x29BEB, offset: 0x29BEB, size: 0x8, addend: 0x0, symName: __ZN9__gnu_cxx13new_allocatorISt23_Sp_counted_ptr_inplaceI5QuarkSaIS2_ELNS_12_Lock_policyE2EEE10deallocateEPS5_m, symObjAddr: 0xFA68, symBinAddr: 0x100012FF8, symSize: 0x44 }
  - { offsetInCU: 0x29BF3, offset: 0x29BF3, size: 0x8, addend: 0x0, symName: __ZNSt14_Sp_ebo_helperILi0ESaI5QuarkELb1EEC2ERKS1_, symObjAddr: 0xFAAC, symBinAddr: 0x10001303C, symSize: 0x28 }
  - { offsetInCU: 0x29D20, offset: 0x29D20, size: 0x8, addend: 0x0, symName: __ZSt11__addressofISaISt23_Sp_counted_ptr_inplaceI5QuarkSaIS1_ELN9__gnu_cxx12_Lock_policyE2EEEEPT_RS7_, symObjAddr: 0xFA54, symBinAddr: 0x100012FE4, symSize: 0x14 }
  - { offsetInCU: 0x29D28, offset: 0x29D28, size: 0x8, addend: 0x0, symName: __ZN9__gnu_cxx13new_allocatorISt23_Sp_counted_ptr_inplaceI5QuarkSaIS2_ELNS_12_Lock_policyE2EEE10deallocateEPS5_m, symObjAddr: 0xFA68, symBinAddr: 0x100012FF8, symSize: 0x44 }
  - { offsetInCU: 0x29C8B, offset: 0x29C8B, size: 0x8, addend: 0x0, symName: __ZN9__gnu_cxx13new_allocatorISt23_Sp_counted_ptr_inplaceI5QuarkSaIS2_ELNS_12_Lock_policyE2EEE8allocateEmPKv, symObjAddr: 0xF9BC, symBinAddr: 0x100012F4C, symSize: 0x98 }
  - { offsetInCU: 0x29C93, offset: 0x29C93, size: 0x8, addend: 0x0, symName: __ZSt11__addressofISaISt23_Sp_counted_ptr_inplaceI5QuarkSaIS1_ELN9__gnu_cxx12_Lock_policyE2EEEEPT_RS7_, symObjAddr: 0xFA54, symBinAddr: 0x100012FE4, symSize: 0x14 }
  - { offsetInCU: 0x29CED, offset: 0x29CED, size: 0x8, addend: 0x0, symName: __ZNK9__gnu_cxx13new_allocatorISt23_Sp_counted_ptr_inplaceI5QuarkSaIS2_ELNS_12_Lock_policyE2EEE11_M_max_sizeEv, symObjAddr: 0xF99C, symBinAddr: 0x100012F2C, symSize: 0x20 }
  - { offsetInCU: 0x29CF5, offset: 0x29CF5, size: 0x8, addend: 0x0, symName: __ZN9__gnu_cxx13new_allocatorISt23_Sp_counted_ptr_inplaceI5QuarkSaIS2_ELNS_12_Lock_policyE2EEE8allocateEmPKv, symObjAddr: 0xF9BC, symBinAddr: 0x100012F4C, symSize: 0x98 }
  - { offsetInCU: 0x29D1C, offset: 0x29D1C, size: 0x8, addend: 0x0, symName: __ZNSt16allocator_traitsISaISt10shared_ptrI8ParticleEEE9constructIS2_JS2_EEEvRS3_PT_DpOT0_, symObjAddr: 0xF964, symBinAddr: 0x100012EF4, symSize: 0x38 }
  - { offsetInCU: 0x29D24, offset: 0x29D24, size: 0x8, addend: 0x0, symName: __ZNK9__gnu_cxx13new_allocatorISt23_Sp_counted_ptr_inplaceI5QuarkSaIS2_ELNS_12_Lock_policyE2EEE11_M_max_sizeEv, symObjAddr: 0xF99C, symBinAddr: 0x100012F2C, symSize: 0x20 }
  - { offsetInCU: 0x29E00, offset: 0x29E00, size: 0x8, addend: 0x0, symName: __ZSt4moveIRSt10shared_ptrI8ParticleEEONSt16remove_referenceIT_E4typeEOS5_, symObjAddr: 0xF950, symBinAddr: 0x100012EE0, symSize: 0x14 }
  - { offsetInCU: 0x29E08, offset: 0x29E08, size: 0x8, addend: 0x0, symName: __ZNSt16allocator_traitsISaISt10shared_ptrI8ParticleEEE9constructIS2_JS2_EEEvRS3_PT_DpOT0_, symObjAddr: 0xF964, symBinAddr: 0x100012EF4, symSize: 0x38 }
  - { offsetInCU: 0x29DE6, offset: 0x29DE6, size: 0x8, addend: 0x0, symName: __ZN9__gnu_cxx13new_allocatorISt10_List_nodeISt10shared_ptrI8ElectronEEE8allocateEmPKv, symObjAddr: 0xF8D8, symBinAddr: 0x100012E68, symSize: 0x78 }
  - { offsetInCU: 0x29DEE, offset: 0x29DEE, size: 0x8, addend: 0x0, symName: __ZSt4moveIRSt10shared_ptrI8ParticleEEONSt16remove_referenceIT_E4typeEOS5_, symObjAddr: 0xF950, symBinAddr: 0x100012EE0, symSize: 0x14 }
  - { offsetInCU: 0x29E48, offset: 0x29E48, size: 0x8, addend: 0x0, symName: __ZNK9__gnu_cxx13new_allocatorISt10_List_nodeISt10shared_ptrI8ElectronEEE11_M_max_sizeEv, symObjAddr: 0xF8C4, symBinAddr: 0x100012E54, symSize: 0x14 }
  - { offsetInCU: 0x29E50, offset: 0x29E50, size: 0x8, addend: 0x0, symName: __ZN9__gnu_cxx13new_allocatorISt10_List_nodeISt10shared_ptrI8ElectronEEE8allocateEmPKv, symObjAddr: 0xF8D8, symBinAddr: 0x100012E68, symSize: 0x78 }
  - { offsetInCU: 0x29E77, offset: 0x29E77, size: 0x8, addend: 0x0, symName: __ZNSt16allocator_traitsISaI7W_BosonEE9constructIS0_JdiiibEEEvRS1_PT_DpOT0_, symObjAddr: 0xF82C, symBinAddr: 0x100012DBC, symSize: 0x98 }
  - { offsetInCU: 0x29E7F, offset: 0x29E7F, size: 0x8, addend: 0x0, symName: __ZNK9__gnu_cxx13new_allocatorISt10_List_nodeISt10shared_ptrI8ElectronEEE11_M_max_sizeEv, symObjAddr: 0xF8C4, symBinAddr: 0x100012E54, symSize: 0x14 }
  - { offsetInCU: 0x29F40, offset: 0x29F40, size: 0x8, addend: 0x0, symName: __ZNSt16allocator_traitsISaI7Z_BosonEE9constructIS0_JdiiiEEEvRS1_PT_DpOT0_, symObjAddr: 0xF7A8, symBinAddr: 0x100012D38, symSize: 0x84 }
  - { offsetInCU: 0x29F48, offset: 0x29F48, size: 0x8, addend: 0x0, symName: __ZNSt16allocator_traitsISaI7W_BosonEE9constructIS0_JdiiibEEEvRS1_PT_DpOT0_, symObjAddr: 0xF82C, symBinAddr: 0x100012DBC, symSize: 0x98 }
  - { offsetInCU: 0x29FF4, offset: 0x29FF4, size: 0x8, addend: 0x0, symName: __ZN9__gnu_cxx16__aligned_bufferI5HiggsE6_M_ptrEv, symObjAddr: 0xF78C, symBinAddr: 0x100012D1C, symSize: 0x1C }
  - { offsetInCU: 0x29FFC, offset: 0x29FFC, size: 0x8, addend: 0x0, symName: __ZNSt16allocator_traitsISaI7Z_BosonEE9constructIS0_JdiiiEEEvRS1_PT_DpOT0_, symObjAddr: 0xF7A8, symBinAddr: 0x100012D38, symSize: 0x84 }
  - { offsetInCU: 0x2A023, offset: 0x2A023, size: 0x8, addend: 0x0, symName: __ZNSt16allocator_traitsISaI5HiggsEE9constructIS0_JddddEEEvRS1_PT_DpOT0_, symObjAddr: 0xF708, symBinAddr: 0x100012C98, symSize: 0x84 }
  - { offsetInCU: 0x2A02B, offset: 0x2A02B, size: 0x8, addend: 0x0, symName: __ZN9__gnu_cxx16__aligned_bufferI5HiggsE6_M_ptrEv, symObjAddr: 0xF78C, symBinAddr: 0x100012D1C, symSize: 0x1C }
  - { offsetInCU: 0x2A158, offset: 0x2A158, size: 0x8, addend: 0x0, symName: __ZNSt23_Sp_counted_ptr_inplaceI5HiggsSaIS0_ELN9__gnu_cxx12_Lock_policyE2EE5_ImplC1ES1_, symObjAddr: 0xF6E0, symBinAddr: 0x100012C70, symSize: 0x28 }
  - { offsetInCU: 0x2A160, offset: 0x2A160, size: 0x8, addend: 0x0, symName: __ZNSt16allocator_traitsISaI5HiggsEE9constructIS0_JddddEEEvRS1_PT_DpOT0_, symObjAddr: 0xF708, symBinAddr: 0x100012C98, symSize: 0x84 }
  - { offsetInCU: 0x2A18B, offset: 0x2A18B, size: 0x8, addend: 0x0, symName: __ZN9__gnu_cxx13new_allocatorI5HiggsEC2ERKS2_, symObjAddr: 0xF6C8, symBinAddr: 0x100012C58, symSize: 0x18 }
  - { offsetInCU: 0x2A193, offset: 0x2A193, size: 0x8, addend: 0x0, symName: __ZNSt23_Sp_counted_ptr_inplaceI5HiggsSaIS0_ELN9__gnu_cxx12_Lock_policyE2EE5_ImplC1ES1_, symObjAddr: 0xF6E0, symBinAddr: 0x100012C70, symSize: 0x28 }
  - { offsetInCU: 0x2A264, offset: 0x2A264, size: 0x8, addend: 0x0, symName: __ZSt12__to_addressISt23_Sp_counted_ptr_inplaceI5HiggsSaIS1_ELN9__gnu_cxx12_Lock_policyE2EEEPT_S7_, symObjAddr: 0xF6B4, symBinAddr: 0x100012C44, symSize: 0x14 }
  - { offsetInCU: 0x2A26C, offset: 0x2A26C, size: 0x8, addend: 0x0, symName: __ZN9__gnu_cxx13new_allocatorI5HiggsEC2ERKS2_, symObjAddr: 0xF6C8, symBinAddr: 0x100012C58, symSize: 0x18 }
  - { offsetInCU: 0x2A1E3, offset: 0x2A1E3, size: 0x8, addend: 0x0, symName: __ZNSt16allocator_traitsISaISt23_Sp_counted_ptr_inplaceI5HiggsSaIS1_ELN9__gnu_cxx12_Lock_policyE2EEEE10deallocateERS6_PS5_m, symObjAddr: 0xF684, symBinAddr: 0x100012C14, symSize: 0x30 }
  - { offsetInCU: 0x2A1EB, offset: 0x2A1EB, size: 0x8, addend: 0x0, symName: __ZSt12__to_addressISt23_Sp_counted_ptr_inplaceI5HiggsSaIS1_ELN9__gnu_cxx12_Lock_policyE2EEEPT_S7_, symObjAddr: 0xF6B4, symBinAddr: 0x100012C44, symSize: 0x14 }
  - { offsetInCU: 0x2A2E7, offset: 0x2A2E7, size: 0x8, addend: 0x0, symName: __ZNSt15__allocated_ptrISaISt23_Sp_counted_ptr_inplaceI5HiggsSaIS1_ELN9__gnu_cxx12_Lock_policyE2EEEEC1ERS6_PS5_, symObjAddr: 0xF644, symBinAddr: 0x100012BD4, symSize: 0x40 }
  - { offsetInCU: 0x2A2EF, offset: 0x2A2EF, size: 0x8, addend: 0x0, symName: __ZNSt16allocator_traitsISaISt23_Sp_counted_ptr_inplaceI5HiggsSaIS1_ELN9__gnu_cxx12_Lock_policyE2EEEE10deallocateERS6_PS5_m, symObjAddr: 0xF684, symBinAddr: 0x100012C14, symSize: 0x30 }
  - { offsetInCU: 0x2A2BE, offset: 0x2A2BE, size: 0x8, addend: 0x0, symName: __ZNSt16allocator_traitsISaISt23_Sp_counted_ptr_inplaceI5HiggsSaIS1_ELN9__gnu_cxx12_Lock_policyE2EEEE8allocateERS6_m, symObjAddr: 0xF61C, symBinAddr: 0x100012BAC, symSize: 0x28 }
  - { offsetInCU: 0x2A2C6, offset: 0x2A2C6, size: 0x8, addend: 0x0, symName: __ZNSt15__allocated_ptrISaISt23_Sp_counted_ptr_inplaceI5HiggsSaIS1_ELN9__gnu_cxx12_Lock_policyE2EEEEC1ERS6_PS5_, symObjAddr: 0xF644, symBinAddr: 0x100012BD4, symSize: 0x40 }
  - { offsetInCU: 0x2A38D, offset: 0x2A38D, size: 0x8, addend: 0x0, symName: __ZN9__gnu_cxx13new_allocatorISt23_Sp_counted_ptr_inplaceI5HiggsSaIS2_ELNS_12_Lock_policyE2EEED2Ev, symObjAddr: 0xF608, symBinAddr: 0x100012B98, symSize: 0x14 }
  - { offsetInCU: 0x2A395, offset: 0x2A395, size: 0x8, addend: 0x0, symName: __ZNSt16allocator_traitsISaISt23_Sp_counted_ptr_inplaceI5HiggsSaIS1_ELN9__gnu_cxx12_Lock_policyE2EEEE8allocateERS6_m, symObjAddr: 0xF61C, symBinAddr: 0x100012BAC, symSize: 0x28 }
  - { offsetInCU: 0x2A3D4, offset: 0x2A3D4, size: 0x8, addend: 0x0, symName: __ZN9__gnu_cxx13new_allocatorISt23_Sp_counted_ptr_inplaceI5HiggsSaIS2_ELNS_12_Lock_policyE2EEEC2Ev, symObjAddr: 0xF5F4, symBinAddr: 0x100012B84, symSize: 0x14 }
  - { offsetInCU: 0x2A3DC, offset: 0x2A3DC, size: 0x8, addend: 0x0, symName: __ZN9__gnu_cxx13new_allocatorISt23_Sp_counted_ptr_inplaceI5HiggsSaIS2_ELNS_12_Lock_policyE2EEED2Ev, symObjAddr: 0xF608, symBinAddr: 0x100012B98, symSize: 0x14 }
  - { offsetInCU: 0x2A3A0, offset: 0x2A3A0, size: 0x8, addend: 0x0, symName: __ZN9__gnu_cxx16__aligned_bufferI7W_BosonE6_M_ptrEv, symObjAddr: 0xF5D8, symBinAddr: 0x100012B68, symSize: 0x1C }
  - { offsetInCU: 0x2A3A8, offset: 0x2A3A8, size: 0x8, addend: 0x0, symName: __ZN9__gnu_cxx13new_allocatorISt23_Sp_counted_ptr_inplaceI5HiggsSaIS2_ELNS_12_Lock_policyE2EEEC2Ev, symObjAddr: 0xF5F4, symBinAddr: 0x100012B84, symSize: 0x14 }
  - { offsetInCU: 0x2A3CF, offset: 0x2A3CF, size: 0x8, addend: 0x0, symName: __ZNSt16allocator_traitsISaI7W_BosonEE9constructIS0_JddddbEEEvRS1_PT_DpOT0_, symObjAddr: 0xF540, symBinAddr: 0x100012AD0, symSize: 0x98 }
  - { offsetInCU: 0x2A3D7, offset: 0x2A3D7, size: 0x8, addend: 0x0, symName: __ZN9__gnu_cxx16__aligned_bufferI7W_BosonE6_M_ptrEv, symObjAddr: 0xF5D8, symBinAddr: 0x100012B68, symSize: 0x1C }
  - { offsetInCU: 0x2A51B, offset: 0x2A51B, size: 0x8, addend: 0x0, symName: __ZNSt23_Sp_counted_ptr_inplaceI7W_BosonSaIS0_ELN9__gnu_cxx12_Lock_policyE2EE5_ImplC1ES1_, symObjAddr: 0xF518, symBinAddr: 0x100012AA8, symSize: 0x28 }
  - { offsetInCU: 0x2A523, offset: 0x2A523, size: 0x8, addend: 0x0, symName: __ZNSt16allocator_traitsISaI7W_BosonEE9constructIS0_JddddbEEEvRS1_PT_DpOT0_, symObjAddr: 0xF540, symBinAddr: 0x100012AD0, symSize: 0x98 }
  - { offsetInCU: 0x2A54E, offset: 0x2A54E, size: 0x8, addend: 0x0, symName: __ZN9__gnu_cxx13new_allocatorI7W_BosonEC2ERKS2_, symObjAddr: 0xF500, symBinAddr: 0x100012A90, symSize: 0x18 }
  - { offsetInCU: 0x2A556, offset: 0x2A556, size: 0x8, addend: 0x0, symName: __ZNSt23_Sp_counted_ptr_inplaceI7W_BosonSaIS0_ELN9__gnu_cxx12_Lock_policyE2EE5_ImplC1ES1_, symObjAddr: 0xF518, symBinAddr: 0x100012AA8, symSize: 0x28 }
  - { offsetInCU: 0x2A62B, offset: 0x2A62B, size: 0x8, addend: 0x0, symName: __ZSt12__to_addressISt23_Sp_counted_ptr_inplaceI7W_BosonSaIS1_ELN9__gnu_cxx12_Lock_policyE2EEEPT_S7_, symObjAddr: 0xF4EC, symBinAddr: 0x100012A7C, symSize: 0x14 }
  - { offsetInCU: 0x2A633, offset: 0x2A633, size: 0x8, addend: 0x0, symName: __ZN9__gnu_cxx13new_allocatorI7W_BosonEC2ERKS2_, symObjAddr: 0xF500, symBinAddr: 0x100012A90, symSize: 0x18 }
  - { offsetInCU: 0x2A5A4, offset: 0x2A5A4, size: 0x8, addend: 0x0, symName: __ZNSt16allocator_traitsISaISt23_Sp_counted_ptr_inplaceI7W_BosonSaIS1_ELN9__gnu_cxx12_Lock_policyE2EEEE10deallocateERS6_PS5_m, symObjAddr: 0xF4BC, symBinAddr: 0x100012A4C, symSize: 0x30 }
  - { offsetInCU: 0x2A5AC, offset: 0x2A5AC, size: 0x8, addend: 0x0, symName: __ZSt12__to_addressISt23_Sp_counted_ptr_inplaceI7W_BosonSaIS1_ELN9__gnu_cxx12_Lock_policyE2EEEPT_S7_, symObjAddr: 0xF4EC, symBinAddr: 0x100012A7C, symSize: 0x14 }
  - { offsetInCU: 0x2A6AA, offset: 0x2A6AA, size: 0x8, addend: 0x0, symName: __ZNSt15__allocated_ptrISaISt23_Sp_counted_ptr_inplaceI7W_BosonSaIS1_ELN9__gnu_cxx12_Lock_policyE2EEEEC1ERS6_PS5_, symObjAddr: 0xF47C, symBinAddr: 0x100012A0C, symSize: 0x40 }
  - { offsetInCU: 0x2A6B2, offset: 0x2A6B2, size: 0x8, addend: 0x0, symName: __ZNSt16allocator_traitsISaISt23_Sp_counted_ptr_inplaceI7W_BosonSaIS1_ELN9__gnu_cxx12_Lock_policyE2EEEE10deallocateERS6_PS5_m, symObjAddr: 0xF4BC, symBinAddr: 0x100012A4C, symSize: 0x30 }
  - { offsetInCU: 0x2A67F, offset: 0x2A67F, size: 0x8, addend: 0x0, symName: __ZNSt16allocator_traitsISaISt23_Sp_counted_ptr_inplaceI7W_BosonSaIS1_ELN9__gnu_cxx12_Lock_policyE2EEEE8allocateERS6_m, symObjAddr: 0xF454, symBinAddr: 0x1000129E4, symSize: 0x28 }
  - { offsetInCU: 0x2A687, offset: 0x2A687, size: 0x8, addend: 0x0, symName: __ZNSt15__allocated_ptrISaISt23_Sp_counted_ptr_inplaceI7W_BosonSaIS1_ELN9__gnu_cxx12_Lock_policyE2EEEEC1ERS6_PS5_, symObjAddr: 0xF47C, symBinAddr: 0x100012A0C, symSize: 0x40 }
  - { offsetInCU: 0x2A750, offset: 0x2A750, size: 0x8, addend: 0x0, symName: __ZN9__gnu_cxx13new_allocatorISt23_Sp_counted_ptr_inplaceI7W_BosonSaIS2_ELNS_12_Lock_policyE2EEED2Ev, symObjAddr: 0xF440, symBinAddr: 0x1000129D0, symSize: 0x14 }
  - { offsetInCU: 0x2A758, offset: 0x2A758, size: 0x8, addend: 0x0, symName: __ZNSt16allocator_traitsISaISt23_Sp_counted_ptr_inplaceI7W_BosonSaIS1_ELN9__gnu_cxx12_Lock_policyE2EEEE8allocateERS6_m, symObjAddr: 0xF454, symBinAddr: 0x1000129E4, symSize: 0x28 }
  - { offsetInCU: 0x2A797, offset: 0x2A797, size: 0x8, addend: 0x0, symName: __ZN9__gnu_cxx13new_allocatorISt23_Sp_counted_ptr_inplaceI7W_BosonSaIS2_ELNS_12_Lock_policyE2EEEC2Ev, symObjAddr: 0xF42C, symBinAddr: 0x1000129BC, symSize: 0x14 }
  - { offsetInCU: 0x2A79F, offset: 0x2A79F, size: 0x8, addend: 0x0, symName: __ZN9__gnu_cxx13new_allocatorISt23_Sp_counted_ptr_inplaceI7W_BosonSaIS2_ELNS_12_Lock_policyE2EEED2Ev, symObjAddr: 0xF440, symBinAddr: 0x1000129D0, symSize: 0x14 }
  - { offsetInCU: 0x2A761, offset: 0x2A761, size: 0x8, addend: 0x0, symName: __ZN9__gnu_cxx16__aligned_bufferI7Z_BosonE6_M_ptrEv, symObjAddr: 0xF410, symBinAddr: 0x1000129A0, symSize: 0x1C }
  - { offsetInCU: 0x2A769, offset: 0x2A769, size: 0x8, addend: 0x0, symName: __ZN9__gnu_cxx13new_allocatorISt23_Sp_counted_ptr_inplaceI7W_BosonSaIS2_ELNS_12_Lock_policyE2EEEC2Ev, symObjAddr: 0xF42C, symBinAddr: 0x1000129BC, symSize: 0x14 }
  - { offsetInCU: 0x2A790, offset: 0x2A790, size: 0x8, addend: 0x0, symName: __ZNSt16allocator_traitsISaI7Z_BosonEE9constructIS0_JddddEEEvRS1_PT_DpOT0_, symObjAddr: 0xF38C, symBinAddr: 0x10001291C, symSize: 0x84 }
  - { offsetInCU: 0x2A798, offset: 0x2A798, size: 0x8, addend: 0x0, symName: __ZN9__gnu_cxx16__aligned_bufferI7Z_BosonE6_M_ptrEv, symObjAddr: 0xF410, symBinAddr: 0x1000129A0, symSize: 0x1C }
  - { offsetInCU: 0x2A8C7, offset: 0x2A8C7, size: 0x8, addend: 0x0, symName: __ZNSt23_Sp_counted_ptr_inplaceI7Z_BosonSaIS0_ELN9__gnu_cxx12_Lock_policyE2EE5_ImplC1ES1_, symObjAddr: 0xF364, symBinAddr: 0x1000128F4, symSize: 0x28 }
  - { offsetInCU: 0x2A8CF, offset: 0x2A8CF, size: 0x8, addend: 0x0, symName: __ZNSt16allocator_traitsISaI7Z_BosonEE9constructIS0_JddddEEEvRS1_PT_DpOT0_, symObjAddr: 0xF38C, symBinAddr: 0x10001291C, symSize: 0x84 }
  - { offsetInCU: 0x2A8FA, offset: 0x2A8FA, size: 0x8, addend: 0x0, symName: __ZN9__gnu_cxx13new_allocatorI7Z_BosonEC2ERKS2_, symObjAddr: 0xF34C, symBinAddr: 0x1000128DC, symSize: 0x18 }
  - { offsetInCU: 0x2A902, offset: 0x2A902, size: 0x8, addend: 0x0, symName: __ZNSt23_Sp_counted_ptr_inplaceI7Z_BosonSaIS0_ELN9__gnu_cxx12_Lock_policyE2EE5_ImplC1ES1_, symObjAddr: 0xF364, symBinAddr: 0x1000128F4, symSize: 0x28 }
  - { offsetInCU: 0x2A9D7, offset: 0x2A9D7, size: 0x8, addend: 0x0, symName: __ZSt12__to_addressISt23_Sp_counted_ptr_inplaceI7Z_BosonSaIS1_ELN9__gnu_cxx12_Lock_policyE2EEEPT_S7_, symObjAddr: 0xF338, symBinAddr: 0x1000128C8, symSize: 0x14 }
  - { offsetInCU: 0x2A9DF, offset: 0x2A9DF, size: 0x8, addend: 0x0, symName: __ZN9__gnu_cxx13new_allocatorI7Z_BosonEC2ERKS2_, symObjAddr: 0xF34C, symBinAddr: 0x1000128DC, symSize: 0x18 }
  - { offsetInCU: 0x2A950, offset: 0x2A950, size: 0x8, addend: 0x0, symName: __ZNSt16allocator_traitsISaISt23_Sp_counted_ptr_inplaceI7Z_BosonSaIS1_ELN9__gnu_cxx12_Lock_policyE2EEEE10deallocateERS6_PS5_m, symObjAddr: 0xF308, symBinAddr: 0x100012898, symSize: 0x30 }
  - { offsetInCU: 0x2A958, offset: 0x2A958, size: 0x8, addend: 0x0, symName: __ZSt12__to_addressISt23_Sp_counted_ptr_inplaceI7Z_BosonSaIS1_ELN9__gnu_cxx12_Lock_policyE2EEEPT_S7_, symObjAddr: 0xF338, symBinAddr: 0x1000128C8, symSize: 0x14 }
  - { offsetInCU: 0x2AA56, offset: 0x2AA56, size: 0x8, addend: 0x0, symName: __ZNSt15__allocated_ptrISaISt23_Sp_counted_ptr_inplaceI7Z_BosonSaIS1_ELN9__gnu_cxx12_Lock_policyE2EEEEC1ERS6_PS5_, symObjAddr: 0xF2C8, symBinAddr: 0x100012858, symSize: 0x40 }
  - { offsetInCU: 0x2AA5E, offset: 0x2AA5E, size: 0x8, addend: 0x0, symName: __ZNSt16allocator_traitsISaISt23_Sp_counted_ptr_inplaceI7Z_BosonSaIS1_ELN9__gnu_cxx12_Lock_policyE2EEEE10deallocateERS6_PS5_m, symObjAddr: 0xF308, symBinAddr: 0x100012898, symSize: 0x30 }
  - { offsetInCU: 0x2AA2B, offset: 0x2AA2B, size: 0x8, addend: 0x0, symName: __ZNSt16allocator_traitsISaISt23_Sp_counted_ptr_inplaceI7Z_BosonSaIS1_ELN9__gnu_cxx12_Lock_policyE2EEEE8allocateERS6_m, symObjAddr: 0xF2A0, symBinAddr: 0x100012830, symSize: 0x28 }
  - { offsetInCU: 0x2AA33, offset: 0x2AA33, size: 0x8, addend: 0x0, symName: __ZNSt15__allocated_ptrISaISt23_Sp_counted_ptr_inplaceI7Z_BosonSaIS1_ELN9__gnu_cxx12_Lock_policyE2EEEEC1ERS6_PS5_, symObjAddr: 0xF2C8, symBinAddr: 0x100012858, symSize: 0x40 }
  - { offsetInCU: 0x2AAFC, offset: 0x2AAFC, size: 0x8, addend: 0x0, symName: __ZN9__gnu_cxx13new_allocatorISt23_Sp_counted_ptr_inplaceI7Z_BosonSaIS2_ELNS_12_Lock_policyE2EEED2Ev, symObjAddr: 0xF28C, symBinAddr: 0x10001281C, symSize: 0x14 }
  - { offsetInCU: 0x2AB04, offset: 0x2AB04, size: 0x8, addend: 0x0, symName: __ZNSt16allocator_traitsISaISt23_Sp_counted_ptr_inplaceI7Z_BosonSaIS1_ELN9__gnu_cxx12_Lock_policyE2EEEE8allocateERS6_m, symObjAddr: 0xF2A0, symBinAddr: 0x100012830, symSize: 0x28 }
  - { offsetInCU: 0x2AB43, offset: 0x2AB43, size: 0x8, addend: 0x0, symName: __ZN9__gnu_cxx13new_allocatorISt23_Sp_counted_ptr_inplaceI7Z_BosonSaIS2_ELNS_12_Lock_policyE2EEEC2Ev, symObjAddr: 0xF278, symBinAddr: 0x100012808, symSize: 0x14 }
  - { offsetInCU: 0x2AB4B, offset: 0x2AB4B, size: 0x8, addend: 0x0, symName: __ZN9__gnu_cxx13new_allocatorISt23_Sp_counted_ptr_inplaceI7Z_BosonSaIS2_ELNS_12_Lock_policyE2EEED2Ev, symObjAddr: 0xF28C, symBinAddr: 0x10001281C, symSize: 0x14 }
  - { offsetInCU: 0x2AB0D, offset: 0x2AB0D, size: 0x8, addend: 0x0, symName: __ZN9__gnu_cxx16__aligned_bufferI6PhotonE6_M_ptrEv, symObjAddr: 0xF25C, symBinAddr: 0x1000127EC, symSize: 0x1C }
  - { offsetInCU: 0x2AB15, offset: 0x2AB15, size: 0x8, addend: 0x0, symName: __ZN9__gnu_cxx13new_allocatorISt23_Sp_counted_ptr_inplaceI7Z_BosonSaIS2_ELNS_12_Lock_policyE2EEEC2Ev, symObjAddr: 0xF278, symBinAddr: 0x100012808, symSize: 0x14 }
  - { offsetInCU: 0x2AB3C, offset: 0x2AB3C, size: 0x8, addend: 0x0, symName: __ZNSt16allocator_traitsISaI6PhotonEE9constructIS0_JiiiiEEEvRS1_PT_DpOT0_, symObjAddr: 0xF1D8, symBinAddr: 0x100012768, symSize: 0x84 }
  - { offsetInCU: 0x2AB44, offset: 0x2AB44, size: 0x8, addend: 0x0, symName: __ZN9__gnu_cxx16__aligned_bufferI6PhotonE6_M_ptrEv, symObjAddr: 0xF25C, symBinAddr: 0x1000127EC, symSize: 0x1C }
  - { offsetInCU: 0x2AC72, offset: 0x2AC72, size: 0x8, addend: 0x0, symName: __ZNSt23_Sp_counted_ptr_inplaceI6PhotonSaIS0_ELN9__gnu_cxx12_Lock_policyE2EE5_ImplC1ES1_, symObjAddr: 0xF1B0, symBinAddr: 0x100012740, symSize: 0x28 }
  - { offsetInCU: 0x2AC7A, offset: 0x2AC7A, size: 0x8, addend: 0x0, symName: __ZNSt16allocator_traitsISaI6PhotonEE9constructIS0_JiiiiEEEvRS1_PT_DpOT0_, symObjAddr: 0xF1D8, symBinAddr: 0x100012768, symSize: 0x84 }
  - { offsetInCU: 0x2ACA5, offset: 0x2ACA5, size: 0x8, addend: 0x0, symName: __ZN9__gnu_cxx13new_allocatorI6PhotonEC2ERKS2_, symObjAddr: 0xF198, symBinAddr: 0x100012728, symSize: 0x18 }
  - { offsetInCU: 0x2ACAD, offset: 0x2ACAD, size: 0x8, addend: 0x0, symName: __ZNSt23_Sp_counted_ptr_inplaceI6PhotonSaIS0_ELN9__gnu_cxx12_Lock_policyE2EE5_ImplC1ES1_, symObjAddr: 0xF1B0, symBinAddr: 0x100012740, symSize: 0x28 }
  - { offsetInCU: 0x2AD80, offset: 0x2AD80, size: 0x8, addend: 0x0, symName: __ZSt12__to_addressISt23_Sp_counted_ptr_inplaceI6PhotonSaIS1_ELN9__gnu_cxx12_Lock_policyE2EEEPT_S7_, symObjAddr: 0xF184, symBinAddr: 0x100012714, symSize: 0x14 }
  - { offsetInCU: 0x2AD88, offset: 0x2AD88, size: 0x8, addend: 0x0, symName: __ZN9__gnu_cxx13new_allocatorI6PhotonEC2ERKS2_, symObjAddr: 0xF198, symBinAddr: 0x100012728, symSize: 0x18 }
  - { offsetInCU: 0x2ACFC, offset: 0x2ACFC, size: 0x8, addend: 0x0, symName: __ZNSt16allocator_traitsISaISt23_Sp_counted_ptr_inplaceI6PhotonSaIS1_ELN9__gnu_cxx12_Lock_policyE2EEEE10deallocateERS6_PS5_m, symObjAddr: 0xF154, symBinAddr: 0x1000126E4, symSize: 0x30 }
  - { offsetInCU: 0x2AD04, offset: 0x2AD04, size: 0x8, addend: 0x0, symName: __ZSt12__to_addressISt23_Sp_counted_ptr_inplaceI6PhotonSaIS1_ELN9__gnu_cxx12_Lock_policyE2EEEPT_S7_, symObjAddr: 0xF184, symBinAddr: 0x100012714, symSize: 0x14 }
  - { offsetInCU: 0x2AE01, offset: 0x2AE01, size: 0x8, addend: 0x0, symName: __ZNSt15__allocated_ptrISaISt23_Sp_counted_ptr_inplaceI6PhotonSaIS1_ELN9__gnu_cxx12_Lock_policyE2EEEEC1ERS6_PS5_, symObjAddr: 0xF114, symBinAddr: 0x1000126A4, symSize: 0x40 }
  - { offsetInCU: 0x2AE09, offset: 0x2AE09, size: 0x8, addend: 0x0, symName: __ZNSt16allocator_traitsISaISt23_Sp_counted_ptr_inplaceI6PhotonSaIS1_ELN9__gnu_cxx12_Lock_policyE2EEEE10deallocateERS6_PS5_m, symObjAddr: 0xF154, symBinAddr: 0x1000126E4, symSize: 0x30 }
  - { offsetInCU: 0x2ADD7, offset: 0x2ADD7, size: 0x8, addend: 0x0, symName: __ZNSt16allocator_traitsISaISt23_Sp_counted_ptr_inplaceI6PhotonSaIS1_ELN9__gnu_cxx12_Lock_policyE2EEEE8allocateERS6_m, symObjAddr: 0xF0EC, symBinAddr: 0x10001267C, symSize: 0x28 }
  - { offsetInCU: 0x2ADDF, offset: 0x2ADDF, size: 0x8, addend: 0x0, symName: __ZNSt15__allocated_ptrISaISt23_Sp_counted_ptr_inplaceI6PhotonSaIS1_ELN9__gnu_cxx12_Lock_policyE2EEEEC1ERS6_PS5_, symObjAddr: 0xF114, symBinAddr: 0x1000126A4, symSize: 0x40 }
  - { offsetInCU: 0x2AEA7, offset: 0x2AEA7, size: 0x8, addend: 0x0, symName: __ZN9__gnu_cxx13new_allocatorISt23_Sp_counted_ptr_inplaceI6PhotonSaIS2_ELNS_12_Lock_policyE2EEED2Ev, symObjAddr: 0xF0D8, symBinAddr: 0x100012668, symSize: 0x14 }
  - { offsetInCU: 0x2AEAF, offset: 0x2AEAF, size: 0x8, addend: 0x0, symName: __ZNSt16allocator_traitsISaISt23_Sp_counted_ptr_inplaceI6PhotonSaIS1_ELN9__gnu_cxx12_Lock_policyE2EEEE8allocateERS6_m, symObjAddr: 0xF0EC, symBinAddr: 0x10001267C, symSize: 0x28 }
  - { offsetInCU: 0x2AEEE, offset: 0x2AEEE, size: 0x8, addend: 0x0, symName: __ZN9__gnu_cxx13new_allocatorISt23_Sp_counted_ptr_inplaceI6PhotonSaIS2_ELNS_12_Lock_policyE2EEEC2Ev, symObjAddr: 0xF0C4, symBinAddr: 0x100012654, symSize: 0x14 }
  - { offsetInCU: 0x2AEF6, offset: 0x2AEF6, size: 0x8, addend: 0x0, symName: __ZN9__gnu_cxx13new_allocatorISt23_Sp_counted_ptr_inplaceI6PhotonSaIS2_ELNS_12_Lock_policyE2EEED2Ev, symObjAddr: 0xF0D8, symBinAddr: 0x100012668, symSize: 0x14 }
  - { offsetInCU: 0x2AEB9, offset: 0x2AEB9, size: 0x8, addend: 0x0, symName: __ZN9__gnu_cxx16__aligned_bufferI5GluonE6_M_ptrEv, symObjAddr: 0xF0A8, symBinAddr: 0x100012638, symSize: 0x1C }
  - { offsetInCU: 0x2AEC1, offset: 0x2AEC1, size: 0x8, addend: 0x0, symName: __ZN9__gnu_cxx13new_allocatorISt23_Sp_counted_ptr_inplaceI6PhotonSaIS2_ELNS_12_Lock_policyE2EEEC2Ev, symObjAddr: 0xF0C4, symBinAddr: 0x100012654, symSize: 0x14 }
  - { offsetInCU: 0x2AEE8, offset: 0x2AEE8, size: 0x8, addend: 0x0, symName: __ZNSt16allocator_traitsISaI5GluonEE9constructIS0_Jddddb11Colour_listS4_EEEvRS1_PT_DpOT0_, symObjAddr: 0xEFDC, symBinAddr: 0x10001256C, symSize: 0xCC }
  - { offsetInCU: 0x2AEF0, offset: 0x2AEF0, size: 0x8, addend: 0x0, symName: __ZN9__gnu_cxx16__aligned_bufferI5GluonE6_M_ptrEv, symObjAddr: 0xF0A8, symBinAddr: 0x100012638, symSize: 0x1C }
  - { offsetInCU: 0x2B05C, offset: 0x2B05C, size: 0x8, addend: 0x0, symName: __ZNSt23_Sp_counted_ptr_inplaceI5GluonSaIS0_ELN9__gnu_cxx12_Lock_policyE2EE5_ImplC1ES1_, symObjAddr: 0xEFB4, symBinAddr: 0x100012544, symSize: 0x28 }
  - { offsetInCU: 0x2B064, offset: 0x2B064, size: 0x8, addend: 0x0, symName: __ZNSt16allocator_traitsISaI5GluonEE9constructIS0_Jddddb11Colour_listS4_EEEvRS1_PT_DpOT0_, symObjAddr: 0xEFDC, symBinAddr: 0x10001256C, symSize: 0xCC }
  - { offsetInCU: 0x2B08F, offset: 0x2B08F, size: 0x8, addend: 0x0, symName: __ZN9__gnu_cxx13new_allocatorI5GluonEC2ERKS2_, symObjAddr: 0xEF9C, symBinAddr: 0x10001252C, symSize: 0x18 }
  - { offsetInCU: 0x2B097, offset: 0x2B097, size: 0x8, addend: 0x0, symName: __ZNSt23_Sp_counted_ptr_inplaceI5GluonSaIS0_ELN9__gnu_cxx12_Lock_policyE2EE5_ImplC1ES1_, symObjAddr: 0xEFB4, symBinAddr: 0x100012544, symSize: 0x28 }
  - { offsetInCU: 0x2B168, offset: 0x2B168, size: 0x8, addend: 0x0, symName: __ZSt12__to_addressISt23_Sp_counted_ptr_inplaceI5GluonSaIS1_ELN9__gnu_cxx12_Lock_policyE2EEEPT_S7_, symObjAddr: 0xEF88, symBinAddr: 0x100012518, symSize: 0x14 }
  - { offsetInCU: 0x2B170, offset: 0x2B170, size: 0x8, addend: 0x0, symName: __ZN9__gnu_cxx13new_allocatorI5GluonEC2ERKS2_, symObjAddr: 0xEF9C, symBinAddr: 0x10001252C, symSize: 0x18 }
  - { offsetInCU: 0x2B0E7, offset: 0x2B0E7, size: 0x8, addend: 0x0, symName: __ZNSt16allocator_traitsISaISt23_Sp_counted_ptr_inplaceI5GluonSaIS1_ELN9__gnu_cxx12_Lock_policyE2EEEE10deallocateERS6_PS5_m, symObjAddr: 0xEF58, symBinAddr: 0x1000124E8, symSize: 0x30 }
  - { offsetInCU: 0x2B0EF, offset: 0x2B0EF, size: 0x8, addend: 0x0, symName: __ZSt12__to_addressISt23_Sp_counted_ptr_inplaceI5GluonSaIS1_ELN9__gnu_cxx12_Lock_policyE2EEEPT_S7_, symObjAddr: 0xEF88, symBinAddr: 0x100012518, symSize: 0x14 }
  - { offsetInCU: 0x2B1EB, offset: 0x2B1EB, size: 0x8, addend: 0x0, symName: __ZNSt15__allocated_ptrISaISt23_Sp_counted_ptr_inplaceI5GluonSaIS1_ELN9__gnu_cxx12_Lock_policyE2EEEEC1ERS6_PS5_, symObjAddr: 0xEF18, symBinAddr: 0x1000124A8, symSize: 0x40 }
  - { offsetInCU: 0x2B1F3, offset: 0x2B1F3, size: 0x8, addend: 0x0, symName: __ZNSt16allocator_traitsISaISt23_Sp_counted_ptr_inplaceI5GluonSaIS1_ELN9__gnu_cxx12_Lock_policyE2EEEE10deallocateERS6_PS5_m, symObjAddr: 0xEF58, symBinAddr: 0x1000124E8, symSize: 0x30 }
  - { offsetInCU: 0x2B1C2, offset: 0x2B1C2, size: 0x8, addend: 0x0, symName: __ZNSt16allocator_traitsISaISt23_Sp_counted_ptr_inplaceI5GluonSaIS1_ELN9__gnu_cxx12_Lock_policyE2EEEE8allocateERS6_m, symObjAddr: 0xEEF0, symBinAddr: 0x100012480, symSize: 0x28 }
  - { offsetInCU: 0x2B1CA, offset: 0x2B1CA, size: 0x8, addend: 0x0, symName: __ZNSt15__allocated_ptrISaISt23_Sp_counted_ptr_inplaceI5GluonSaIS1_ELN9__gnu_cxx12_Lock_policyE2EEEEC1ERS6_PS5_, symObjAddr: 0xEF18, symBinAddr: 0x1000124A8, symSize: 0x40 }
  - { offsetInCU: 0x2B291, offset: 0x2B291, size: 0x8, addend: 0x0, symName: __ZN9__gnu_cxx13new_allocatorISt23_Sp_counted_ptr_inplaceI5GluonSaIS2_ELNS_12_Lock_policyE2EEED2Ev, symObjAddr: 0xEEDC, symBinAddr: 0x10001246C, symSize: 0x14 }
  - { offsetInCU: 0x2B299, offset: 0x2B299, size: 0x8, addend: 0x0, symName: __ZNSt16allocator_traitsISaISt23_Sp_counted_ptr_inplaceI5GluonSaIS1_ELN9__gnu_cxx12_Lock_policyE2EEEE8allocateERS6_m, symObjAddr: 0xEEF0, symBinAddr: 0x100012480, symSize: 0x28 }
  - { offsetInCU: 0x2B2D8, offset: 0x2B2D8, size: 0x8, addend: 0x0, symName: __ZN9__gnu_cxx13new_allocatorISt23_Sp_counted_ptr_inplaceI5GluonSaIS2_ELNS_12_Lock_policyE2EEEC2Ev, symObjAddr: 0xEEC8, symBinAddr: 0x100012458, symSize: 0x14 }
  - { offsetInCU: 0x2B2E0, offset: 0x2B2E0, size: 0x8, addend: 0x0, symName: __ZN9__gnu_cxx13new_allocatorISt23_Sp_counted_ptr_inplaceI5GluonSaIS2_ELNS_12_Lock_policyE2EEED2Ev, symObjAddr: 0xEEDC, symBinAddr: 0x10001246C, symSize: 0x14 }
  - { offsetInCU: 0x2B2A4, offset: 0x2B2A4, size: 0x8, addend: 0x0, symName: __ZNSt16allocator_traitsISaI8NeutrinoEE9constructIS0_Jddddb14Lepton_flavourbEEEvRS1_PT_DpOT0_, symObjAddr: 0xEDFC, symBinAddr: 0x10001238C, symSize: 0xCC }
  - { offsetInCU: 0x2B2AC, offset: 0x2B2AC, size: 0x8, addend: 0x0, symName: __ZN9__gnu_cxx13new_allocatorISt23_Sp_counted_ptr_inplaceI5GluonSaIS2_ELNS_12_Lock_policyE2EEEC2Ev, symObjAddr: 0xEEC8, symBinAddr: 0x100012458, symSize: 0x14 }
  - { offsetInCU: 0x2B397, offset: 0x2B397, size: 0x8, addend: 0x0, symName: __ZNSt16allocator_traitsISaI3TauEE9constructIS0_JdiiibEEEvRS1_PT_DpOT0_, symObjAddr: 0xED64, symBinAddr: 0x1000122F4, symSize: 0x98 }
  - { offsetInCU: 0x2B39F, offset: 0x2B39F, size: 0x8, addend: 0x0, symName: __ZNSt16allocator_traitsISaI8NeutrinoEE9constructIS0_Jddddb14Lepton_flavourbEEEvRS1_PT_DpOT0_, symObjAddr: 0xEDFC, symBinAddr: 0x10001238C, symSize: 0xCC }
  - { offsetInCU: 0x2B460, offset: 0x2B460, size: 0x8, addend: 0x0, symName: __ZNSt16allocator_traitsISaI5QuarkEE9constructIS0_Jdiiib13Quark_flavour11Colour_listEEEvRS1_PT_DpOT0_, symObjAddr: 0xEC98, symBinAddr: 0x100012228, symSize: 0xCC }
  - { offsetInCU: 0x2B468, offset: 0x2B468, size: 0x8, addend: 0x0, symName: __ZNSt16allocator_traitsISaI3TauEE9constructIS0_JdiiibEEEvRS1_PT_DpOT0_, symObjAddr: 0xED64, symBinAddr: 0x1000122F4, symSize: 0x98 }
  - { offsetInCU: 0x2B553, offset: 0x2B553, size: 0x8, addend: 0x0, symName: __ZN9__gnu_cxx16__aligned_bufferI4MuonE6_M_ptrEv, symObjAddr: 0xEC7C, symBinAddr: 0x10001220C, symSize: 0x1C }
  - { offsetInCU: 0x2B55B, offset: 0x2B55B, size: 0x8, addend: 0x0, symName: __ZNSt16allocator_traitsISaI5QuarkEE9constructIS0_Jdiiib13Quark_flavour11Colour_listEEEvRS1_PT_DpOT0_, symObjAddr: 0xEC98, symBinAddr: 0x100012228, symSize: 0xCC }
  - { offsetInCU: 0x2B582, offset: 0x2B582, size: 0x8, addend: 0x0, symName: __ZNSt16allocator_traitsISaI4MuonEE9constructIS0_JddddbbEEEvRS1_PT_DpOT0_, symObjAddr: 0xEBC8, symBinAddr: 0x100012158, symSize: 0xB4 }
  - { offsetInCU: 0x2B58A, offset: 0x2B58A, size: 0x8, addend: 0x0, symName: __ZN9__gnu_cxx16__aligned_bufferI4MuonE6_M_ptrEv, symObjAddr: 0xEC7C, symBinAddr: 0x10001220C, symSize: 0x1C }
  - { offsetInCU: 0x2B6E0, offset: 0x2B6E0, size: 0x8, addend: 0x0, symName: __ZNSt23_Sp_counted_ptr_inplaceI4MuonSaIS0_ELN9__gnu_cxx12_Lock_policyE2EE5_ImplC1ES1_, symObjAddr: 0xEBA0, symBinAddr: 0x100012130, symSize: 0x28 }
  - { offsetInCU: 0x2B6E8, offset: 0x2B6E8, size: 0x8, addend: 0x0, symName: __ZNSt16allocator_traitsISaI4MuonEE9constructIS0_JddddbbEEEvRS1_PT_DpOT0_, symObjAddr: 0xEBC8, symBinAddr: 0x100012158, symSize: 0xB4 }
  - { offsetInCU: 0x2B713, offset: 0x2B713, size: 0x8, addend: 0x0, symName: __ZN9__gnu_cxx13new_allocatorI4MuonEC2ERKS2_, symObjAddr: 0xEB88, symBinAddr: 0x100012118, symSize: 0x18 }
  - { offsetInCU: 0x2B71B, offset: 0x2B71B, size: 0x8, addend: 0x0, symName: __ZNSt23_Sp_counted_ptr_inplaceI4MuonSaIS0_ELN9__gnu_cxx12_Lock_policyE2EE5_ImplC1ES1_, symObjAddr: 0xEBA0, symBinAddr: 0x100012130, symSize: 0x28 }
  - { offsetInCU: 0x2B7EA, offset: 0x2B7EA, size: 0x8, addend: 0x0, symName: __ZSt12__to_addressISt23_Sp_counted_ptr_inplaceI4MuonSaIS1_ELN9__gnu_cxx12_Lock_policyE2EEEPT_S7_, symObjAddr: 0xEB74, symBinAddr: 0x100012104, symSize: 0x14 }
  - { offsetInCU: 0x2B7F2, offset: 0x2B7F2, size: 0x8, addend: 0x0, symName: __ZN9__gnu_cxx13new_allocatorI4MuonEC2ERKS2_, symObjAddr: 0xEB88, symBinAddr: 0x100012118, symSize: 0x18 }
  - { offsetInCU: 0x2B76C, offset: 0x2B76C, size: 0x8, addend: 0x0, symName: __ZNSt16allocator_traitsISaISt23_Sp_counted_ptr_inplaceI4MuonSaIS1_ELN9__gnu_cxx12_Lock_policyE2EEEE10deallocateERS6_PS5_m, symObjAddr: 0xEB44, symBinAddr: 0x1000120D4, symSize: 0x30 }
  - { offsetInCU: 0x2B774, offset: 0x2B774, size: 0x8, addend: 0x0, symName: __ZSt12__to_addressISt23_Sp_counted_ptr_inplaceI4MuonSaIS1_ELN9__gnu_cxx12_Lock_policyE2EEEPT_S7_, symObjAddr: 0xEB74, symBinAddr: 0x100012104, symSize: 0x14 }
  - { offsetInCU: 0x2B86F, offset: 0x2B86F, size: 0x8, addend: 0x0, symName: __ZNSt15__allocated_ptrISaISt23_Sp_counted_ptr_inplaceI4MuonSaIS1_ELN9__gnu_cxx12_Lock_policyE2EEEEC1ERS6_PS5_, symObjAddr: 0xEB04, symBinAddr: 0x100012094, symSize: 0x40 }
  - { offsetInCU: 0x2B877, offset: 0x2B877, size: 0x8, addend: 0x0, symName: __ZNSt16allocator_traitsISaISt23_Sp_counted_ptr_inplaceI4MuonSaIS1_ELN9__gnu_cxx12_Lock_policyE2EEEE10deallocateERS6_PS5_m, symObjAddr: 0xEB44, symBinAddr: 0x1000120D4, symSize: 0x30 }
  - { offsetInCU: 0x2B847, offset: 0x2B847, size: 0x8, addend: 0x0, symName: __ZNSt16allocator_traitsISaISt23_Sp_counted_ptr_inplaceI4MuonSaIS1_ELN9__gnu_cxx12_Lock_policyE2EEEE8allocateERS6_m, symObjAddr: 0xEADC, symBinAddr: 0x10001206C, symSize: 0x28 }
  - { offsetInCU: 0x2B84F, offset: 0x2B84F, size: 0x8, addend: 0x0, symName: __ZNSt15__allocated_ptrISaISt23_Sp_counted_ptr_inplaceI4MuonSaIS1_ELN9__gnu_cxx12_Lock_policyE2EEEEC1ERS6_PS5_, symObjAddr: 0xEB04, symBinAddr: 0x100012094, symSize: 0x40 }
  - { offsetInCU: 0x2B915, offset: 0x2B915, size: 0x8, addend: 0x0, symName: __ZN9__gnu_cxx13new_allocatorISt23_Sp_counted_ptr_inplaceI4MuonSaIS2_ELNS_12_Lock_policyE2EEED2Ev, symObjAddr: 0xEAC8, symBinAddr: 0x100012058, symSize: 0x14 }
  - { offsetInCU: 0x2B91D, offset: 0x2B91D, size: 0x8, addend: 0x0, symName: __ZNSt16allocator_traitsISaISt23_Sp_counted_ptr_inplaceI4MuonSaIS1_ELN9__gnu_cxx12_Lock_policyE2EEEE8allocateERS6_m, symObjAddr: 0xEADC, symBinAddr: 0x10001206C, symSize: 0x28 }
  - { offsetInCU: 0x2B95C, offset: 0x2B95C, size: 0x8, addend: 0x0, symName: __ZN9__gnu_cxx13new_allocatorISt23_Sp_counted_ptr_inplaceI4MuonSaIS2_ELNS_12_Lock_policyE2EEEC2Ev, symObjAddr: 0xEAB4, symBinAddr: 0x100012044, symSize: 0x14 }
  - { offsetInCU: 0x2B964, offset: 0x2B964, size: 0x8, addend: 0x0, symName: __ZN9__gnu_cxx13new_allocatorISt23_Sp_counted_ptr_inplaceI4MuonSaIS2_ELNS_12_Lock_policyE2EEED2Ev, symObjAddr: 0xEAC8, symBinAddr: 0x100012058, symSize: 0x14 }
  - { offsetInCU: 0x2B929, offset: 0x2B929, size: 0x8, addend: 0x0, symName: __ZNSt16allocator_traitsISaI8ElectronEE9constructIS0_JddddbEEEvRS1_PT_DpOT0_, symObjAddr: 0xEA1C, symBinAddr: 0x100011FAC, symSize: 0x98 }
  - { offsetInCU: 0x2B931, offset: 0x2B931, size: 0x8, addend: 0x0, symName: __ZN9__gnu_cxx13new_allocatorISt23_Sp_counted_ptr_inplaceI4MuonSaIS2_ELNS_12_Lock_policyE2EEEC2Ev, symObjAddr: 0xEAB4, symBinAddr: 0x100012044, symSize: 0x14 }
  - { offsetInCU: 0x2B9F2, offset: 0x2B9F2, size: 0x8, addend: 0x0, symName: __ZNSt16allocator_traitsISaI5QuarkEE9constructIS0_Jddddb13Quark_flavour11Colour_listEEEvRS1_PT_DpOT0_, symObjAddr: 0xE950, symBinAddr: 0x100011EE0, symSize: 0xCC }
  - { offsetInCU: 0x2B9FA, offset: 0x2B9FA, size: 0x8, addend: 0x0, symName: __ZNSt16allocator_traitsISaI8ElectronEE9constructIS0_JddddbEEEvRS1_PT_DpOT0_, symObjAddr: 0xEA1C, symBinAddr: 0x100011FAC, symSize: 0x98 }
  - { offsetInCU: 0x2BAE5, offset: 0x2BAE5, size: 0x8, addend: 0x0, symName: __ZN9__gnu_cxx16__aligned_bufferI8NeutrinoE6_M_ptrEv, symObjAddr: 0xE934, symBinAddr: 0x100011EC4, symSize: 0x1C }
  - { offsetInCU: 0x2BAED, offset: 0x2BAED, size: 0x8, addend: 0x0, symName: __ZNSt16allocator_traitsISaI5QuarkEE9constructIS0_Jddddb13Quark_flavour11Colour_listEEEvRS1_PT_DpOT0_, symObjAddr: 0xE950, symBinAddr: 0x100011EE0, symSize: 0xCC }
  - { offsetInCU: 0x2BB14, offset: 0x2BB14, size: 0x8, addend: 0x0, symName: __ZNSt16allocator_traitsISaI8NeutrinoEE9constructIS0_Jdiiib14Lepton_flavourbEEEvRS1_PT_DpOT0_, symObjAddr: 0xE868, symBinAddr: 0x100011DF8, symSize: 0xCC }
  - { offsetInCU: 0x2BB1C, offset: 0x2BB1C, size: 0x8, addend: 0x0, symName: __ZN9__gnu_cxx16__aligned_bufferI8NeutrinoE6_M_ptrEv, symObjAddr: 0xE934, symBinAddr: 0x100011EC4, symSize: 0x1C }
  - { offsetInCU: 0x2BC8B, offset: 0x2BC8B, size: 0x8, addend: 0x0, symName: __ZNSt23_Sp_counted_ptr_inplaceI8NeutrinoSaIS0_ELN9__gnu_cxx12_Lock_policyE2EE5_ImplC1ES1_, symObjAddr: 0xE840, symBinAddr: 0x100011DD0, symSize: 0x28 }
  - { offsetInCU: 0x2BC93, offset: 0x2BC93, size: 0x8, addend: 0x0, symName: __ZNSt16allocator_traitsISaI8NeutrinoEE9constructIS0_Jdiiib14Lepton_flavourbEEEvRS1_PT_DpOT0_, symObjAddr: 0xE868, symBinAddr: 0x100011DF8, symSize: 0xCC }
  - { offsetInCU: 0x2BCBE, offset: 0x2BCBE, size: 0x8, addend: 0x0, symName: __ZN9__gnu_cxx13new_allocatorI8NeutrinoEC2ERKS2_, symObjAddr: 0xE828, symBinAddr: 0x100011DB8, symSize: 0x18 }
  - { offsetInCU: 0x2BCC6, offset: 0x2BCC6, size: 0x8, addend: 0x0, symName: __ZNSt23_Sp_counted_ptr_inplaceI8NeutrinoSaIS0_ELN9__gnu_cxx12_Lock_policyE2EE5_ImplC1ES1_, symObjAddr: 0xE840, symBinAddr: 0x100011DD0, symSize: 0x28 }
  - { offsetInCU: 0x2BD9D, offset: 0x2BD9D, size: 0x8, addend: 0x0, symName: __ZSt12__to_addressISt23_Sp_counted_ptr_inplaceI8NeutrinoSaIS1_ELN9__gnu_cxx12_Lock_policyE2EEEPT_S7_, symObjAddr: 0xE814, symBinAddr: 0x100011DA4, symSize: 0x14 }
  - { offsetInCU: 0x2BDA5, offset: 0x2BDA5, size: 0x8, addend: 0x0, symName: __ZN9__gnu_cxx13new_allocatorI8NeutrinoEC2ERKS2_, symObjAddr: 0xE828, symBinAddr: 0x100011DB8, symSize: 0x18 }
  - { offsetInCU: 0x2BD13, offset: 0x2BD13, size: 0x8, addend: 0x0, symName: __ZNSt16allocator_traitsISaISt23_Sp_counted_ptr_inplaceI8NeutrinoSaIS1_ELN9__gnu_cxx12_Lock_policyE2EEEE10deallocateERS6_PS5_m, symObjAddr: 0xE7E4, symBinAddr: 0x100011D74, symSize: 0x30 }
  - { offsetInCU: 0x2BD1B, offset: 0x2BD1B, size: 0x8, addend: 0x0, symName: __ZSt12__to_addressISt23_Sp_counted_ptr_inplaceI8NeutrinoSaIS1_ELN9__gnu_cxx12_Lock_policyE2EEEPT_S7_, symObjAddr: 0xE814, symBinAddr: 0x100011DA4, symSize: 0x14 }
  - { offsetInCU: 0x2BE1A, offset: 0x2BE1A, size: 0x8, addend: 0x0, symName: __ZNSt15__allocated_ptrISaISt23_Sp_counted_ptr_inplaceI8NeutrinoSaIS1_ELN9__gnu_cxx12_Lock_policyE2EEEEC1ERS6_PS5_, symObjAddr: 0xE7A4, symBinAddr: 0x100011D34, symSize: 0x40 }
  - { offsetInCU: 0x2BE22, offset: 0x2BE22, size: 0x8, addend: 0x0, symName: __ZNSt16allocator_traitsISaISt23_Sp_counted_ptr_inplaceI8NeutrinoSaIS1_ELN9__gnu_cxx12_Lock_policyE2EEEE10deallocateERS6_PS5_m, symObjAddr: 0xE7E4, symBinAddr: 0x100011D74, symSize: 0x30 }
  - { offsetInCU: 0x2BDEE, offset: 0x2BDEE, size: 0x8, addend: 0x0, symName: __ZNSt16allocator_traitsISaISt23_Sp_counted_ptr_inplaceI8NeutrinoSaIS1_ELN9__gnu_cxx12_Lock_policyE2EEEE8allocateERS6_m, symObjAddr: 0xE77C, symBinAddr: 0x100011D0C, symSize: 0x28 }
  - { offsetInCU: 0x2BDF6, offset: 0x2BDF6, size: 0x8, addend: 0x0, symName: __ZNSt15__allocated_ptrISaISt23_Sp_counted_ptr_inplaceI8NeutrinoSaIS1_ELN9__gnu_cxx12_Lock_policyE2EEEEC1ERS6_PS5_, symObjAddr: 0xE7A4, symBinAddr: 0x100011D34, symSize: 0x40 }
  - { offsetInCU: 0x2BEC0, offset: 0x2BEC0, size: 0x8, addend: 0x0, symName: __ZN9__gnu_cxx13new_allocatorISt23_Sp_counted_ptr_inplaceI8NeutrinoSaIS2_ELNS_12_Lock_policyE2EEED2Ev, symObjAddr: 0xE768, symBinAddr: 0x100011CF8, symSize: 0x14 }
  - { offsetInCU: 0x2BEC8, offset: 0x2BEC8, size: 0x8, addend: 0x0, symName: __ZNSt16allocator_traitsISaISt23_Sp_counted_ptr_inplaceI8NeutrinoSaIS1_ELN9__gnu_cxx12_Lock_policyE2EEEE8allocateERS6_m, symObjAddr: 0xE77C, symBinAddr: 0x100011D0C, symSize: 0x28 }
  - { offsetInCU: 0x2BF07, offset: 0x2BF07, size: 0x8, addend: 0x0, symName: __ZN9__gnu_cxx13new_allocatorISt23_Sp_counted_ptr_inplaceI8NeutrinoSaIS2_ELNS_12_Lock_policyE2EEEC2Ev, symObjAddr: 0xE754, symBinAddr: 0x100011CE4, symSize: 0x14 }
  - { offsetInCU: 0x2BF0F, offset: 0x2BF0F, size: 0x8, addend: 0x0, symName: __ZN9__gnu_cxx13new_allocatorISt23_Sp_counted_ptr_inplaceI8NeutrinoSaIS2_ELNS_12_Lock_policyE2EEED2Ev, symObjAddr: 0xE768, symBinAddr: 0x100011CF8, symSize: 0x14 }
  - { offsetInCU: 0x2BED0, offset: 0x2BED0, size: 0x8, addend: 0x0, symName: __ZN9__gnu_cxx16__aligned_bufferI8ElectronE6_M_ptrEv, symObjAddr: 0xE738, symBinAddr: 0x100011CC8, symSize: 0x1C }
  - { offsetInCU: 0x2BED8, offset: 0x2BED8, size: 0x8, addend: 0x0, symName: __ZN9__gnu_cxx13new_allocatorISt23_Sp_counted_ptr_inplaceI8NeutrinoSaIS2_ELNS_12_Lock_policyE2EEEC2Ev, symObjAddr: 0xE754, symBinAddr: 0x100011CE4, symSize: 0x14 }
  - { offsetInCU: 0x2BEFF, offset: 0x2BEFF, size: 0x8, addend: 0x0, symName: __ZNSt16allocator_traitsISaI8ElectronEE9constructIS0_JdiiibEEEvRS1_PT_DpOT0_, symObjAddr: 0xE6A0, symBinAddr: 0x100011C30, symSize: 0x98 }
  - { offsetInCU: 0x2BF07, offset: 0x2BF07, size: 0x8, addend: 0x0, symName: __ZN9__gnu_cxx16__aligned_bufferI8ElectronE6_M_ptrEv, symObjAddr: 0xE738, symBinAddr: 0x100011CC8, symSize: 0x1C }
  - { offsetInCU: 0x2C04C, offset: 0x2C04C, size: 0x8, addend: 0x0, symName: __ZNSt23_Sp_counted_ptr_inplaceI8ElectronSaIS0_ELN9__gnu_cxx12_Lock_policyE2EE5_ImplC1ES1_, symObjAddr: 0xE678, symBinAddr: 0x100011C08, symSize: 0x28 }
  - { offsetInCU: 0x2C054, offset: 0x2C054, size: 0x8, addend: 0x0, symName: __ZNSt16allocator_traitsISaI8ElectronEE9constructIS0_JdiiibEEEvRS1_PT_DpOT0_, symObjAddr: 0xE6A0, symBinAddr: 0x100011C30, symSize: 0x98 }
  - { offsetInCU: 0x2C07F, offset: 0x2C07F, size: 0x8, addend: 0x0, symName: __ZN9__gnu_cxx13new_allocatorI8ElectronEC2ERKS2_, symObjAddr: 0xE660, symBinAddr: 0x100011BF0, symSize: 0x18 }
  - { offsetInCU: 0x2C087, offset: 0x2C087, size: 0x8, addend: 0x0, symName: __ZNSt23_Sp_counted_ptr_inplaceI8ElectronSaIS0_ELN9__gnu_cxx12_Lock_policyE2EE5_ImplC1ES1_, symObjAddr: 0xE678, symBinAddr: 0x100011C08, symSize: 0x28 }
  - { offsetInCU: 0x2C15E, offset: 0x2C15E, size: 0x8, addend: 0x0, symName: __ZSt12__to_addressISt23_Sp_counted_ptr_inplaceI8ElectronSaIS1_ELN9__gnu_cxx12_Lock_policyE2EEEPT_S7_, symObjAddr: 0xE64C, symBinAddr: 0x100011BDC, symSize: 0x14 }
  - { offsetInCU: 0x2C166, offset: 0x2C166, size: 0x8, addend: 0x0, symName: __ZN9__gnu_cxx13new_allocatorI8ElectronEC2ERKS2_, symObjAddr: 0xE660, symBinAddr: 0x100011BF0, symSize: 0x18 }
  - { offsetInCU: 0x2C0D4, offset: 0x2C0D4, size: 0x8, addend: 0x0, symName: __ZNSt16allocator_traitsISaISt23_Sp_counted_ptr_inplaceI8ElectronSaIS1_ELN9__gnu_cxx12_Lock_policyE2EEEE10deallocateERS6_PS5_m, symObjAddr: 0xE61C, symBinAddr: 0x100011BAC, symSize: 0x30 }
  - { offsetInCU: 0x2C0DC, offset: 0x2C0DC, size: 0x8, addend: 0x0, symName: __ZSt12__to_addressISt23_Sp_counted_ptr_inplaceI8ElectronSaIS1_ELN9__gnu_cxx12_Lock_policyE2EEEPT_S7_, symObjAddr: 0xE64C, symBinAddr: 0x100011BDC, symSize: 0x14 }
  - { offsetInCU: 0x2C1DB, offset: 0x2C1DB, size: 0x8, addend: 0x0, symName: __ZNSt15__allocated_ptrISaISt23_Sp_counted_ptr_inplaceI8ElectronSaIS1_ELN9__gnu_cxx12_Lock_policyE2EEEEC1ERS6_PS5_, symObjAddr: 0xE5DC, symBinAddr: 0x100011B6C, symSize: 0x40 }
  - { offsetInCU: 0x2C1E3, offset: 0x2C1E3, size: 0x8, addend: 0x0, symName: __ZNSt16allocator_traitsISaISt23_Sp_counted_ptr_inplaceI8ElectronSaIS1_ELN9__gnu_cxx12_Lock_policyE2EEEE10deallocateERS6_PS5_m, symObjAddr: 0xE61C, symBinAddr: 0x100011BAC, symSize: 0x30 }
  - { offsetInCU: 0x2C1AF, offset: 0x2C1AF, size: 0x8, addend: 0x0, symName: __ZNSt16allocator_traitsISaISt23_Sp_counted_ptr_inplaceI8ElectronSaIS1_ELN9__gnu_cxx12_Lock_policyE2EEEE8allocateERS6_m, symObjAddr: 0xE5B4, symBinAddr: 0x100011B44, symSize: 0x28 }
  - { offsetInCU: 0x2C1B7, offset: 0x2C1B7, size: 0x8, addend: 0x0, symName: __ZNSt15__allocated_ptrISaISt23_Sp_counted_ptr_inplaceI8ElectronSaIS1_ELN9__gnu_cxx12_Lock_policyE2EEEEC1ERS6_PS5_, symObjAddr: 0xE5DC, symBinAddr: 0x100011B6C, symSize: 0x40 }
  - { offsetInCU: 0x2C281, offset: 0x2C281, size: 0x8, addend: 0x0, symName: __ZN9__gnu_cxx13new_allocatorISt23_Sp_counted_ptr_inplaceI8ElectronSaIS2_ELNS_12_Lock_policyE2EEED2Ev, symObjAddr: 0xE5A0, symBinAddr: 0x100011B30, symSize: 0x14 }
  - { offsetInCU: 0x2C289, offset: 0x2C289, size: 0x8, addend: 0x0, symName: __ZNSt16allocator_traitsISaISt23_Sp_counted_ptr_inplaceI8ElectronSaIS1_ELN9__gnu_cxx12_Lock_policyE2EEEE8allocateERS6_m, symObjAddr: 0xE5B4, symBinAddr: 0x100011B44, symSize: 0x28 }
  - { offsetInCU: 0x2C2C8, offset: 0x2C2C8, size: 0x8, addend: 0x0, symName: __ZN9__gnu_cxx13new_allocatorISt23_Sp_counted_ptr_inplaceI8ElectronSaIS2_ELNS_12_Lock_policyE2EEEC2Ev, symObjAddr: 0xE58C, symBinAddr: 0x100011B1C, symSize: 0x14 }
  - { offsetInCU: 0x2C2D0, offset: 0x2C2D0, size: 0x8, addend: 0x0, symName: __ZN9__gnu_cxx13new_allocatorISt23_Sp_counted_ptr_inplaceI8ElectronSaIS2_ELNS_12_Lock_policyE2EEED2Ev, symObjAddr: 0xE5A0, symBinAddr: 0x100011B30, symSize: 0x14 }
  - { offsetInCU: 0x2C291, offset: 0x2C291, size: 0x8, addend: 0x0, symName: __ZN9__gnu_cxx16__aligned_bufferI3TauE6_M_ptrEv, symObjAddr: 0xE570, symBinAddr: 0x100011B00, symSize: 0x1C }
  - { offsetInCU: 0x2C299, offset: 0x2C299, size: 0x8, addend: 0x0, symName: __ZN9__gnu_cxx13new_allocatorISt23_Sp_counted_ptr_inplaceI8ElectronSaIS2_ELNS_12_Lock_policyE2EEEC2Ev, symObjAddr: 0xE58C, symBinAddr: 0x100011B1C, symSize: 0x14 }
  - { offsetInCU: 0x2C2C0, offset: 0x2C2C0, size: 0x8, addend: 0x0, symName: __ZNSt16allocator_traitsISaI3TauEE9constructIS0_JddddbEEEvRS1_PT_DpOT0_, symObjAddr: 0xE4D8, symBinAddr: 0x100011A68, symSize: 0x98 }
  - { offsetInCU: 0x2C2C8, offset: 0x2C2C8, size: 0x8, addend: 0x0, symName: __ZN9__gnu_cxx16__aligned_bufferI3TauE6_M_ptrEv, symObjAddr: 0xE570, symBinAddr: 0x100011B00, symSize: 0x1C }
  - { offsetInCU: 0x2C408, offset: 0x2C408, size: 0x8, addend: 0x0, symName: __ZNSt23_Sp_counted_ptr_inplaceI3TauSaIS0_ELN9__gnu_cxx12_Lock_policyE2EE5_ImplC1ES1_, symObjAddr: 0xE4B0, symBinAddr: 0x100011A40, symSize: 0x28 }
  - { offsetInCU: 0x2C410, offset: 0x2C410, size: 0x8, addend: 0x0, symName: __ZNSt16allocator_traitsISaI3TauEE9constructIS0_JddddbEEEvRS1_PT_DpOT0_, symObjAddr: 0xE4D8, symBinAddr: 0x100011A68, symSize: 0x98 }
  - { offsetInCU: 0x2C43B, offset: 0x2C43B, size: 0x8, addend: 0x0, symName: __ZN9__gnu_cxx13new_allocatorI3TauEC2ERKS2_, symObjAddr: 0xE498, symBinAddr: 0x100011A28, symSize: 0x18 }
  - { offsetInCU: 0x2C443, offset: 0x2C443, size: 0x8, addend: 0x0, symName: __ZNSt23_Sp_counted_ptr_inplaceI3TauSaIS0_ELN9__gnu_cxx12_Lock_policyE2EE5_ImplC1ES1_, symObjAddr: 0xE4B0, symBinAddr: 0x100011A40, symSize: 0x28 }
  - { offsetInCU: 0x2C510, offset: 0x2C510, size: 0x8, addend: 0x0, symName: __ZSt12__to_addressISt23_Sp_counted_ptr_inplaceI3TauSaIS1_ELN9__gnu_cxx12_Lock_policyE2EEEPT_S7_, symObjAddr: 0xE484, symBinAddr: 0x100011A14, symSize: 0x14 }
  - { offsetInCU: 0x2C518, offset: 0x2C518, size: 0x8, addend: 0x0, symName: __ZN9__gnu_cxx13new_allocatorI3TauEC2ERKS2_, symObjAddr: 0xE498, symBinAddr: 0x100011A28, symSize: 0x18 }
  - { offsetInCU: 0x2C495, offset: 0x2C495, size: 0x8, addend: 0x0, symName: __ZNSt16allocator_traitsISaISt23_Sp_counted_ptr_inplaceI3TauSaIS1_ELN9__gnu_cxx12_Lock_policyE2EEEE10deallocateERS6_PS5_m, symObjAddr: 0xE454, symBinAddr: 0x1000119E4, symSize: 0x30 }
  - { offsetInCU: 0x2C49D, offset: 0x2C49D, size: 0x8, addend: 0x0, symName: __ZSt12__to_addressISt23_Sp_counted_ptr_inplaceI3TauSaIS1_ELN9__gnu_cxx12_Lock_policyE2EEEPT_S7_, symObjAddr: 0xE484, symBinAddr: 0x100011A14, symSize: 0x14 }
  - { offsetInCU: 0x2C597, offset: 0x2C597, size: 0x8, addend: 0x0, symName: __ZNSt15__allocated_ptrISaISt23_Sp_counted_ptr_inplaceI3TauSaIS1_ELN9__gnu_cxx12_Lock_policyE2EEEEC1ERS6_PS5_, symObjAddr: 0xE414, symBinAddr: 0x1000119A4, symSize: 0x40 }
  - { offsetInCU: 0x2C59F, offset: 0x2C59F, size: 0x8, addend: 0x0, symName: __ZNSt16allocator_traitsISaISt23_Sp_counted_ptr_inplaceI3TauSaIS1_ELN9__gnu_cxx12_Lock_policyE2EEEE10deallocateERS6_PS5_m, symObjAddr: 0xE454, symBinAddr: 0x1000119E4, symSize: 0x30 }
  - { offsetInCU: 0x2C570, offset: 0x2C570, size: 0x8, addend: 0x0, symName: __ZNSt16allocator_traitsISaISt23_Sp_counted_ptr_inplaceI3TauSaIS1_ELN9__gnu_cxx12_Lock_policyE2EEEE8allocateERS6_m, symObjAddr: 0xE3EC, symBinAddr: 0x10001197C, symSize: 0x28 }
  - { offsetInCU: 0x2C578, offset: 0x2C578, size: 0x8, addend: 0x0, symName: __ZNSt15__allocated_ptrISaISt23_Sp_counted_ptr_inplaceI3TauSaIS1_ELN9__gnu_cxx12_Lock_policyE2EEEEC1ERS6_PS5_, symObjAddr: 0xE414, symBinAddr: 0x1000119A4, symSize: 0x40 }
  - { offsetInCU: 0x2C63D, offset: 0x2C63D, size: 0x8, addend: 0x0, symName: __ZN9__gnu_cxx13new_allocatorISt23_Sp_counted_ptr_inplaceI3TauSaIS2_ELNS_12_Lock_policyE2EEED2Ev, symObjAddr: 0xE3D8, symBinAddr: 0x100011968, symSize: 0x14 }
  - { offsetInCU: 0x2C645, offset: 0x2C645, size: 0x8, addend: 0x0, symName: __ZNSt16allocator_traitsISaISt23_Sp_counted_ptr_inplaceI3TauSaIS1_ELN9__gnu_cxx12_Lock_policyE2EEEE8allocateERS6_m, symObjAddr: 0xE3EC, symBinAddr: 0x10001197C, symSize: 0x28 }
  - { offsetInCU: 0x2C684, offset: 0x2C684, size: 0x8, addend: 0x0, symName: __ZN9__gnu_cxx13new_allocatorISt23_Sp_counted_ptr_inplaceI3TauSaIS2_ELNS_12_Lock_policyE2EEEC2Ev, symObjAddr: 0xE3C4, symBinAddr: 0x100011954, symSize: 0x14 }
  - { offsetInCU: 0x2C68C, offset: 0x2C68C, size: 0x8, addend: 0x0, symName: __ZN9__gnu_cxx13new_allocatorISt23_Sp_counted_ptr_inplaceI3TauSaIS2_ELNS_12_Lock_policyE2EEED2Ev, symObjAddr: 0xE3D8, symBinAddr: 0x100011968, symSize: 0x14 }
  - { offsetInCU: 0x2C652, offset: 0x2C652, size: 0x8, addend: 0x0, symName: __ZN9__gnu_cxx16__aligned_bufferI5QuarkE6_M_ptrEv, symObjAddr: 0xE3A8, symBinAddr: 0x100011938, symSize: 0x1C }
  - { offsetInCU: 0x2C65A, offset: 0x2C65A, size: 0x8, addend: 0x0, symName: __ZN9__gnu_cxx13new_allocatorISt23_Sp_counted_ptr_inplaceI3TauSaIS2_ELNS_12_Lock_policyE2EEEC2Ev, symObjAddr: 0xE3C4, symBinAddr: 0x100011954, symSize: 0x14 }
  - { offsetInCU: 0x2C681, offset: 0x2C681, size: 0x8, addend: 0x0, symName: __ZNSt16allocator_traitsISaI5QuarkEE9constructIS0_Jiiiib13Quark_flavour11Colour_listEEEvRS1_PT_DpOT0_, symObjAddr: 0xE2DC, symBinAddr: 0x10001186C, symSize: 0xCC }
  - { offsetInCU: 0x2C689, offset: 0x2C689, size: 0x8, addend: 0x0, symName: __ZN9__gnu_cxx16__aligned_bufferI5QuarkE6_M_ptrEv, symObjAddr: 0xE3A8, symBinAddr: 0x100011938, symSize: 0x1C }
  - { offsetInCU: 0x2C7F5, offset: 0x2C7F5, size: 0x8, addend: 0x0, symName: __ZNSt23_Sp_counted_ptr_inplaceI5QuarkSaIS0_ELN9__gnu_cxx12_Lock_policyE2EE5_ImplC1ES1_, symObjAddr: 0xE2B4, symBinAddr: 0x100011844, symSize: 0x28 }
  - { offsetInCU: 0x2C7FD, offset: 0x2C7FD, size: 0x8, addend: 0x0, symName: __ZNSt16allocator_traitsISaI5QuarkEE9constructIS0_Jiiiib13Quark_flavour11Colour_listEEEvRS1_PT_DpOT0_, symObjAddr: 0xE2DC, symBinAddr: 0x10001186C, symSize: 0xCC }
  - { offsetInCU: 0x2C82D, offset: 0x2C82D, size: 0x8, addend: 0x0, symName: __ZNSt16_Sp_counted_baseILN9__gnu_cxx12_Lock_policyE2EEC2Ev, symObjAddr: 0xE274, symBinAddr: 0x100011804, symSize: 0x40 }
  - { offsetInCU: 0x2C835, offset: 0x2C835, size: 0x8, addend: 0x0, symName: __ZNSt23_Sp_counted_ptr_inplaceI5QuarkSaIS0_ELN9__gnu_cxx12_Lock_policyE2EE5_ImplC1ES1_, symObjAddr: 0xE2B4, symBinAddr: 0x100011844, symSize: 0x28 }
  - { offsetInCU: 0x2C86F, offset: 0x2C86F, size: 0x8, addend: 0x0, symName: __ZN9__gnu_cxx13new_allocatorI5QuarkEC2ERKS2_, symObjAddr: 0xE25C, symBinAddr: 0x1000117EC, symSize: 0x18 }
  - { offsetInCU: 0x2C877, offset: 0x2C877, size: 0x8, addend: 0x0, symName: __ZNSt16_Sp_counted_baseILN9__gnu_cxx12_Lock_policyE2EEC2Ev, symObjAddr: 0xE274, symBinAddr: 0x100011804, symSize: 0x40 }
  - { offsetInCU: 0x2C948, offset: 0x2C948, size: 0x8, addend: 0x0, symName: __ZSt12__to_addressISt23_Sp_counted_ptr_inplaceI5QuarkSaIS1_ELN9__gnu_cxx12_Lock_policyE2EEEPT_S7_, symObjAddr: 0xE248, symBinAddr: 0x1000117D8, symSize: 0x14 }
  - { offsetInCU: 0x2C950, offset: 0x2C950, size: 0x8, addend: 0x0, symName: __ZN9__gnu_cxx13new_allocatorI5QuarkEC2ERKS2_, symObjAddr: 0xE25C, symBinAddr: 0x1000117EC, symSize: 0x18 }
  - { offsetInCU: 0x2C8C7, offset: 0x2C8C7, size: 0x8, addend: 0x0, symName: __ZNSt16allocator_traitsISaISt23_Sp_counted_ptr_inplaceI5QuarkSaIS1_ELN9__gnu_cxx12_Lock_policyE2EEEE10deallocateERS6_PS5_m, symObjAddr: 0xE218, symBinAddr: 0x1000117A8, symSize: 0x30 }
  - { offsetInCU: 0x2C8CF, offset: 0x2C8CF, size: 0x8, addend: 0x0, symName: __ZSt12__to_addressISt23_Sp_counted_ptr_inplaceI5QuarkSaIS1_ELN9__gnu_cxx12_Lock_policyE2EEEPT_S7_, symObjAddr: 0xE248, symBinAddr: 0x1000117D8, symSize: 0x14 }
  - { offsetInCU: 0x2C9CB, offset: 0x2C9CB, size: 0x8, addend: 0x0, symName: __ZNSt15__allocated_ptrISaISt23_Sp_counted_ptr_inplaceI5QuarkSaIS1_ELN9__gnu_cxx12_Lock_policyE2EEEEC1ERS6_PS5_, symObjAddr: 0xE1D8, symBinAddr: 0x100011768, symSize: 0x40 }
  - { offsetInCU: 0x2C9D3, offset: 0x2C9D3, size: 0x8, addend: 0x0, symName: __ZNSt16allocator_traitsISaISt23_Sp_counted_ptr_inplaceI5QuarkSaIS1_ELN9__gnu_cxx12_Lock_policyE2EEEE10deallocateERS6_PS5_m, symObjAddr: 0xE218, symBinAddr: 0x1000117A8, symSize: 0x30 }
  - { offsetInCU: 0x2C9A2, offset: 0x2C9A2, size: 0x8, addend: 0x0, symName: __ZNSt16allocator_traitsISaISt23_Sp_counted_ptr_inplaceI5QuarkSaIS1_ELN9__gnu_cxx12_Lock_policyE2EEEE8allocateERS6_m, symObjAddr: 0xE1B0, symBinAddr: 0x100011740, symSize: 0x28 }
  - { offsetInCU: 0x2C9AA, offset: 0x2C9AA, size: 0x8, addend: 0x0, symName: __ZNSt15__allocated_ptrISaISt23_Sp_counted_ptr_inplaceI5QuarkSaIS1_ELN9__gnu_cxx12_Lock_policyE2EEEEC1ERS6_PS5_, symObjAddr: 0xE1D8, symBinAddr: 0x100011768, symSize: 0x40 }
  - { offsetInCU: 0x2CA71, offset: 0x2CA71, size: 0x8, addend: 0x0, symName: __ZN9__gnu_cxx13new_allocatorISt23_Sp_counted_ptr_inplaceI5QuarkSaIS2_ELNS_12_Lock_policyE2EEED2Ev, symObjAddr: 0xE19C, symBinAddr: 0x10001172C, symSize: 0x14 }
  - { offsetInCU: 0x2CA79, offset: 0x2CA79, size: 0x8, addend: 0x0, symName: __ZNSt16allocator_traitsISaISt23_Sp_counted_ptr_inplaceI5QuarkSaIS1_ELN9__gnu_cxx12_Lock_policyE2EEEE8allocateERS6_m, symObjAddr: 0xE1B0, symBinAddr: 0x100011740, symSize: 0x28 }
  - { offsetInCU: 0x2CAB8, offset: 0x2CAB8, size: 0x8, addend: 0x0, symName: __ZN9__gnu_cxx13new_allocatorISt23_Sp_counted_ptr_inplaceI5QuarkSaIS2_ELNS_12_Lock_policyE2EEEC2Ev, symObjAddr: 0xE188, symBinAddr: 0x100011718, symSize: 0x14 }
  - { offsetInCU: 0x2CAC0, offset: 0x2CAC0, size: 0x8, addend: 0x0, symName: __ZN9__gnu_cxx13new_allocatorISt23_Sp_counted_ptr_inplaceI5QuarkSaIS2_ELNS_12_Lock_policyE2EEED2Ev, symObjAddr: 0xE19C, symBinAddr: 0x10001172C, symSize: 0x14 }
  - { offsetInCU: 0x2CB48, offset: 0x2CB48, size: 0x8, addend: 0x0, symName: __ZSt19__relocate_object_aISt10shared_ptrI8ParticleES2_SaIS2_EEvPT_PT0_RT1_, symObjAddr: 0xE13C, symBinAddr: 0x1000116CC, symSize: 0x4C }
  - { offsetInCU: 0x2CB50, offset: 0x2CB50, size: 0x8, addend: 0x0, symName: __ZN9__gnu_cxx13new_allocatorISt23_Sp_counted_ptr_inplaceI5QuarkSaIS2_ELNS_12_Lock_policyE2EEEC2Ev, symObjAddr: 0xE188, symBinAddr: 0x100011718, symSize: 0x14 }
  - { offsetInCU: 0x2CB0B, offset: 0x2CB0B, size: 0x8, addend: 0x0, symName: __ZNK9__gnu_cxx13new_allocatorISt10shared_ptrI8ParticleEE8max_sizeEv, symObjAddr: 0xE120, symBinAddr: 0x1000116B0, symSize: 0x1C }
  - { offsetInCU: 0x2CB13, offset: 0x2CB13, size: 0x8, addend: 0x0, symName: __ZSt19__relocate_object_aISt10shared_ptrI8ParticleES2_SaIS2_EEvPT_PT0_RT1_, symObjAddr: 0xE13C, symBinAddr: 0x1000116CC, symSize: 0x4C }
  - { offsetInCU: 0x2CB3A, offset: 0x2CB3A, size: 0x8, addend: 0x0, symName: __ZNSt10_Head_baseILm0EP13Four_momentumLb0EE7_M_headERKS2_, symObjAddr: 0xE10C, symBinAddr: 0x10001169C, symSize: 0x14 }
  - { offsetInCU: 0x2CB42, offset: 0x2CB42, size: 0x8, addend: 0x0, symName: __ZNK9__gnu_cxx13new_allocatorISt10shared_ptrI8ParticleEE8max_sizeEv, symObjAddr: 0xE120, symBinAddr: 0x1000116B0, symSize: 0x1C }
  - { offsetInCU: 0x2CB6B, offset: 0x2CB6B, size: 0x8, addend: 0x0, symName: __ZN9__gnu_cxx13new_allocatorISt10_List_nodeISt10shared_ptrI8ElectronEEE9constructIS4_JRKS4_EEEvPT_DpOT0_, symObjAddr: 0xE0C0, symBinAddr: 0x100011650, symSize: 0x4C }
  - { offsetInCU: 0x2CB73, offset: 0x2CB73, size: 0x8, addend: 0x0, symName: __ZNSt10_Head_baseILm0EP13Four_momentumLb0EE7_M_headERKS2_, symObjAddr: 0xE10C, symBinAddr: 0x10001169C, symSize: 0x14 }
  - { offsetInCU: 0x2CC21, offset: 0x2CC21, size: 0x8, addend: 0x0, symName: __ZNSt10shared_ptrI8ElectronEC1ERKS1_, symObjAddr: 0xE098, symBinAddr: 0x100011628, symSize: 0x28 }
  - { offsetInCU: 0x2CC29, offset: 0x2CC29, size: 0x8, addend: 0x0, symName: __ZN9__gnu_cxx13new_allocatorISt10_List_nodeISt10shared_ptrI8ElectronEEE9constructIS4_JRKS4_EEEvPT_DpOT0_, symObjAddr: 0xE0C0, symBinAddr: 0x100011650, symSize: 0x4C }
  - { offsetInCU: 0x2CC9C, offset: 0x2CC9C, size: 0x8, addend: 0x0, symName: __ZNSt12__shared_ptrI8ElectronLN9__gnu_cxx12_Lock_policyE2EEC2ERKS3_, symObjAddr: 0xE050, symBinAddr: 0x1000115E0, symSize: 0x48 }
  - { offsetInCU: 0x2CCA4, offset: 0x2CCA4, size: 0x8, addend: 0x0, symName: __ZNSt10shared_ptrI8ElectronEC1ERKS1_, symObjAddr: 0xE098, symBinAddr: 0x100011628, symSize: 0x28 }
  - { offsetInCU: 0x2CD29, offset: 0x2CD29, size: 0x8, addend: 0x0, symName: __ZSt11__addressofISaISt10_List_nodeISt10shared_ptrI8ElectronEEEEPT_RS6_, symObjAddr: 0xE03C, symBinAddr: 0x1000115CC, symSize: 0x14 }
  - { offsetInCU: 0x2CD31, offset: 0x2CD31, size: 0x8, addend: 0x0, symName: __ZNSt12__shared_ptrI8ElectronLN9__gnu_cxx12_Lock_policyE2EEC2ERKS3_, symObjAddr: 0xE050, symBinAddr: 0x1000115E0, symSize: 0x48 }
  - { offsetInCU: 0x2CCDD, offset: 0x2CCDD, size: 0x8, addend: 0x0, symName: __ZNSt16allocator_traitsISaISt10_List_nodeISt10shared_ptrI8ElectronEEEE8allocateERS5_m, symObjAddr: 0xE014, symBinAddr: 0x1000115A4, symSize: 0x28 }
  - { offsetInCU: 0x2CCE5, offset: 0x2CCE5, size: 0x8, addend: 0x0, symName: __ZSt11__addressofISaISt10_List_nodeISt10shared_ptrI8ElectronEEEEPT_RS6_, symObjAddr: 0xE03C, symBinAddr: 0x1000115CC, symSize: 0x14 }
  - { offsetInCU: 0x2CD23, offset: 0x2CD23, size: 0x8, addend: 0x0, symName: __ZN9__gnu_cxx13new_allocatorISt13_Rb_tree_nodeISt4pairIKNSt7__cxx1112basic_stringIcSt11char_traitsIcESaIcEEEiEEE10deallocateEPSB_m, symObjAddr: 0xDFD8, symBinAddr: 0x100011568, symSize: 0x3C }
  - { offsetInCU: 0x2CD2B, offset: 0x2CD2B, size: 0x8, addend: 0x0, symName: __ZNSt16allocator_traitsISaISt10_List_nodeISt10shared_ptrI8ElectronEEEE8allocateERS5_m, symObjAddr: 0xE014, symBinAddr: 0x1000115A4, symSize: 0x28 }
  - { offsetInCU: 0x2CD78, offset: 0x2CD78, size: 0x8, addend: 0x0, symName: __ZN9__gnu_cxx13new_allocatorISt13_Rb_tree_nodeISt4pairIKNSt7__cxx1112basic_stringIcSt11char_traitsIcESaIcEEEiEEE7destroyISA_EEvPT_, symObjAddr: 0xDFB4, symBinAddr: 0x100011544, symSize: 0x24 }
  - { offsetInCU: 0x2CD80, offset: 0x2CD80, size: 0x8, addend: 0x0, symName: __ZN9__gnu_cxx13new_allocatorISt13_Rb_tree_nodeISt4pairIKNSt7__cxx1112basic_stringIcSt11char_traitsIcESaIcEEEiEEE10deallocateEPSB_m, symObjAddr: 0xDFD8, symBinAddr: 0x100011568, symSize: 0x3C }
  - { offsetInCU: 0x2CE39, offset: 0x2CE39, size: 0x8, addend: 0x0, symName: __ZNSt4pairIKNSt7__cxx1112basic_stringIcSt11char_traitsIcESaIcEEEiED1Ev, symObjAddr: 0xDF94, symBinAddr: 0x100011524, symSize: 0x20 }
  - { offsetInCU: 0x2CE41, offset: 0x2CE41, size: 0x8, addend: 0x0, symName: __ZN9__gnu_cxx13new_allocatorISt13_Rb_tree_nodeISt4pairIKNSt7__cxx1112basic_stringIcSt11char_traitsIcESaIcEEEiEEE7destroyISA_EEvPT_, symObjAddr: 0xDFB4, symBinAddr: 0x100011544, symSize: 0x24 }
  - { offsetInCU: 0x2CF12, offset: 0x2CF12, size: 0x8, addend: 0x0, symName: __ZNSt23_Sp_counted_ptr_inplaceI7W_BosonSaIS0_ELN9__gnu_cxx12_Lock_policyE2EEC1IJdiiibEEES1_DpOT_, symObjAddr: 0xDE80, symBinAddr: 0x100011410, symSize: 0x114 }
  - { offsetInCU: 0x2CF1A, offset: 0x2CF1A, size: 0x8, addend: 0x0, symName: __ZNSt4pairIKNSt7__cxx1112basic_stringIcSt11char_traitsIcESaIcEEEiED1Ev, symObjAddr: 0xDF94, symBinAddr: 0x100011524, symSize: 0x20 }
  - { offsetInCU: 0x2D042, offset: 0x2D042, size: 0x8, addend: 0x0, symName: __ZNSt23_Sp_counted_ptr_inplaceI7Z_BosonSaIS0_ELN9__gnu_cxx12_Lock_policyE2EEC1IJdiiiEEES1_DpOT_, symObjAddr: 0xDD88, symBinAddr: 0x100011318, symSize: 0xF8 }
  - { offsetInCU: 0x2D04A, offset: 0x2D04A, size: 0x8, addend: 0x0, symName: __ZNSt23_Sp_counted_ptr_inplaceI7W_BosonSaIS0_ELN9__gnu_cxx12_Lock_policyE2EEC1IJdiiibEEES1_DpOT_, symObjAddr: 0xDE80, symBinAddr: 0x100011410, symSize: 0x114 }
  - { offsetInCU: 0x2D07E, offset: 0x2D07E, size: 0x8, addend: 0x0, symName: __ZNSt23_Sp_counted_ptr_inplaceI5HiggsSaIS0_ELN9__gnu_cxx12_Lock_policyE2EE6_M_ptrEv, symObjAddr: 0xDD68, symBinAddr: 0x1000112F8, symSize: 0x20 }
  - { offsetInCU: 0x2D086, offset: 0x2D086, size: 0x8, addend: 0x0, symName: __ZNSt23_Sp_counted_ptr_inplaceI7Z_BosonSaIS0_ELN9__gnu_cxx12_Lock_policyE2EEC1IJdiiiEEES1_DpOT_, symObjAddr: 0xDD88, symBinAddr: 0x100011318, symSize: 0xF8 }
  - { offsetInCU: 0x2D0AD, offset: 0x2D0AD, size: 0x8, addend: 0x0, symName: __ZNSt15__allocated_ptrISaISt23_Sp_counted_ptr_inplaceI5HiggsSaIS1_ELN9__gnu_cxx12_Lock_policyE2EEEEaSEDn, symObjAddr: 0xDD48, symBinAddr: 0x1000112D8, symSize: 0x20 }
  - { offsetInCU: 0x2D0B5, offset: 0x2D0B5, size: 0x8, addend: 0x0, symName: __ZNSt23_Sp_counted_ptr_inplaceI5HiggsSaIS0_ELN9__gnu_cxx12_Lock_policyE2EE6_M_ptrEv, symObjAddr: 0xDD68, symBinAddr: 0x1000112F8, symSize: 0x20 }
  - { offsetInCU: 0x2D1C5, offset: 0x2D1C5, size: 0x8, addend: 0x0, symName: __ZNSt23_Sp_counted_ptr_inplaceI5HiggsSaIS0_ELN9__gnu_cxx12_Lock_policyE2EEC1IJddddEEES1_DpOT_, symObjAddr: 0xDC50, symBinAddr: 0x1000111E0, symSize: 0xF8 }
  - { offsetInCU: 0x2D1CD, offset: 0x2D1CD, size: 0x8, addend: 0x0, symName: __ZNSt15__allocated_ptrISaISt23_Sp_counted_ptr_inplaceI5HiggsSaIS1_ELN9__gnu_cxx12_Lock_policyE2EEEEaSEDn, symObjAddr: 0xDD48, symBinAddr: 0x1000112D8, symSize: 0x20 }
  - { offsetInCU: 0x2D284, offset: 0x2D284, size: 0x8, addend: 0x0, symName: __ZNSt23_Sp_counted_ptr_inplaceI5HiggsSaIS0_ELN9__gnu_cxx12_Lock_policyE2EE5_ImplD1Ev, symObjAddr: 0xDC30, symBinAddr: 0x1000111C0, symSize: 0x20 }
  - { offsetInCU: 0x2D28C, offset: 0x2D28C, size: 0x8, addend: 0x0, symName: __ZNSt23_Sp_counted_ptr_inplaceI5HiggsSaIS0_ELN9__gnu_cxx12_Lock_policyE2EEC1IJddddEEES1_DpOT_, symObjAddr: 0xDC50, symBinAddr: 0x1000111E0, symSize: 0xF8 }
  - { offsetInCU: 0x2D2B7, offset: 0x2D2B7, size: 0x8, addend: 0x0, symName: __ZNSt14_Sp_ebo_helperILi0ESaI5HiggsELb1EED2Ev, symObjAddr: 0xDC10, symBinAddr: 0x1000111A0, symSize: 0x20 }
  - { offsetInCU: 0x2D2BF, offset: 0x2D2BF, size: 0x8, addend: 0x0, symName: __ZNSt23_Sp_counted_ptr_inplaceI5HiggsSaIS0_ELN9__gnu_cxx12_Lock_policyE2EE5_ImplD1Ev, symObjAddr: 0xDC30, symBinAddr: 0x1000111C0, symSize: 0x20 }
  - { offsetInCU: 0x2D2F7, offset: 0x2D2F7, size: 0x8, addend: 0x0, symName: __ZNSaI5HiggsEC1ERKS0_, symObjAddr: 0xDBE8, symBinAddr: 0x100011178, symSize: 0x28 }
  - { offsetInCU: 0x2D2FF, offset: 0x2D2FF, size: 0x8, addend: 0x0, symName: __ZNSt14_Sp_ebo_helperILi0ESaI5HiggsELb1EED2Ev, symObjAddr: 0xDC10, symBinAddr: 0x1000111A0, symSize: 0x20 }
  - { offsetInCU: 0x2D331, offset: 0x2D331, size: 0x8, addend: 0x0, symName: __ZNSaI5HiggsEC2ERKS0_, symObjAddr: 0xDBC0, symBinAddr: 0x100011150, symSize: 0x28 }
  - { offsetInCU: 0x2D339, offset: 0x2D339, size: 0x8, addend: 0x0, symName: __ZNSaI5HiggsEC1ERKS0_, symObjAddr: 0xDBE8, symBinAddr: 0x100011178, symSize: 0x28 }
  - { offsetInCU: 0x2D355, offset: 0x2D355, size: 0x8, addend: 0x0, symName: __ZNSt15__allocated_ptrISaISt23_Sp_counted_ptr_inplaceI5HiggsSaIS1_ELN9__gnu_cxx12_Lock_policyE2EEEE3getEv, symObjAddr: 0xDBA0, symBinAddr: 0x100011130, symSize: 0x20 }
  - { offsetInCU: 0x2D35D, offset: 0x2D35D, size: 0x8, addend: 0x0, symName: __ZNSaI5HiggsEC2ERKS0_, symObjAddr: 0xDBC0, symBinAddr: 0x100011150, symSize: 0x28 }
  - { offsetInCU: 0x2D413, offset: 0x2D413, size: 0x8, addend: 0x0, symName: __ZNSt15__allocated_ptrISaISt23_Sp_counted_ptr_inplaceI5HiggsSaIS1_ELN9__gnu_cxx12_Lock_policyE2EEEED1Ev, symObjAddr: 0xDB58, symBinAddr: 0x1000110E8, symSize: 0x48 }
  - { offsetInCU: 0x2D41B, offset: 0x2D41B, size: 0x8, addend: 0x0, symName: __ZNSt15__allocated_ptrISaISt23_Sp_counted_ptr_inplaceI5HiggsSaIS1_ELN9__gnu_cxx12_Lock_policyE2EEEE3getEv, symObjAddr: 0xDBA0, symBinAddr: 0x100011130, symSize: 0x20 }
  - { offsetInCU: 0x2D4DB, offset: 0x2D4DB, size: 0x8, addend: 0x0, symName: __ZSt18__allocate_guardedISaISt23_Sp_counted_ptr_inplaceI5HiggsSaIS1_ELN9__gnu_cxx12_Lock_policyE2EEEESt15__allocated_ptrIT_ERS8_, symObjAddr: 0xDB18, symBinAddr: 0x1000110A8, symSize: 0x40 }
  - { offsetInCU: 0x2D4E3, offset: 0x2D4E3, size: 0x8, addend: 0x0, symName: __ZNSt15__allocated_ptrISaISt23_Sp_counted_ptr_inplaceI5HiggsSaIS1_ELN9__gnu_cxx12_Lock_policyE2EEEED1Ev, symObjAddr: 0xDB58, symBinAddr: 0x1000110E8, symSize: 0x48 }
  - { offsetInCU: 0x2D49E, offset: 0x2D49E, size: 0x8, addend: 0x0, symName: __ZNSaISt23_Sp_counted_ptr_inplaceI5HiggsSaIS0_ELN9__gnu_cxx12_Lock_policyE2EEED1Ev, symObjAddr: 0xDAF8, symBinAddr: 0x100011088, symSize: 0x20 }
  - { offsetInCU: 0x2D4A6, offset: 0x2D4A6, size: 0x8, addend: 0x0, symName: __ZSt18__allocate_guardedISaISt23_Sp_counted_ptr_inplaceI5HiggsSaIS1_ELN9__gnu_cxx12_Lock_policyE2EEEESt15__allocated_ptrIT_ERS8_, symObjAddr: 0xDB18, symBinAddr: 0x1000110A8, symSize: 0x40 }
  - { offsetInCU: 0x2D507, offset: 0x2D507, size: 0x8, addend: 0x0, symName: __ZNSaISt23_Sp_counted_ptr_inplaceI5HiggsSaIS0_ELN9__gnu_cxx12_Lock_policyE2EEEC1IS0_EERKSaIT_E, symObjAddr: 0xDAD4, symBinAddr: 0x100011064, symSize: 0x24 }
  - { offsetInCU: 0x2D50F, offset: 0x2D50F, size: 0x8, addend: 0x0, symName: __ZNSaISt23_Sp_counted_ptr_inplaceI5HiggsSaIS0_ELN9__gnu_cxx12_Lock_policyE2EEED1Ev, symObjAddr: 0xDAF8, symBinAddr: 0x100011088, symSize: 0x20 }
  - { offsetInCU: 0x2D4EF, offset: 0x2D4EF, size: 0x8, addend: 0x0, symName: __ZNSt23_Sp_counted_ptr_inplaceI7W_BosonSaIS0_ELN9__gnu_cxx12_Lock_policyE2EE6_M_ptrEv, symObjAddr: 0xDAB4, symBinAddr: 0x100011044, symSize: 0x20 }
  - { offsetInCU: 0x2D4F7, offset: 0x2D4F7, size: 0x8, addend: 0x0, symName: __ZNSaISt23_Sp_counted_ptr_inplaceI5HiggsSaIS0_ELN9__gnu_cxx12_Lock_policyE2EEEC1IS0_EERKSaIT_E, symObjAddr: 0xDAD4, symBinAddr: 0x100011064, symSize: 0x24 }
  - { offsetInCU: 0x2D51E, offset: 0x2D51E, size: 0x8, addend: 0x0, symName: __ZNSt15__allocated_ptrISaISt23_Sp_counted_ptr_inplaceI7W_BosonSaIS1_ELN9__gnu_cxx12_Lock_policyE2EEEEaSEDn, symObjAddr: 0xDA94, symBinAddr: 0x100011024, symSize: 0x20 }
  - { offsetInCU: 0x2D526, offset: 0x2D526, size: 0x8, addend: 0x0, symName: __ZNSt23_Sp_counted_ptr_inplaceI7W_BosonSaIS0_ELN9__gnu_cxx12_Lock_policyE2EE6_M_ptrEv, symObjAddr: 0xDAB4, symBinAddr: 0x100011044, symSize: 0x20 }
  - { offsetInCU: 0x2D64B, offset: 0x2D64B, size: 0x8, addend: 0x0, symName: __ZNSt23_Sp_counted_ptr_inplaceI7W_BosonSaIS0_ELN9__gnu_cxx12_Lock_policyE2EEC1IJddddbEEES1_DpOT_, symObjAddr: 0xD980, symBinAddr: 0x100010F10, symSize: 0x114 }
  - { offsetInCU: 0x2D653, offset: 0x2D653, size: 0x8, addend: 0x0, symName: __ZNSt15__allocated_ptrISaISt23_Sp_counted_ptr_inplaceI7W_BosonSaIS1_ELN9__gnu_cxx12_Lock_policyE2EEEEaSEDn, symObjAddr: 0xDA94, symBinAddr: 0x100011024, symSize: 0x20 }
  - { offsetInCU: 0x2D71F, offset: 0x2D71F, size: 0x8, addend: 0x0, symName: __ZNSt23_Sp_counted_ptr_inplaceI7W_BosonSaIS0_ELN9__gnu_cxx12_Lock_policyE2EE5_ImplD1Ev, symObjAddr: 0xD960, symBinAddr: 0x100010EF0, symSize: 0x20 }
  - { offsetInCU: 0x2D727, offset: 0x2D727, size: 0x8, addend: 0x0, symName: __ZNSt23_Sp_counted_ptr_inplaceI7W_BosonSaIS0_ELN9__gnu_cxx12_Lock_policyE2EEC1IJddddbEEES1_DpOT_, symObjAddr: 0xD980, symBinAddr: 0x100010F10, symSize: 0x114 }
  - { offsetInCU: 0x2D752, offset: 0x2D752, size: 0x8, addend: 0x0, symName: __ZNSt14_Sp_ebo_helperILi0ESaI7W_BosonELb1EED2Ev, symObjAddr: 0xD940, symBinAddr: 0x100010ED0, symSize: 0x20 }
  - { offsetInCU: 0x2D75A, offset: 0x2D75A, size: 0x8, addend: 0x0, symName: __ZNSt23_Sp_counted_ptr_inplaceI7W_BosonSaIS0_ELN9__gnu_cxx12_Lock_policyE2EE5_ImplD1Ev, symObjAddr: 0xD960, symBinAddr: 0x100010EF0, symSize: 0x20 }
  - { offsetInCU: 0x2D792, offset: 0x2D792, size: 0x8, addend: 0x0, symName: __ZNSaI7W_BosonEC1ERKS0_, symObjAddr: 0xD918, symBinAddr: 0x100010EA8, symSize: 0x28 }
  - { offsetInCU: 0x2D79A, offset: 0x2D79A, size: 0x8, addend: 0x0, symName: __ZNSt14_Sp_ebo_helperILi0ESaI7W_BosonELb1EED2Ev, symObjAddr: 0xD940, symBinAddr: 0x100010ED0, symSize: 0x20 }
  - { offsetInCU: 0x2D7CC, offset: 0x2D7CC, size: 0x8, addend: 0x0, symName: __ZNSaI7W_BosonEC2ERKS0_, symObjAddr: 0xD8F0, symBinAddr: 0x100010E80, symSize: 0x28 }
  - { offsetInCU: 0x2D7D4, offset: 0x2D7D4, size: 0x8, addend: 0x0, symName: __ZNSaI7W_BosonEC1ERKS0_, symObjAddr: 0xD918, symBinAddr: 0x100010EA8, symSize: 0x28 }
  - { offsetInCU: 0x2D7EE, offset: 0x2D7EE, size: 0x8, addend: 0x0, symName: __ZNSt15__allocated_ptrISaISt23_Sp_counted_ptr_inplaceI7W_BosonSaIS1_ELN9__gnu_cxx12_Lock_policyE2EEEE3getEv, symObjAddr: 0xD8D0, symBinAddr: 0x100010E60, symSize: 0x20 }
  - { offsetInCU: 0x2D7F6, offset: 0x2D7F6, size: 0x8, addend: 0x0, symName: __ZNSaI7W_BosonEC2ERKS0_, symObjAddr: 0xD8F0, symBinAddr: 0x100010E80, symSize: 0x28 }
  - { offsetInCU: 0x2D8AE, offset: 0x2D8AE, size: 0x8, addend: 0x0, symName: __ZNSt15__allocated_ptrISaISt23_Sp_counted_ptr_inplaceI7W_BosonSaIS1_ELN9__gnu_cxx12_Lock_policyE2EEEED1Ev, symObjAddr: 0xD888, symBinAddr: 0x100010E18, symSize: 0x48 }
  - { offsetInCU: 0x2D8B6, offset: 0x2D8B6, size: 0x8, addend: 0x0, symName: __ZNSt15__allocated_ptrISaISt23_Sp_counted_ptr_inplaceI7W_BosonSaIS1_ELN9__gnu_cxx12_Lock_policyE2EEEE3getEv, symObjAddr: 0xD8D0, symBinAddr: 0x100010E60, symSize: 0x20 }
  - { offsetInCU: 0x2D97A, offset: 0x2D97A, size: 0x8, addend: 0x0, symName: __ZSt18__allocate_guardedISaISt23_Sp_counted_ptr_inplaceI7W_BosonSaIS1_ELN9__gnu_cxx12_Lock_policyE2EEEESt15__allocated_ptrIT_ERS8_, symObjAddr: 0xD848, symBinAddr: 0x100010DD8, symSize: 0x40 }
  - { offsetInCU: 0x2D982, offset: 0x2D982, size: 0x8, addend: 0x0, symName: __ZNSt15__allocated_ptrISaISt23_Sp_counted_ptr_inplaceI7W_BosonSaIS1_ELN9__gnu_cxx12_Lock_policyE2EEEED1Ev, symObjAddr: 0xD888, symBinAddr: 0x100010E18, symSize: 0x48 }
  - { offsetInCU: 0x2D939, offset: 0x2D939, size: 0x8, addend: 0x0, symName: __ZNSaISt23_Sp_counted_ptr_inplaceI7W_BosonSaIS0_ELN9__gnu_cxx12_Lock_policyE2EEED1Ev, symObjAddr: 0xD828, symBinAddr: 0x100010DB8, symSize: 0x20 }
  - { offsetInCU: 0x2D941, offset: 0x2D941, size: 0x8, addend: 0x0, symName: __ZSt18__allocate_guardedISaISt23_Sp_counted_ptr_inplaceI7W_BosonSaIS1_ELN9__gnu_cxx12_Lock_policyE2EEEESt15__allocated_ptrIT_ERS8_, symObjAddr: 0xD848, symBinAddr: 0x100010DD8, symSize: 0x40 }
  - { offsetInCU: 0x2D9A2, offset: 0x2D9A2, size: 0x8, addend: 0x0, symName: __ZNSaISt23_Sp_counted_ptr_inplaceI7W_BosonSaIS0_ELN9__gnu_cxx12_Lock_policyE2EEEC1IS0_EERKSaIT_E, symObjAddr: 0xD804, symBinAddr: 0x100010D94, symSize: 0x24 }
  - { offsetInCU: 0x2D9AA, offset: 0x2D9AA, size: 0x8, addend: 0x0, symName: __ZNSaISt23_Sp_counted_ptr_inplaceI7W_BosonSaIS0_ELN9__gnu_cxx12_Lock_policyE2EEED1Ev, symObjAddr: 0xD828, symBinAddr: 0x100010DB8, symSize: 0x20 }
  - { offsetInCU: 0x2D988, offset: 0x2D988, size: 0x8, addend: 0x0, symName: __ZNSt23_Sp_counted_ptr_inplaceI7Z_BosonSaIS0_ELN9__gnu_cxx12_Lock_policyE2EE6_M_ptrEv, symObjAddr: 0xD7E4, symBinAddr: 0x100010D74, symSize: 0x20 }
  - { offsetInCU: 0x2D990, offset: 0x2D990, size: 0x8, addend: 0x0, symName: __ZNSaISt23_Sp_counted_ptr_inplaceI7W_BosonSaIS0_ELN9__gnu_cxx12_Lock_policyE2EEEC1IS0_EERKSaIT_E, symObjAddr: 0xD804, symBinAddr: 0x100010D94, symSize: 0x24 }
  - { offsetInCU: 0x2D9B7, offset: 0x2D9B7, size: 0x8, addend: 0x0, symName: __ZNSt15__allocated_ptrISaISt23_Sp_counted_ptr_inplaceI7Z_BosonSaIS1_ELN9__gnu_cxx12_Lock_policyE2EEEEaSEDn, symObjAddr: 0xD7C4, symBinAddr: 0x100010D54, symSize: 0x20 }
  - { offsetInCU: 0x2D9BF, offset: 0x2D9BF, size: 0x8, addend: 0x0, symName: __ZNSt23_Sp_counted_ptr_inplaceI7Z_BosonSaIS0_ELN9__gnu_cxx12_Lock_policyE2EE6_M_ptrEv, symObjAddr: 0xD7E4, symBinAddr: 0x100010D74, symSize: 0x20 }
  - { offsetInCU: 0x2DAD1, offset: 0x2DAD1, size: 0x8, addend: 0x0, symName: __ZNSt23_Sp_counted_ptr_inplaceI7Z_BosonSaIS0_ELN9__gnu_cxx12_Lock_policyE2EEC1IJddddEEES1_DpOT_, symObjAddr: 0xD6CC, symBinAddr: 0x100010C5C, symSize: 0xF8 }
  - { offsetInCU: 0x2DAD9, offset: 0x2DAD9, size: 0x8, addend: 0x0, symName: __ZNSt15__allocated_ptrISaISt23_Sp_counted_ptr_inplaceI7Z_BosonSaIS1_ELN9__gnu_cxx12_Lock_policyE2EEEEaSEDn, symObjAddr: 0xD7C4, symBinAddr: 0x100010D54, symSize: 0x20 }
  - { offsetInCU: 0x2DB90, offset: 0x2DB90, size: 0x8, addend: 0x0, symName: __ZNSt23_Sp_counted_ptr_inplaceI7Z_BosonSaIS0_ELN9__gnu_cxx12_Lock_policyE2EE5_ImplD1Ev, symObjAddr: 0xD6AC, symBinAddr: 0x100010C3C, symSize: 0x20 }
  - { offsetInCU: 0x2DB98, offset: 0x2DB98, size: 0x8, addend: 0x0, symName: __ZNSt23_Sp_counted_ptr_inplaceI7Z_BosonSaIS0_ELN9__gnu_cxx12_Lock_policyE2EEC1IJddddEEES1_DpOT_, symObjAddr: 0xD6CC, symBinAddr: 0x100010C5C, symSize: 0xF8 }
  - { offsetInCU: 0x2DBC3, offset: 0x2DBC3, size: 0x8, addend: 0x0, symName: __ZNSt14_Sp_ebo_helperILi0ESaI7Z_BosonELb1EED2Ev, symObjAddr: 0xD68C, symBinAddr: 0x100010C1C, symSize: 0x20 }
  - { offsetInCU: 0x2DBCB, offset: 0x2DBCB, size: 0x8, addend: 0x0, symName: __ZNSt23_Sp_counted_ptr_inplaceI7Z_BosonSaIS0_ELN9__gnu_cxx12_Lock_policyE2EE5_ImplD1Ev, symObjAddr: 0xD6AC, symBinAddr: 0x100010C3C, symSize: 0x20 }
  - { offsetInCU: 0x2DC03, offset: 0x2DC03, size: 0x8, addend: 0x0, symName: __ZNSaI7Z_BosonEC1ERKS0_, symObjAddr: 0xD664, symBinAddr: 0x100010BF4, symSize: 0x28 }
  - { offsetInCU: 0x2DC0B, offset: 0x2DC0B, size: 0x8, addend: 0x0, symName: __ZNSt14_Sp_ebo_helperILi0ESaI7Z_BosonELb1EED2Ev, symObjAddr: 0xD68C, symBinAddr: 0x100010C1C, symSize: 0x20 }
  - { offsetInCU: 0x2DC3D, offset: 0x2DC3D, size: 0x8, addend: 0x0, symName: __ZNSaI7Z_BosonEC2ERKS0_, symObjAddr: 0xD63C, symBinAddr: 0x100010BCC, symSize: 0x28 }
  - { offsetInCU: 0x2DC45, offset: 0x2DC45, size: 0x8, addend: 0x0, symName: __ZNSaI7Z_BosonEC1ERKS0_, symObjAddr: 0xD664, symBinAddr: 0x100010BF4, symSize: 0x28 }
  - { offsetInCU: 0x2DC5F, offset: 0x2DC5F, size: 0x8, addend: 0x0, symName: __ZNSt15__allocated_ptrISaISt23_Sp_counted_ptr_inplaceI7Z_BosonSaIS1_ELN9__gnu_cxx12_Lock_policyE2EEEE3getEv, symObjAddr: 0xD61C, symBinAddr: 0x100010BAC, symSize: 0x20 }
  - { offsetInCU: 0x2DC67, offset: 0x2DC67, size: 0x8, addend: 0x0, symName: __ZNSaI7Z_BosonEC2ERKS0_, symObjAddr: 0xD63C, symBinAddr: 0x100010BCC, symSize: 0x28 }
  - { offsetInCU: 0x2DD1F, offset: 0x2DD1F, size: 0x8, addend: 0x0, symName: __ZNSt15__allocated_ptrISaISt23_Sp_counted_ptr_inplaceI7Z_BosonSaIS1_ELN9__gnu_cxx12_Lock_policyE2EEEED1Ev, symObjAddr: 0xD5D4, symBinAddr: 0x100010B64, symSize: 0x48 }
  - { offsetInCU: 0x2DD27, offset: 0x2DD27, size: 0x8, addend: 0x0, symName: __ZNSt15__allocated_ptrISaISt23_Sp_counted_ptr_inplaceI7Z_BosonSaIS1_ELN9__gnu_cxx12_Lock_policyE2EEEE3getEv, symObjAddr: 0xD61C, symBinAddr: 0x100010BAC, symSize: 0x20 }
  - { offsetInCU: 0x2DDEB, offset: 0x2DDEB, size: 0x8, addend: 0x0, symName: __ZSt18__allocate_guardedISaISt23_Sp_counted_ptr_inplaceI7Z_BosonSaIS1_ELN9__gnu_cxx12_Lock_policyE2EEEESt15__allocated_ptrIT_ERS8_, symObjAddr: 0xD594, symBinAddr: 0x100010B24, symSize: 0x40 }
  - { offsetInCU: 0x2DDF3, offset: 0x2DDF3, size: 0x8, addend: 0x0, symName: __ZNSt15__allocated_ptrISaISt23_Sp_counted_ptr_inplaceI7Z_BosonSaIS1_ELN9__gnu_cxx12_Lock_policyE2EEEED1Ev, symObjAddr: 0xD5D4, symBinAddr: 0x100010B64, symSize: 0x48 }
  - { offsetInCU: 0x2DDAA, offset: 0x2DDAA, size: 0x8, addend: 0x0, symName: __ZNSaISt23_Sp_counted_ptr_inplaceI7Z_BosonSaIS0_ELN9__gnu_cxx12_Lock_policyE2EEED1Ev, symObjAddr: 0xD574, symBinAddr: 0x100010B04, symSize: 0x20 }
  - { offsetInCU: 0x2DDB2, offset: 0x2DDB2, size: 0x8, addend: 0x0, symName: __ZSt18__allocate_guardedISaISt23_Sp_counted_ptr_inplaceI7Z_BosonSaIS1_ELN9__gnu_cxx12_Lock_policyE2EEEESt15__allocated_ptrIT_ERS8_, symObjAddr: 0xD594, symBinAddr: 0x100010B24, symSize: 0x40 }
  - { offsetInCU: 0x2DE13, offset: 0x2DE13, size: 0x8, addend: 0x0, symName: __ZNSaISt23_Sp_counted_ptr_inplaceI7Z_BosonSaIS0_ELN9__gnu_cxx12_Lock_policyE2EEEC1IS0_EERKSaIT_E, symObjAddr: 0xD550, symBinAddr: 0x100010AE0, symSize: 0x24 }
  - { offsetInCU: 0x2DE1B, offset: 0x2DE1B, size: 0x8, addend: 0x0, symName: __ZNSaISt23_Sp_counted_ptr_inplaceI7Z_BosonSaIS0_ELN9__gnu_cxx12_Lock_policyE2EEED1Ev, symObjAddr: 0xD574, symBinAddr: 0x100010B04, symSize: 0x20 }
  - { offsetInCU: 0x2DDF9, offset: 0x2DDF9, size: 0x8, addend: 0x0, symName: __ZNSt23_Sp_counted_ptr_inplaceI6PhotonSaIS0_ELN9__gnu_cxx12_Lock_policyE2EE6_M_ptrEv, symObjAddr: 0xD530, symBinAddr: 0x100010AC0, symSize: 0x20 }
  - { offsetInCU: 0x2DE01, offset: 0x2DE01, size: 0x8, addend: 0x0, symName: __ZNSaISt23_Sp_counted_ptr_inplaceI7Z_BosonSaIS0_ELN9__gnu_cxx12_Lock_policyE2EEEC1IS0_EERKSaIT_E, symObjAddr: 0xD550, symBinAddr: 0x100010AE0, symSize: 0x24 }
  - { offsetInCU: 0x2DE28, offset: 0x2DE28, size: 0x8, addend: 0x0, symName: __ZNSt15__allocated_ptrISaISt23_Sp_counted_ptr_inplaceI6PhotonSaIS1_ELN9__gnu_cxx12_Lock_policyE2EEEEaSEDn, symObjAddr: 0xD510, symBinAddr: 0x100010AA0, symSize: 0x20 }
  - { offsetInCU: 0x2DE30, offset: 0x2DE30, size: 0x8, addend: 0x0, symName: __ZNSt23_Sp_counted_ptr_inplaceI6PhotonSaIS0_ELN9__gnu_cxx12_Lock_policyE2EE6_M_ptrEv, symObjAddr: 0xD530, symBinAddr: 0x100010AC0, symSize: 0x20 }
  - { offsetInCU: 0x2DF41, offset: 0x2DF41, size: 0x8, addend: 0x0, symName: __ZNSt23_Sp_counted_ptr_inplaceI6PhotonSaIS0_ELN9__gnu_cxx12_Lock_policyE2EEC1IJiiiiEEES1_DpOT_, symObjAddr: 0xD418, symBinAddr: 0x1000109A8, symSize: 0xF8 }
  - { offsetInCU: 0x2DF49, offset: 0x2DF49, size: 0x8, addend: 0x0, symName: __ZNSt15__allocated_ptrISaISt23_Sp_counted_ptr_inplaceI6PhotonSaIS1_ELN9__gnu_cxx12_Lock_policyE2EEEEaSEDn, symObjAddr: 0xD510, symBinAddr: 0x100010AA0, symSize: 0x20 }
  - { offsetInCU: 0x2E000, offset: 0x2E000, size: 0x8, addend: 0x0, symName: __ZNSt23_Sp_counted_ptr_inplaceI6PhotonSaIS0_ELN9__gnu_cxx12_Lock_policyE2EE5_ImplD1Ev, symObjAddr: 0xD3F8, symBinAddr: 0x100010988, symSize: 0x20 }
  - { offsetInCU: 0x2E008, offset: 0x2E008, size: 0x8, addend: 0x0, symName: __ZNSt23_Sp_counted_ptr_inplaceI6PhotonSaIS0_ELN9__gnu_cxx12_Lock_policyE2EEC1IJiiiiEEES1_DpOT_, symObjAddr: 0xD418, symBinAddr: 0x1000109A8, symSize: 0xF8 }
  - { offsetInCU: 0x2E033, offset: 0x2E033, size: 0x8, addend: 0x0, symName: __ZNSt14_Sp_ebo_helperILi0ESaI6PhotonELb1EED2Ev, symObjAddr: 0xD3D8, symBinAddr: 0x100010968, symSize: 0x20 }
  - { offsetInCU: 0x2E03B, offset: 0x2E03B, size: 0x8, addend: 0x0, symName: __ZNSt23_Sp_counted_ptr_inplaceI6PhotonSaIS0_ELN9__gnu_cxx12_Lock_policyE2EE5_ImplD1Ev, symObjAddr: 0xD3F8, symBinAddr: 0x100010988, symSize: 0x20 }
  - { offsetInCU: 0x2E073, offset: 0x2E073, size: 0x8, addend: 0x0, symName: __ZNSaI6PhotonEC1ERKS0_, symObjAddr: 0xD3B0, symBinAddr: 0x100010940, symSize: 0x28 }
  - { offsetInCU: 0x2E07B, offset: 0x2E07B, size: 0x8, addend: 0x0, symName: __ZNSt14_Sp_ebo_helperILi0ESaI6PhotonELb1EED2Ev, symObjAddr: 0xD3D8, symBinAddr: 0x100010968, symSize: 0x20 }
  - { offsetInCU: 0x2E0AD, offset: 0x2E0AD, size: 0x8, addend: 0x0, symName: __ZNSaI6PhotonEC2ERKS0_, symObjAddr: 0xD388, symBinAddr: 0x100010918, symSize: 0x28 }
  - { offsetInCU: 0x2E0B5, offset: 0x2E0B5, size: 0x8, addend: 0x0, symName: __ZNSaI6PhotonEC1ERKS0_, symObjAddr: 0xD3B0, symBinAddr: 0x100010940, symSize: 0x28 }
  - { offsetInCU: 0x2E0D0, offset: 0x2E0D0, size: 0x8, addend: 0x0, symName: __ZNSt15__allocated_ptrISaISt23_Sp_counted_ptr_inplaceI6PhotonSaIS1_ELN9__gnu_cxx12_Lock_policyE2EEEE3getEv, symObjAddr: 0xD368, symBinAddr: 0x1000108F8, symSize: 0x20 }
  - { offsetInCU: 0x2E0D8, offset: 0x2E0D8, size: 0x8, addend: 0x0, symName: __ZNSaI6PhotonEC2ERKS0_, symObjAddr: 0xD388, symBinAddr: 0x100010918, symSize: 0x28 }
  - { offsetInCU: 0x2E18F, offset: 0x2E18F, size: 0x8, addend: 0x0, symName: __ZNSt15__allocated_ptrISaISt23_Sp_counted_ptr_inplaceI6PhotonSaIS1_ELN9__gnu_cxx12_Lock_policyE2EEEED1Ev, symObjAddr: 0xD320, symBinAddr: 0x1000108B0, symSize: 0x48 }
  - { offsetInCU: 0x2E197, offset: 0x2E197, size: 0x8, addend: 0x0, symName: __ZNSt15__allocated_ptrISaISt23_Sp_counted_ptr_inplaceI6PhotonSaIS1_ELN9__gnu_cxx12_Lock_policyE2EEEE3getEv, symObjAddr: 0xD368, symBinAddr: 0x1000108F8, symSize: 0x20 }
  - { offsetInCU: 0x2E259, offset: 0x2E259, size: 0x8, addend: 0x0, symName: __ZSt18__allocate_guardedISaISt23_Sp_counted_ptr_inplaceI6PhotonSaIS1_ELN9__gnu_cxx12_Lock_policyE2EEEESt15__allocated_ptrIT_ERS8_, symObjAddr: 0xD2E0, symBinAddr: 0x100010870, symSize: 0x40 }
  - { offsetInCU: 0x2E261, offset: 0x2E261, size: 0x8, addend: 0x0, symName: __ZNSt15__allocated_ptrISaISt23_Sp_counted_ptr_inplaceI6PhotonSaIS1_ELN9__gnu_cxx12_Lock_policyE2EEEED1Ev, symObjAddr: 0xD320, symBinAddr: 0x1000108B0, symSize: 0x48 }
  - { offsetInCU: 0x2E21A, offset: 0x2E21A, size: 0x8, addend: 0x0, symName: __ZNSaISt23_Sp_counted_ptr_inplaceI6PhotonSaIS0_ELN9__gnu_cxx12_Lock_policyE2EEED1Ev, symObjAddr: 0xD2C0, symBinAddr: 0x100010850, symSize: 0x20 }
  - { offsetInCU: 0x2E222, offset: 0x2E222, size: 0x8, addend: 0x0, symName: __ZSt18__allocate_guardedISaISt23_Sp_counted_ptr_inplaceI6PhotonSaIS1_ELN9__gnu_cxx12_Lock_policyE2EEEESt15__allocated_ptrIT_ERS8_, symObjAddr: 0xD2E0, symBinAddr: 0x100010870, symSize: 0x40 }
  - { offsetInCU: 0x2E283, offset: 0x2E283, size: 0x8, addend: 0x0, symName: __ZNSaISt23_Sp_counted_ptr_inplaceI6PhotonSaIS0_ELN9__gnu_cxx12_Lock_policyE2EEEC1IS0_EERKSaIT_E, symObjAddr: 0xD29C, symBinAddr: 0x10001082C, symSize: 0x24 }
  - { offsetInCU: 0x2E28B, offset: 0x2E28B, size: 0x8, addend: 0x0, symName: __ZNSaISt23_Sp_counted_ptr_inplaceI6PhotonSaIS0_ELN9__gnu_cxx12_Lock_policyE2EEED1Ev, symObjAddr: 0xD2C0, symBinAddr: 0x100010850, symSize: 0x20 }
  - { offsetInCU: 0x2E26A, offset: 0x2E26A, size: 0x8, addend: 0x0, symName: __ZNSt23_Sp_counted_ptr_inplaceI5GluonSaIS0_ELN9__gnu_cxx12_Lock_policyE2EE6_M_ptrEv, symObjAddr: 0xD27C, symBinAddr: 0x10001080C, symSize: 0x20 }
  - { offsetInCU: 0x2E272, offset: 0x2E272, size: 0x8, addend: 0x0, symName: __ZNSaISt23_Sp_counted_ptr_inplaceI6PhotonSaIS0_ELN9__gnu_cxx12_Lock_policyE2EEEC1IS0_EERKSaIT_E, symObjAddr: 0xD29C, symBinAddr: 0x10001082C, symSize: 0x24 }
  - { offsetInCU: 0x2E299, offset: 0x2E299, size: 0x8, addend: 0x0, symName: __ZNSt15__allocated_ptrISaISt23_Sp_counted_ptr_inplaceI5GluonSaIS1_ELN9__gnu_cxx12_Lock_policyE2EEEEaSEDn, symObjAddr: 0xD25C, symBinAddr: 0x1000107EC, symSize: 0x20 }
  - { offsetInCU: 0x2E2A1, offset: 0x2E2A1, size: 0x8, addend: 0x0, symName: __ZNSt23_Sp_counted_ptr_inplaceI5GluonSaIS0_ELN9__gnu_cxx12_Lock_policyE2EE6_M_ptrEv, symObjAddr: 0xD27C, symBinAddr: 0x10001080C, symSize: 0x20 }
  - { offsetInCU: 0x2E3F8, offset: 0x2E3F8, size: 0x8, addend: 0x0, symName: __ZNSt23_Sp_counted_ptr_inplaceI5GluonSaIS0_ELN9__gnu_cxx12_Lock_policyE2EEC1IJddddb11Colour_listS6_EEES1_DpOT_, symObjAddr: 0xD114, symBinAddr: 0x1000106A4, symSize: 0x148 }
  - { offsetInCU: 0x2E400, offset: 0x2E400, size: 0x8, addend: 0x0, symName: __ZNSt15__allocated_ptrISaISt23_Sp_counted_ptr_inplaceI5GluonSaIS1_ELN9__gnu_cxx12_Lock_policyE2EEEEaSEDn, symObjAddr: 0xD25C, symBinAddr: 0x1000107EC, symSize: 0x20 }
  - { offsetInCU: 0x2E4E7, offset: 0x2E4E7, size: 0x8, addend: 0x0, symName: __ZNSt23_Sp_counted_ptr_inplaceI5GluonSaIS0_ELN9__gnu_cxx12_Lock_policyE2EE5_ImplD1Ev, symObjAddr: 0xD0F4, symBinAddr: 0x100010684, symSize: 0x20 }
  - { offsetInCU: 0x2E4EF, offset: 0x2E4EF, size: 0x8, addend: 0x0, symName: __ZNSt23_Sp_counted_ptr_inplaceI5GluonSaIS0_ELN9__gnu_cxx12_Lock_policyE2EEC1IJddddb11Colour_listS6_EEES1_DpOT_, symObjAddr: 0xD114, symBinAddr: 0x1000106A4, symSize: 0x148 }
  - { offsetInCU: 0x2E51A, offset: 0x2E51A, size: 0x8, addend: 0x0, symName: __ZNSt14_Sp_ebo_helperILi0ESaI5GluonELb1EED2Ev, symObjAddr: 0xD0D4, symBinAddr: 0x100010664, symSize: 0x20 }
  - { offsetInCU: 0x2E522, offset: 0x2E522, size: 0x8, addend: 0x0, symName: __ZNSt23_Sp_counted_ptr_inplaceI5GluonSaIS0_ELN9__gnu_cxx12_Lock_policyE2EE5_ImplD1Ev, symObjAddr: 0xD0F4, symBinAddr: 0x100010684, symSize: 0x20 }
  - { offsetInCU: 0x2E55A, offset: 0x2E55A, size: 0x8, addend: 0x0, symName: __ZNSaI5GluonEC1ERKS0_, symObjAddr: 0xD0AC, symBinAddr: 0x10001063C, symSize: 0x28 }
  - { offsetInCU: 0x2E562, offset: 0x2E562, size: 0x8, addend: 0x0, symName: __ZNSt14_Sp_ebo_helperILi0ESaI5GluonELb1EED2Ev, symObjAddr: 0xD0D4, symBinAddr: 0x100010664, symSize: 0x20 }
  - { offsetInCU: 0x2E594, offset: 0x2E594, size: 0x8, addend: 0x0, symName: __ZNSaI5GluonEC2ERKS0_, symObjAddr: 0xD084, symBinAddr: 0x100010614, symSize: 0x28 }
  - { offsetInCU: 0x2E59C, offset: 0x2E59C, size: 0x8, addend: 0x0, symName: __ZNSaI5GluonEC1ERKS0_, symObjAddr: 0xD0AC, symBinAddr: 0x10001063C, symSize: 0x28 }
  - { offsetInCU: 0x2E5B8, offset: 0x2E5B8, size: 0x8, addend: 0x0, symName: __ZNSt15__allocated_ptrISaISt23_Sp_counted_ptr_inplaceI5GluonSaIS1_ELN9__gnu_cxx12_Lock_policyE2EEEE3getEv, symObjAddr: 0xD064, symBinAddr: 0x1000105F4, symSize: 0x20 }
  - { offsetInCU: 0x2E5C0, offset: 0x2E5C0, size: 0x8, addend: 0x0, symName: __ZNSaI5GluonEC2ERKS0_, symObjAddr: 0xD084, symBinAddr: 0x100010614, symSize: 0x28 }
  - { offsetInCU: 0x2E676, offset: 0x2E676, size: 0x8, addend: 0x0, symName: __ZNSt15__allocated_ptrISaISt23_Sp_counted_ptr_inplaceI5GluonSaIS1_ELN9__gnu_cxx12_Lock_policyE2EEEED1Ev, symObjAddr: 0xD01C, symBinAddr: 0x1000105AC, symSize: 0x48 }
  - { offsetInCU: 0x2E67E, offset: 0x2E67E, size: 0x8, addend: 0x0, symName: __ZNSt15__allocated_ptrISaISt23_Sp_counted_ptr_inplaceI5GluonSaIS1_ELN9__gnu_cxx12_Lock_policyE2EEEE3getEv, symObjAddr: 0xD064, symBinAddr: 0x1000105F4, symSize: 0x20 }
  - { offsetInCU: 0x2E73E, offset: 0x2E73E, size: 0x8, addend: 0x0, symName: __ZSt18__allocate_guardedISaISt23_Sp_counted_ptr_inplaceI5GluonSaIS1_ELN9__gnu_cxx12_Lock_policyE2EEEESt15__allocated_ptrIT_ERS8_, symObjAddr: 0xCFDC, symBinAddr: 0x10001056C, symSize: 0x40 }
  - { offsetInCU: 0x2E746, offset: 0x2E746, size: 0x8, addend: 0x0, symName: __ZNSt15__allocated_ptrISaISt23_Sp_counted_ptr_inplaceI5GluonSaIS1_ELN9__gnu_cxx12_Lock_policyE2EEEED1Ev, symObjAddr: 0xD01C, symBinAddr: 0x1000105AC, symSize: 0x48 }
  - { offsetInCU: 0x2E701, offset: 0x2E701, size: 0x8, addend: 0x0, symName: __ZNSaISt23_Sp_counted_ptr_inplaceI5GluonSaIS0_ELN9__gnu_cxx12_Lock_policyE2EEED1Ev, symObjAddr: 0xCFBC, symBinAddr: 0x10001054C, symSize: 0x20 }
  - { offsetInCU: 0x2E709, offset: 0x2E709, size: 0x8, addend: 0x0, symName: __ZSt18__allocate_guardedISaISt23_Sp_counted_ptr_inplaceI5GluonSaIS1_ELN9__gnu_cxx12_Lock_policyE2EEEESt15__allocated_ptrIT_ERS8_, symObjAddr: 0xCFDC, symBinAddr: 0x10001056C, symSize: 0x40 }
  - { offsetInCU: 0x2E76A, offset: 0x2E76A, size: 0x8, addend: 0x0, symName: __ZNSaISt23_Sp_counted_ptr_inplaceI5GluonSaIS0_ELN9__gnu_cxx12_Lock_policyE2EEEC1IS0_EERKSaIT_E, symObjAddr: 0xCF98, symBinAddr: 0x100010528, symSize: 0x24 }
  - { offsetInCU: 0x2E772, offset: 0x2E772, size: 0x8, addend: 0x0, symName: __ZNSaISt23_Sp_counted_ptr_inplaceI5GluonSaIS0_ELN9__gnu_cxx12_Lock_policyE2EEED1Ev, symObjAddr: 0xCFBC, symBinAddr: 0x10001054C, symSize: 0x20 }
  - { offsetInCU: 0x2E87A, offset: 0x2E87A, size: 0x8, addend: 0x0, symName: __ZNSt23_Sp_counted_ptr_inplaceI8NeutrinoSaIS0_ELN9__gnu_cxx12_Lock_policyE2EEC1IJddddb14Lepton_flavourbEEES1_DpOT_, symObjAddr: 0xCE50, symBinAddr: 0x1000103E0, symSize: 0x148 }
  - { offsetInCU: 0x2E882, offset: 0x2E882, size: 0x8, addend: 0x0, symName: __ZNSaISt23_Sp_counted_ptr_inplaceI5GluonSaIS0_ELN9__gnu_cxx12_Lock_policyE2EEEC1IS0_EERKSaIT_E, symObjAddr: 0xCF98, symBinAddr: 0x100010528, symSize: 0x24 }
  - { offsetInCU: 0x2E9D2, offset: 0x2E9D2, size: 0x8, addend: 0x0, symName: __ZNSt23_Sp_counted_ptr_inplaceI3TauSaIS0_ELN9__gnu_cxx12_Lock_policyE2EEC1IJdiiibEEES1_DpOT_, symObjAddr: 0xCD3C, symBinAddr: 0x1000102CC, symSize: 0x114 }
  - { offsetInCU: 0x2E9DA, offset: 0x2E9DA, size: 0x8, addend: 0x0, symName: __ZNSt23_Sp_counted_ptr_inplaceI8NeutrinoSaIS0_ELN9__gnu_cxx12_Lock_policyE2EEC1IJddddb14Lepton_flavourbEEES1_DpOT_, symObjAddr: 0xCE50, symBinAddr: 0x1000103E0, symSize: 0x148 }
  - { offsetInCU: 0x2EB57, offset: 0x2EB57, size: 0x8, addend: 0x0, symName: __ZNSt23_Sp_counted_ptr_inplaceI5QuarkSaIS0_ELN9__gnu_cxx12_Lock_policyE2EEC1IJdiiib13Quark_flavour11Colour_listEEES1_DpOT_, symObjAddr: 0xCBF4, symBinAddr: 0x100010184, symSize: 0x148 }
  - { offsetInCU: 0x2EB5F, offset: 0x2EB5F, size: 0x8, addend: 0x0, symName: __ZNSt23_Sp_counted_ptr_inplaceI3TauSaIS0_ELN9__gnu_cxx12_Lock_policyE2EEC1IJdiiibEEES1_DpOT_, symObjAddr: 0xCD3C, symBinAddr: 0x1000102CC, symSize: 0x114 }
  - { offsetInCU: 0x2EBB9, offset: 0x2EBB9, size: 0x8, addend: 0x0, symName: __ZNSt23_Sp_counted_ptr_inplaceI4MuonSaIS0_ELN9__gnu_cxx12_Lock_policyE2EE6_M_ptrEv, symObjAddr: 0xCBD4, symBinAddr: 0x100010164, symSize: 0x20 }
  - { offsetInCU: 0x2EBC1, offset: 0x2EBC1, size: 0x8, addend: 0x0, symName: __ZNSt23_Sp_counted_ptr_inplaceI5QuarkSaIS0_ELN9__gnu_cxx12_Lock_policyE2EEC1IJdiiib13Quark_flavour11Colour_listEEES1_DpOT_, symObjAddr: 0xCBF4, symBinAddr: 0x100010184, symSize: 0x148 }
  - { offsetInCU: 0x2EBE8, offset: 0x2EBE8, size: 0x8, addend: 0x0, symName: __ZNSt15__allocated_ptrISaISt23_Sp_counted_ptr_inplaceI4MuonSaIS1_ELN9__gnu_cxx12_Lock_policyE2EEEEaSEDn, symObjAddr: 0xCBB4, symBinAddr: 0x100010144, symSize: 0x20 }
  - { offsetInCU: 0x2EBF0, offset: 0x2EBF0, size: 0x8, addend: 0x0, symName: __ZNSt23_Sp_counted_ptr_inplaceI4MuonSaIS0_ELN9__gnu_cxx12_Lock_policyE2EE6_M_ptrEv, symObjAddr: 0xCBD4, symBinAddr: 0x100010164, symSize: 0x20 }
  - { offsetInCU: 0x2ED25, offset: 0x2ED25, size: 0x8, addend: 0x0, symName: __ZNSt23_Sp_counted_ptr_inplaceI4MuonSaIS0_ELN9__gnu_cxx12_Lock_policyE2EEC1IJddddbbEEES1_DpOT_, symObjAddr: 0xCA8C, symBinAddr: 0x10001001C, symSize: 0x128 }
  - { offsetInCU: 0x2ED2D, offset: 0x2ED2D, size: 0x8, addend: 0x0, symName: __ZNSt15__allocated_ptrISaISt23_Sp_counted_ptr_inplaceI4MuonSaIS1_ELN9__gnu_cxx12_Lock_policyE2EEEEaSEDn, symObjAddr: 0xCBB4, symBinAddr: 0x100010144, symSize: 0x20 }
  - { offsetInCU: 0x2EE0E, offset: 0x2EE0E, size: 0x8, addend: 0x0, symName: __ZNSt23_Sp_counted_ptr_inplaceI4MuonSaIS0_ELN9__gnu_cxx12_Lock_policyE2EE5_ImplD1Ev, symObjAddr: 0xCA6C, symBinAddr: 0x10000FFFC, symSize: 0x20 }
  - { offsetInCU: 0x2EE16, offset: 0x2EE16, size: 0x8, addend: 0x0, symName: __ZNSt23_Sp_counted_ptr_inplaceI4MuonSaIS0_ELN9__gnu_cxx12_Lock_policyE2EEC1IJddddbbEEES1_DpOT_, symObjAddr: 0xCA8C, symBinAddr: 0x10001001C, symSize: 0x128 }
  - { offsetInCU: 0x2EE41, offset: 0x2EE41, size: 0x8, addend: 0x0, symName: __ZNSt14_Sp_ebo_helperILi0ESaI4MuonELb1EED2Ev, symObjAddr: 0xCA4C, symBinAddr: 0x10000FFDC, symSize: 0x20 }
  - { offsetInCU: 0x2EE49, offset: 0x2EE49, size: 0x8, addend: 0x0, symName: __ZNSt23_Sp_counted_ptr_inplaceI4MuonSaIS0_ELN9__gnu_cxx12_Lock_policyE2EE5_ImplD1Ev, symObjAddr: 0xCA6C, symBinAddr: 0x10000FFFC, symSize: 0x20 }
  - { offsetInCU: 0x2EE81, offset: 0x2EE81, size: 0x8, addend: 0x0, symName: __ZNSaI4MuonEC1ERKS0_, symObjAddr: 0xCA24, symBinAddr: 0x10000FFB4, symSize: 0x28 }
  - { offsetInCU: 0x2EE89, offset: 0x2EE89, size: 0x8, addend: 0x0, symName: __ZNSt14_Sp_ebo_helperILi0ESaI4MuonELb1EED2Ev, symObjAddr: 0xCA4C, symBinAddr: 0x10000FFDC, symSize: 0x20 }
  - { offsetInCU: 0x2EEBB, offset: 0x2EEBB, size: 0x8, addend: 0x0, symName: __ZNSaI4MuonEC2ERKS0_, symObjAddr: 0xC9FC, symBinAddr: 0x10000FF8C, symSize: 0x28 }
  - { offsetInCU: 0x2EEC3, offset: 0x2EEC3, size: 0x8, addend: 0x0, symName: __ZNSaI4MuonEC1ERKS0_, symObjAddr: 0xCA24, symBinAddr: 0x10000FFB4, symSize: 0x28 }
  - { offsetInCU: 0x2EEE0, offset: 0x2EEE0, size: 0x8, addend: 0x0, symName: __ZNSt15__allocated_ptrISaISt23_Sp_counted_ptr_inplaceI4MuonSaIS1_ELN9__gnu_cxx12_Lock_policyE2EEEE3getEv, symObjAddr: 0xC9DC, symBinAddr: 0x10000FF6C, symSize: 0x20 }
  - { offsetInCU: 0x2EEE8, offset: 0x2EEE8, size: 0x8, addend: 0x0, symName: __ZNSaI4MuonEC2ERKS0_, symObjAddr: 0xC9FC, symBinAddr: 0x10000FF8C, symSize: 0x28 }
  - { offsetInCU: 0x2EF9D, offset: 0x2EF9D, size: 0x8, addend: 0x0, symName: __ZNSt15__allocated_ptrISaISt23_Sp_counted_ptr_inplaceI4MuonSaIS1_ELN9__gnu_cxx12_Lock_policyE2EEEED1Ev, symObjAddr: 0xC994, symBinAddr: 0x10000FF24, symSize: 0x48 }
  - { offsetInCU: 0x2EFA5, offset: 0x2EFA5, size: 0x8, addend: 0x0, symName: __ZNSt15__allocated_ptrISaISt23_Sp_counted_ptr_inplaceI4MuonSaIS1_ELN9__gnu_cxx12_Lock_policyE2EEEE3getEv, symObjAddr: 0xC9DC, symBinAddr: 0x10000FF6C, symSize: 0x20 }
  - { offsetInCU: 0x2F063, offset: 0x2F063, size: 0x8, addend: 0x0, symName: __ZSt18__allocate_guardedISaISt23_Sp_counted_ptr_inplaceI4MuonSaIS1_ELN9__gnu_cxx12_Lock_policyE2EEEESt15__allocated_ptrIT_ERS8_, symObjAddr: 0xC954, symBinAddr: 0x10000FEE4, symSize: 0x40 }
  - { offsetInCU: 0x2F06B, offset: 0x2F06B, size: 0x8, addend: 0x0, symName: __ZNSt15__allocated_ptrISaISt23_Sp_counted_ptr_inplaceI4MuonSaIS1_ELN9__gnu_cxx12_Lock_policyE2EEEED1Ev, symObjAddr: 0xC994, symBinAddr: 0x10000FF24, symSize: 0x48 }
  - { offsetInCU: 0x2F028, offset: 0x2F028, size: 0x8, addend: 0x0, symName: __ZNSaISt23_Sp_counted_ptr_inplaceI4MuonSaIS0_ELN9__gnu_cxx12_Lock_policyE2EEED1Ev, symObjAddr: 0xC934, symBinAddr: 0x10000FEC4, symSize: 0x20 }
  - { offsetInCU: 0x2F030, offset: 0x2F030, size: 0x8, addend: 0x0, symName: __ZSt18__allocate_guardedISaISt23_Sp_counted_ptr_inplaceI4MuonSaIS1_ELN9__gnu_cxx12_Lock_policyE2EEEESt15__allocated_ptrIT_ERS8_, symObjAddr: 0xC954, symBinAddr: 0x10000FEE4, symSize: 0x40 }
  - { offsetInCU: 0x2F091, offset: 0x2F091, size: 0x8, addend: 0x0, symName: __ZNSaISt23_Sp_counted_ptr_inplaceI4MuonSaIS0_ELN9__gnu_cxx12_Lock_policyE2EEEC1IS0_EERKSaIT_E, symObjAddr: 0xC910, symBinAddr: 0x10000FEA0, symSize: 0x24 }
  - { offsetInCU: 0x2F099, offset: 0x2F099, size: 0x8, addend: 0x0, symName: __ZNSaISt23_Sp_counted_ptr_inplaceI4MuonSaIS0_ELN9__gnu_cxx12_Lock_policyE2EEED1Ev, symObjAddr: 0xC934, symBinAddr: 0x10000FEC4, symSize: 0x20 }
  - { offsetInCU: 0x2F16D, offset: 0x2F16D, size: 0x8, addend: 0x0, symName: __ZNSt23_Sp_counted_ptr_inplaceI8ElectronSaIS0_ELN9__gnu_cxx12_Lock_policyE2EEC1IJddddbEEES1_DpOT_, symObjAddr: 0xC7FC, symBinAddr: 0x10000FD8C, symSize: 0x114 }
  - { offsetInCU: 0x2F175, offset: 0x2F175, size: 0x8, addend: 0x0, symName: __ZNSaISt23_Sp_counted_ptr_inplaceI4MuonSaIS0_ELN9__gnu_cxx12_Lock_policyE2EEEC1IS0_EERKSaIT_E, symObjAddr: 0xC910, symBinAddr: 0x10000FEA0, symSize: 0x24 }
  - { offsetInCU: 0x2F2ED, offset: 0x2F2ED, size: 0x8, addend: 0x0, symName: __ZNSt23_Sp_counted_ptr_inplaceI5QuarkSaIS0_ELN9__gnu_cxx12_Lock_policyE2EEC1IJddddb13Quark_flavour11Colour_listEEES1_DpOT_, symObjAddr: 0xC6B4, symBinAddr: 0x10000FC44, symSize: 0x148 }
  - { offsetInCU: 0x2F2F5, offset: 0x2F2F5, size: 0x8, addend: 0x0, symName: __ZNSt23_Sp_counted_ptr_inplaceI8ElectronSaIS0_ELN9__gnu_cxx12_Lock_policyE2EEC1IJddddbEEES1_DpOT_, symObjAddr: 0xC7FC, symBinAddr: 0x10000FD8C, symSize: 0x114 }
  - { offsetInCU: 0x2F34F, offset: 0x2F34F, size: 0x8, addend: 0x0, symName: __ZNSt23_Sp_counted_ptr_inplaceI8NeutrinoSaIS0_ELN9__gnu_cxx12_Lock_policyE2EE6_M_ptrEv, symObjAddr: 0xC694, symBinAddr: 0x10000FC24, symSize: 0x20 }
  - { offsetInCU: 0x2F357, offset: 0x2F357, size: 0x8, addend: 0x0, symName: __ZNSt23_Sp_counted_ptr_inplaceI5QuarkSaIS0_ELN9__gnu_cxx12_Lock_policyE2EEC1IJddddb13Quark_flavour11Colour_listEEES1_DpOT_, symObjAddr: 0xC6B4, symBinAddr: 0x10000FC44, symSize: 0x148 }
  - { offsetInCU: 0x2F37E, offset: 0x2F37E, size: 0x8, addend: 0x0, symName: __ZNSt15__allocated_ptrISaISt23_Sp_counted_ptr_inplaceI8NeutrinoSaIS1_ELN9__gnu_cxx12_Lock_policyE2EEEEaSEDn, symObjAddr: 0xC674, symBinAddr: 0x10000FC04, symSize: 0x20 }
  - { offsetInCU: 0x2F386, offset: 0x2F386, size: 0x8, addend: 0x0, symName: __ZNSt23_Sp_counted_ptr_inplaceI8NeutrinoSaIS0_ELN9__gnu_cxx12_Lock_policyE2EE6_M_ptrEv, symObjAddr: 0xC694, symBinAddr: 0x10000FC24, symSize: 0x20 }
  - { offsetInCU: 0x2F4E1, offset: 0x2F4E1, size: 0x8, addend: 0x0, symName: __ZNSt23_Sp_counted_ptr_inplaceI8NeutrinoSaIS0_ELN9__gnu_cxx12_Lock_policyE2EEC1IJdiiib14Lepton_flavourbEEES1_DpOT_, symObjAddr: 0xC52C, symBinAddr: 0x10000FABC, symSize: 0x148 }
  - { offsetInCU: 0x2F4E9, offset: 0x2F4E9, size: 0x8, addend: 0x0, symName: __ZNSt15__allocated_ptrISaISt23_Sp_counted_ptr_inplaceI8NeutrinoSaIS1_ELN9__gnu_cxx12_Lock_policyE2EEEEaSEDn, symObjAddr: 0xC674, symBinAddr: 0x10000FC04, symSize: 0x20 }
  - { offsetInCU: 0x2F5CF, offset: 0x2F5CF, size: 0x8, addend: 0x0, symName: __ZNSt23_Sp_counted_ptr_inplaceI8NeutrinoSaIS0_ELN9__gnu_cxx12_Lock_policyE2EE5_ImplD1Ev, symObjAddr: 0xC50C, symBinAddr: 0x10000FA9C, symSize: 0x20 }
  - { offsetInCU: 0x2F5D7, offset: 0x2F5D7, size: 0x8, addend: 0x0, symName: __ZNSt23_Sp_counted_ptr_inplaceI8NeutrinoSaIS0_ELN9__gnu_cxx12_Lock_policyE2EEC1IJdiiib14Lepton_flavourbEEES1_DpOT_, symObjAddr: 0xC52C, symBinAddr: 0x10000FABC, symSize: 0x148 }
  - { offsetInCU: 0x2F602, offset: 0x2F602, size: 0x8, addend: 0x0, symName: __ZNSt14_Sp_ebo_helperILi0ESaI8NeutrinoELb1EED2Ev, symObjAddr: 0xC4EC, symBinAddr: 0x10000FA7C, symSize: 0x20 }
  - { offsetInCU: 0x2F60A, offset: 0x2F60A, size: 0x8, addend: 0x0, symName: __ZNSt23_Sp_counted_ptr_inplaceI8NeutrinoSaIS0_ELN9__gnu_cxx12_Lock_policyE2EE5_ImplD1Ev, symObjAddr: 0xC50C, symBinAddr: 0x10000FA9C, symSize: 0x20 }
  - { offsetInCU: 0x2F642, offset: 0x2F642, size: 0x8, addend: 0x0, symName: __ZNSaI8NeutrinoEC1ERKS0_, symObjAddr: 0xC4C4, symBinAddr: 0x10000FA54, symSize: 0x28 }
  - { offsetInCU: 0x2F64A, offset: 0x2F64A, size: 0x8, addend: 0x0, symName: __ZNSt14_Sp_ebo_helperILi0ESaI8NeutrinoELb1EED2Ev, symObjAddr: 0xC4EC, symBinAddr: 0x10000FA7C, symSize: 0x20 }
  - { offsetInCU: 0x2F67C, offset: 0x2F67C, size: 0x8, addend: 0x0, symName: __ZNSaI8NeutrinoEC2ERKS0_, symObjAddr: 0xC49C, symBinAddr: 0x10000FA2C, symSize: 0x28 }
  - { offsetInCU: 0x2F684, offset: 0x2F684, size: 0x8, addend: 0x0, symName: __ZNSaI8NeutrinoEC1ERKS0_, symObjAddr: 0xC4C4, symBinAddr: 0x10000FA54, symSize: 0x28 }
  - { offsetInCU: 0x2F69D, offset: 0x2F69D, size: 0x8, addend: 0x0, symName: __ZNSt15__allocated_ptrISaISt23_Sp_counted_ptr_inplaceI8NeutrinoSaIS1_ELN9__gnu_cxx12_Lock_policyE2EEEE3getEv, symObjAddr: 0xC47C, symBinAddr: 0x10000FA0C, symSize: 0x20 }
  - { offsetInCU: 0x2F6A5, offset: 0x2F6A5, size: 0x8, addend: 0x0, symName: __ZNSaI8NeutrinoEC2ERKS0_, symObjAddr: 0xC49C, symBinAddr: 0x10000FA2C, symSize: 0x28 }
  - { offsetInCU: 0x2F75E, offset: 0x2F75E, size: 0x8, addend: 0x0, symName: __ZNSt15__allocated_ptrISaISt23_Sp_counted_ptr_inplaceI8NeutrinoSaIS1_ELN9__gnu_cxx12_Lock_policyE2EEEED1Ev, symObjAddr: 0xC434, symBinAddr: 0x10000F9C4, symSize: 0x48 }
  - { offsetInCU: 0x2F766, offset: 0x2F766, size: 0x8, addend: 0x0, symName: __ZNSt15__allocated_ptrISaISt23_Sp_counted_ptr_inplaceI8NeutrinoSaIS1_ELN9__gnu_cxx12_Lock_policyE2EEEE3getEv, symObjAddr: 0xC47C, symBinAddr: 0x10000FA0C, symSize: 0x20 }
  - { offsetInCU: 0x2F82C, offset: 0x2F82C, size: 0x8, addend: 0x0, symName: __ZSt18__allocate_guardedISaISt23_Sp_counted_ptr_inplaceI8NeutrinoSaIS1_ELN9__gnu_cxx12_Lock_policyE2EEEESt15__allocated_ptrIT_ERS8_, symObjAddr: 0xC3F4, symBinAddr: 0x10000F984, symSize: 0x40 }
  - { offsetInCU: 0x2F834, offset: 0x2F834, size: 0x8, addend: 0x0, symName: __ZNSt15__allocated_ptrISaISt23_Sp_counted_ptr_inplaceI8NeutrinoSaIS1_ELN9__gnu_cxx12_Lock_policyE2EEEED1Ev, symObjAddr: 0xC434, symBinAddr: 0x10000F9C4, symSize: 0x48 }
  - { offsetInCU: 0x2F7E9, offset: 0x2F7E9, size: 0x8, addend: 0x0, symName: __ZNSaISt23_Sp_counted_ptr_inplaceI8NeutrinoSaIS0_ELN9__gnu_cxx12_Lock_policyE2EEED1Ev, symObjAddr: 0xC3D4, symBinAddr: 0x10000F964, symSize: 0x20 }
  - { offsetInCU: 0x2F7F1, offset: 0x2F7F1, size: 0x8, addend: 0x0, symName: __ZSt18__allocate_guardedISaISt23_Sp_counted_ptr_inplaceI8NeutrinoSaIS1_ELN9__gnu_cxx12_Lock_policyE2EEEESt15__allocated_ptrIT_ERS8_, symObjAddr: 0xC3F4, symBinAddr: 0x10000F984, symSize: 0x40 }
  - { offsetInCU: 0x2F852, offset: 0x2F852, size: 0x8, addend: 0x0, symName: __ZNSaISt23_Sp_counted_ptr_inplaceI8NeutrinoSaIS0_ELN9__gnu_cxx12_Lock_policyE2EEEC1IS0_EERKSaIT_E, symObjAddr: 0xC3B0, symBinAddr: 0x10000F940, symSize: 0x24 }
  - { offsetInCU: 0x2F85A, offset: 0x2F85A, size: 0x8, addend: 0x0, symName: __ZNSaISt23_Sp_counted_ptr_inplaceI8NeutrinoSaIS0_ELN9__gnu_cxx12_Lock_policyE2EEED1Ev, symObjAddr: 0xC3D4, symBinAddr: 0x10000F964, symSize: 0x20 }
  - { offsetInCU: 0x2F837, offset: 0x2F837, size: 0x8, addend: 0x0, symName: __ZNSt23_Sp_counted_ptr_inplaceI8ElectronSaIS0_ELN9__gnu_cxx12_Lock_policyE2EE6_M_ptrEv, symObjAddr: 0xC390, symBinAddr: 0x10000F920, symSize: 0x20 }
  - { offsetInCU: 0x2F83F, offset: 0x2F83F, size: 0x8, addend: 0x0, symName: __ZNSaISt23_Sp_counted_ptr_inplaceI8NeutrinoSaIS0_ELN9__gnu_cxx12_Lock_policyE2EEEC1IS0_EERKSaIT_E, symObjAddr: 0xC3B0, symBinAddr: 0x10000F940, symSize: 0x24 }
  - { offsetInCU: 0x2F866, offset: 0x2F866, size: 0x8, addend: 0x0, symName: __ZNSt15__allocated_ptrISaISt23_Sp_counted_ptr_inplaceI8ElectronSaIS1_ELN9__gnu_cxx12_Lock_policyE2EEEEaSEDn, symObjAddr: 0xC370, symBinAddr: 0x10000F900, symSize: 0x20 }
  - { offsetInCU: 0x2F86E, offset: 0x2F86E, size: 0x8, addend: 0x0, symName: __ZNSt23_Sp_counted_ptr_inplaceI8ElectronSaIS0_ELN9__gnu_cxx12_Lock_policyE2EE6_M_ptrEv, symObjAddr: 0xC390, symBinAddr: 0x10000F920, symSize: 0x20 }
  - { offsetInCU: 0x2F994, offset: 0x2F994, size: 0x8, addend: 0x0, symName: __ZNSt23_Sp_counted_ptr_inplaceI8ElectronSaIS0_ELN9__gnu_cxx12_Lock_policyE2EEC1IJdiiibEEES1_DpOT_, symObjAddr: 0xC25C, symBinAddr: 0x10000F7EC, symSize: 0x114 }
  - { offsetInCU: 0x2F99C, offset: 0x2F99C, size: 0x8, addend: 0x0, symName: __ZNSt15__allocated_ptrISaISt23_Sp_counted_ptr_inplaceI8ElectronSaIS1_ELN9__gnu_cxx12_Lock_policyE2EEEEaSEDn, symObjAddr: 0xC370, symBinAddr: 0x10000F900, symSize: 0x20 }
  - { offsetInCU: 0x2FA68, offset: 0x2FA68, size: 0x8, addend: 0x0, symName: __ZNSt23_Sp_counted_ptr_inplaceI8ElectronSaIS0_ELN9__gnu_cxx12_Lock_policyE2EE5_ImplD1Ev, symObjAddr: 0xC23C, symBinAddr: 0x10000F7CC, symSize: 0x20 }
  - { offsetInCU: 0x2FA70, offset: 0x2FA70, size: 0x8, addend: 0x0, symName: __ZNSt23_Sp_counted_ptr_inplaceI8ElectronSaIS0_ELN9__gnu_cxx12_Lock_policyE2EEC1IJdiiibEEES1_DpOT_, symObjAddr: 0xC25C, symBinAddr: 0x10000F7EC, symSize: 0x114 }
  - { offsetInCU: 0x2FA9B, offset: 0x2FA9B, size: 0x8, addend: 0x0, symName: __ZNSt14_Sp_ebo_helperILi0ESaI8ElectronELb1EED2Ev, symObjAddr: 0xC21C, symBinAddr: 0x10000F7AC, symSize: 0x20 }
  - { offsetInCU: 0x2FAA3, offset: 0x2FAA3, size: 0x8, addend: 0x0, symName: __ZNSt23_Sp_counted_ptr_inplaceI8ElectronSaIS0_ELN9__gnu_cxx12_Lock_policyE2EE5_ImplD1Ev, symObjAddr: 0xC23C, symBinAddr: 0x10000F7CC, symSize: 0x20 }
  - { offsetInCU: 0x2FADB, offset: 0x2FADB, size: 0x8, addend: 0x0, symName: __ZNSaI8ElectronEC1ERKS0_, symObjAddr: 0xC1F4, symBinAddr: 0x10000F784, symSize: 0x28 }
  - { offsetInCU: 0x2FAE3, offset: 0x2FAE3, size: 0x8, addend: 0x0, symName: __ZNSt14_Sp_ebo_helperILi0ESaI8ElectronELb1EED2Ev, symObjAddr: 0xC21C, symBinAddr: 0x10000F7AC, symSize: 0x20 }
  - { offsetInCU: 0x2FB15, offset: 0x2FB15, size: 0x8, addend: 0x0, symName: __ZNSaI8ElectronEC2ERKS0_, symObjAddr: 0xC1CC, symBinAddr: 0x10000F75C, symSize: 0x28 }
  - { offsetInCU: 0x2FB1D, offset: 0x2FB1D, size: 0x8, addend: 0x0, symName: __ZNSaI8ElectronEC1ERKS0_, symObjAddr: 0xC1F4, symBinAddr: 0x10000F784, symSize: 0x28 }
  - { offsetInCU: 0x2FB36, offset: 0x2FB36, size: 0x8, addend: 0x0, symName: __ZNSt15__allocated_ptrISaISt23_Sp_counted_ptr_inplaceI8ElectronSaIS1_ELN9__gnu_cxx12_Lock_policyE2EEEE3getEv, symObjAddr: 0xC1AC, symBinAddr: 0x10000F73C, symSize: 0x20 }
  - { offsetInCU: 0x2FB3E, offset: 0x2FB3E, size: 0x8, addend: 0x0, symName: __ZNSaI8ElectronEC2ERKS0_, symObjAddr: 0xC1CC, symBinAddr: 0x10000F75C, symSize: 0x28 }
  - { offsetInCU: 0x2FBF7, offset: 0x2FBF7, size: 0x8, addend: 0x0, symName: __ZNSt15__allocated_ptrISaISt23_Sp_counted_ptr_inplaceI8ElectronSaIS1_ELN9__gnu_cxx12_Lock_policyE2EEEED1Ev, symObjAddr: 0xC164, symBinAddr: 0x10000F6F4, symSize: 0x48 }
  - { offsetInCU: 0x2FBFF, offset: 0x2FBFF, size: 0x8, addend: 0x0, symName: __ZNSt15__allocated_ptrISaISt23_Sp_counted_ptr_inplaceI8ElectronSaIS1_ELN9__gnu_cxx12_Lock_policyE2EEEE3getEv, symObjAddr: 0xC1AC, symBinAddr: 0x10000F73C, symSize: 0x20 }
  - { offsetInCU: 0x2FCC5, offset: 0x2FCC5, size: 0x8, addend: 0x0, symName: __ZSt18__allocate_guardedISaISt23_Sp_counted_ptr_inplaceI8ElectronSaIS1_ELN9__gnu_cxx12_Lock_policyE2EEEESt15__allocated_ptrIT_ERS8_, symObjAddr: 0xC124, symBinAddr: 0x10000F6B4, symSize: 0x40 }
  - { offsetInCU: 0x2FCCD, offset: 0x2FCCD, size: 0x8, addend: 0x0, symName: __ZNSt15__allocated_ptrISaISt23_Sp_counted_ptr_inplaceI8ElectronSaIS1_ELN9__gnu_cxx12_Lock_policyE2EEEED1Ev, symObjAddr: 0xC164, symBinAddr: 0x10000F6F4, symSize: 0x48 }
  - { offsetInCU: 0x2FC82, offset: 0x2FC82, size: 0x8, addend: 0x0, symName: __ZNSaISt23_Sp_counted_ptr_inplaceI8ElectronSaIS0_ELN9__gnu_cxx12_Lock_policyE2EEED1Ev, symObjAddr: 0xC104, symBinAddr: 0x10000F694, symSize: 0x20 }
  - { offsetInCU: 0x2FC8A, offset: 0x2FC8A, size: 0x8, addend: 0x0, symName: __ZSt18__allocate_guardedISaISt23_Sp_counted_ptr_inplaceI8ElectronSaIS1_ELN9__gnu_cxx12_Lock_policyE2EEEESt15__allocated_ptrIT_ERS8_, symObjAddr: 0xC124, symBinAddr: 0x10000F6B4, symSize: 0x40 }
  - { offsetInCU: 0x2FCEB, offset: 0x2FCEB, size: 0x8, addend: 0x0, symName: __ZNSaISt23_Sp_counted_ptr_inplaceI8ElectronSaIS0_ELN9__gnu_cxx12_Lock_policyE2EEEC1IS0_EERKSaIT_E, symObjAddr: 0xC0E0, symBinAddr: 0x10000F670, symSize: 0x24 }
  - { offsetInCU: 0x2FCF3, offset: 0x2FCF3, size: 0x8, addend: 0x0, symName: __ZNSaISt23_Sp_counted_ptr_inplaceI8ElectronSaIS0_ELN9__gnu_cxx12_Lock_policyE2EEED1Ev, symObjAddr: 0xC104, symBinAddr: 0x10000F694, symSize: 0x20 }
  - { offsetInCU: 0x2FCD0, offset: 0x2FCD0, size: 0x8, addend: 0x0, symName: __ZNSt23_Sp_counted_ptr_inplaceI3TauSaIS0_ELN9__gnu_cxx12_Lock_policyE2EE6_M_ptrEv, symObjAddr: 0xC0C0, symBinAddr: 0x10000F650, symSize: 0x20 }
  - { offsetInCU: 0x2FCD8, offset: 0x2FCD8, size: 0x8, addend: 0x0, symName: __ZNSaISt23_Sp_counted_ptr_inplaceI8ElectronSaIS0_ELN9__gnu_cxx12_Lock_policyE2EEEC1IS0_EERKSaIT_E, symObjAddr: 0xC0E0, symBinAddr: 0x10000F670, symSize: 0x24 }
  - { offsetInCU: 0x2FCFF, offset: 0x2FCFF, size: 0x8, addend: 0x0, symName: __ZNSt15__allocated_ptrISaISt23_Sp_counted_ptr_inplaceI3TauSaIS1_ELN9__gnu_cxx12_Lock_policyE2EEEEaSEDn, symObjAddr: 0xC0A0, symBinAddr: 0x10000F630, symSize: 0x20 }
  - { offsetInCU: 0x2FD07, offset: 0x2FD07, size: 0x8, addend: 0x0, symName: __ZNSt23_Sp_counted_ptr_inplaceI3TauSaIS0_ELN9__gnu_cxx12_Lock_policyE2EE6_M_ptrEv, symObjAddr: 0xC0C0, symBinAddr: 0x10000F650, symSize: 0x20 }
  - { offsetInCU: 0x2FE28, offset: 0x2FE28, size: 0x8, addend: 0x0, symName: __ZNSt23_Sp_counted_ptr_inplaceI3TauSaIS0_ELN9__gnu_cxx12_Lock_policyE2EEC1IJddddbEEES1_DpOT_, symObjAddr: 0xBF8C, symBinAddr: 0x10000F51C, symSize: 0x114 }
  - { offsetInCU: 0x2FE30, offset: 0x2FE30, size: 0x8, addend: 0x0, symName: __ZNSt15__allocated_ptrISaISt23_Sp_counted_ptr_inplaceI3TauSaIS1_ELN9__gnu_cxx12_Lock_policyE2EEEEaSEDn, symObjAddr: 0xC0A0, symBinAddr: 0x10000F630, symSize: 0x20 }
  - { offsetInCU: 0x2FEFC, offset: 0x2FEFC, size: 0x8, addend: 0x0, symName: __ZNSt23_Sp_counted_ptr_inplaceI3TauSaIS0_ELN9__gnu_cxx12_Lock_policyE2EE5_ImplD1Ev, symObjAddr: 0xBF6C, symBinAddr: 0x10000F4FC, symSize: 0x20 }
  - { offsetInCU: 0x2FF04, offset: 0x2FF04, size: 0x8, addend: 0x0, symName: __ZNSt23_Sp_counted_ptr_inplaceI3TauSaIS0_ELN9__gnu_cxx12_Lock_policyE2EEC1IJddddbEEES1_DpOT_, symObjAddr: 0xBF8C, symBinAddr: 0x10000F51C, symSize: 0x114 }
  - { offsetInCU: 0x2FF2F, offset: 0x2FF2F, size: 0x8, addend: 0x0, symName: __ZNSt14_Sp_ebo_helperILi0ESaI3TauELb1EED2Ev, symObjAddr: 0xBF4C, symBinAddr: 0x10000F4DC, symSize: 0x20 }
  - { offsetInCU: 0x2FF37, offset: 0x2FF37, size: 0x8, addend: 0x0, symName: __ZNSt23_Sp_counted_ptr_inplaceI3TauSaIS0_ELN9__gnu_cxx12_Lock_policyE2EE5_ImplD1Ev, symObjAddr: 0xBF6C, symBinAddr: 0x10000F4FC, symSize: 0x20 }
  - { offsetInCU: 0x2FF6F, offset: 0x2FF6F, size: 0x8, addend: 0x0, symName: __ZNSaI3TauEC1ERKS0_, symObjAddr: 0xBF24, symBinAddr: 0x10000F4B4, symSize: 0x28 }
  - { offsetInCU: 0x2FF77, offset: 0x2FF77, size: 0x8, addend: 0x0, symName: __ZNSt14_Sp_ebo_helperILi0ESaI3TauELb1EED2Ev, symObjAddr: 0xBF4C, symBinAddr: 0x10000F4DC, symSize: 0x20 }
  - { offsetInCU: 0x2FFA9, offset: 0x2FFA9, size: 0x8, addend: 0x0, symName: __ZNSaI3TauEC2ERKS0_, symObjAddr: 0xBEFC, symBinAddr: 0x10000F48C, symSize: 0x28 }
  - { offsetInCU: 0x2FFB1, offset: 0x2FFB1, size: 0x8, addend: 0x0, symName: __ZNSaI3TauEC1ERKS0_, symObjAddr: 0xBF24, symBinAddr: 0x10000F4B4, symSize: 0x28 }
  - { offsetInCU: 0x2FFCF, offset: 0x2FFCF, size: 0x8, addend: 0x0, symName: __ZNSt15__allocated_ptrISaISt23_Sp_counted_ptr_inplaceI3TauSaIS1_ELN9__gnu_cxx12_Lock_policyE2EEEE3getEv, symObjAddr: 0xBEDC, symBinAddr: 0x10000F46C, symSize: 0x20 }
  - { offsetInCU: 0x2FFD7, offset: 0x2FFD7, size: 0x8, addend: 0x0, symName: __ZNSaI3TauEC2ERKS0_, symObjAddr: 0xBEFC, symBinAddr: 0x10000F48C, symSize: 0x28 }
  - { offsetInCU: 0x3008B, offset: 0x3008B, size: 0x8, addend: 0x0, symName: __ZNSt15__allocated_ptrISaISt23_Sp_counted_ptr_inplaceI3TauSaIS1_ELN9__gnu_cxx12_Lock_policyE2EEEED1Ev, symObjAddr: 0xBE94, symBinAddr: 0x10000F424, symSize: 0x48 }
  - { offsetInCU: 0x30093, offset: 0x30093, size: 0x8, addend: 0x0, symName: __ZNSt15__allocated_ptrISaISt23_Sp_counted_ptr_inplaceI3TauSaIS1_ELN9__gnu_cxx12_Lock_policyE2EEEE3getEv, symObjAddr: 0xBEDC, symBinAddr: 0x10000F46C, symSize: 0x20 }
  - { offsetInCU: 0x3014F, offset: 0x3014F, size: 0x8, addend: 0x0, symName: __ZSt18__allocate_guardedISaISt23_Sp_counted_ptr_inplaceI3TauSaIS1_ELN9__gnu_cxx12_Lock_policyE2EEEESt15__allocated_ptrIT_ERS8_, symObjAddr: 0xBE54, symBinAddr: 0x10000F3E4, symSize: 0x40 }
  - { offsetInCU: 0x30157, offset: 0x30157, size: 0x8, addend: 0x0, symName: __ZNSt15__allocated_ptrISaISt23_Sp_counted_ptr_inplaceI3TauSaIS1_ELN9__gnu_cxx12_Lock_policyE2EEEED1Ev, symObjAddr: 0xBE94, symBinAddr: 0x10000F424, symSize: 0x48 }
  - { offsetInCU: 0x30116, offset: 0x30116, size: 0x8, addend: 0x0, symName: __ZNSaISt23_Sp_counted_ptr_inplaceI3TauSaIS0_ELN9__gnu_cxx12_Lock_policyE2EEED1Ev, symObjAddr: 0xBE34, symBinAddr: 0x10000F3C4, symSize: 0x20 }
  - { offsetInCU: 0x3011E, offset: 0x3011E, size: 0x8, addend: 0x0, symName: __ZSt18__allocate_guardedISaISt23_Sp_counted_ptr_inplaceI3TauSaIS1_ELN9__gnu_cxx12_Lock_policyE2EEEESt15__allocated_ptrIT_ERS8_, symObjAddr: 0xBE54, symBinAddr: 0x10000F3E4, symSize: 0x40 }
  - { offsetInCU: 0x3017F, offset: 0x3017F, size: 0x8, addend: 0x0, symName: __ZNSaISt23_Sp_counted_ptr_inplaceI3TauSaIS0_ELN9__gnu_cxx12_Lock_policyE2EEEC1IS0_EERKSaIT_E, symObjAddr: 0xBE10, symBinAddr: 0x10000F3A0, symSize: 0x24 }
  - { offsetInCU: 0x30187, offset: 0x30187, size: 0x8, addend: 0x0, symName: __ZNSaISt23_Sp_counted_ptr_inplaceI3TauSaIS0_ELN9__gnu_cxx12_Lock_policyE2EEED1Ev, symObjAddr: 0xBE34, symBinAddr: 0x10000F3C4, symSize: 0x20 }
  - { offsetInCU: 0x30169, offset: 0x30169, size: 0x8, addend: 0x0, symName: __ZNSt23_Sp_counted_ptr_inplaceI5QuarkSaIS0_ELN9__gnu_cxx12_Lock_policyE2EE6_M_ptrEv, symObjAddr: 0xBDF0, symBinAddr: 0x10000F380, symSize: 0x20 }
  - { offsetInCU: 0x30171, offset: 0x30171, size: 0x8, addend: 0x0, symName: __ZNSaISt23_Sp_counted_ptr_inplaceI3TauSaIS0_ELN9__gnu_cxx12_Lock_policyE2EEEC1IS0_EERKSaIT_E, symObjAddr: 0xBE10, symBinAddr: 0x10000F3A0, symSize: 0x24 }
  - { offsetInCU: 0x30198, offset: 0x30198, size: 0x8, addend: 0x0, symName: __ZNSt15__allocated_ptrISaISt23_Sp_counted_ptr_inplaceI5QuarkSaIS1_ELN9__gnu_cxx12_Lock_policyE2EEEEaSEDn, symObjAddr: 0xBDD0, symBinAddr: 0x10000F360, symSize: 0x20 }
  - { offsetInCU: 0x301A0, offset: 0x301A0, size: 0x8, addend: 0x0, symName: __ZNSt23_Sp_counted_ptr_inplaceI5QuarkSaIS0_ELN9__gnu_cxx12_Lock_policyE2EE6_M_ptrEv, symObjAddr: 0xBDF0, symBinAddr: 0x10000F380, symSize: 0x20 }
  - { offsetInCU: 0x30303, offset: 0x30303, size: 0x8, addend: 0x0, symName: __ZNSt23_Sp_counted_ptr_inplaceI5QuarkSaIS0_ELN9__gnu_cxx12_Lock_policyE2EEC1IJiiiib13Quark_flavour11Colour_listEEES1_DpOT_, symObjAddr: 0xBC88, symBinAddr: 0x10000F218, symSize: 0x148 }
  - { offsetInCU: 0x3030B, offset: 0x3030B, size: 0x8, addend: 0x0, symName: __ZNSt15__allocated_ptrISaISt23_Sp_counted_ptr_inplaceI5QuarkSaIS1_ELN9__gnu_cxx12_Lock_policyE2EEEEaSEDn, symObjAddr: 0xBDD0, symBinAddr: 0x10000F360, symSize: 0x20 }
  - { offsetInCU: 0x303E6, offset: 0x303E6, size: 0x8, addend: 0x0, symName: __ZNSt23_Sp_counted_ptr_inplaceI5QuarkSaIS0_ELN9__gnu_cxx12_Lock_policyE2EE5_ImplD1Ev, symObjAddr: 0xBC68, symBinAddr: 0x10000F1F8, symSize: 0x20 }
  - { offsetInCU: 0x303EE, offset: 0x303EE, size: 0x8, addend: 0x0, symName: __ZNSt23_Sp_counted_ptr_inplaceI5QuarkSaIS0_ELN9__gnu_cxx12_Lock_policyE2EEC1IJiiiib13Quark_flavour11Colour_listEEES1_DpOT_, symObjAddr: 0xBC88, symBinAddr: 0x10000F218, symSize: 0x148 }
  - { offsetInCU: 0x30419, offset: 0x30419, size: 0x8, addend: 0x0, symName: __ZNSt14_Sp_ebo_helperILi0ESaI5QuarkELb1EED2Ev, symObjAddr: 0xBC48, symBinAddr: 0x10000F1D8, symSize: 0x20 }
  - { offsetInCU: 0x30421, offset: 0x30421, size: 0x8, addend: 0x0, symName: __ZNSt23_Sp_counted_ptr_inplaceI5QuarkSaIS0_ELN9__gnu_cxx12_Lock_policyE2EE5_ImplD1Ev, symObjAddr: 0xBC68, symBinAddr: 0x10000F1F8, symSize: 0x20 }
  - { offsetInCU: 0x30459, offset: 0x30459, size: 0x8, addend: 0x0, symName: __ZNSaI5QuarkEC1ERKS0_, symObjAddr: 0xBC20, symBinAddr: 0x10000F1B0, symSize: 0x28 }
  - { offsetInCU: 0x30461, offset: 0x30461, size: 0x8, addend: 0x0, symName: __ZNSt14_Sp_ebo_helperILi0ESaI5QuarkELb1EED2Ev, symObjAddr: 0xBC48, symBinAddr: 0x10000F1D8, symSize: 0x20 }
  - { offsetInCU: 0x30493, offset: 0x30493, size: 0x8, addend: 0x0, symName: __ZNSaI5QuarkEC2ERKS0_, symObjAddr: 0xBBF8, symBinAddr: 0x10000F188, symSize: 0x28 }
  - { offsetInCU: 0x3049B, offset: 0x3049B, size: 0x8, addend: 0x0, symName: __ZNSaI5QuarkEC1ERKS0_, symObjAddr: 0xBC20, symBinAddr: 0x10000F1B0, symSize: 0x28 }
  - { offsetInCU: 0x304B7, offset: 0x304B7, size: 0x8, addend: 0x0, symName: __ZNSt15__allocated_ptrISaISt23_Sp_counted_ptr_inplaceI5QuarkSaIS1_ELN9__gnu_cxx12_Lock_policyE2EEEE3getEv, symObjAddr: 0xBBD8, symBinAddr: 0x10000F168, symSize: 0x20 }
  - { offsetInCU: 0x304BF, offset: 0x304BF, size: 0x8, addend: 0x0, symName: __ZNSaI5QuarkEC2ERKS0_, symObjAddr: 0xBBF8, symBinAddr: 0x10000F188, symSize: 0x28 }
  - { offsetInCU: 0x30575, offset: 0x30575, size: 0x8, addend: 0x0, symName: __ZNSt15__allocated_ptrISaISt23_Sp_counted_ptr_inplaceI5QuarkSaIS1_ELN9__gnu_cxx12_Lock_policyE2EEEED1Ev, symObjAddr: 0xBB90, symBinAddr: 0x10000F120, symSize: 0x48 }
  - { offsetInCU: 0x3057D, offset: 0x3057D, size: 0x8, addend: 0x0, symName: __ZNSt15__allocated_ptrISaISt23_Sp_counted_ptr_inplaceI5QuarkSaIS1_ELN9__gnu_cxx12_Lock_policyE2EEEE3getEv, symObjAddr: 0xBBD8, symBinAddr: 0x10000F168, symSize: 0x20 }
  - { offsetInCU: 0x3063D, offset: 0x3063D, size: 0x8, addend: 0x0, symName: __ZSt18__allocate_guardedISaISt23_Sp_counted_ptr_inplaceI5QuarkSaIS1_ELN9__gnu_cxx12_Lock_policyE2EEEESt15__allocated_ptrIT_ERS8_, symObjAddr: 0xBB50, symBinAddr: 0x10000F0E0, symSize: 0x40 }
  - { offsetInCU: 0x30645, offset: 0x30645, size: 0x8, addend: 0x0, symName: __ZNSt15__allocated_ptrISaISt23_Sp_counted_ptr_inplaceI5QuarkSaIS1_ELN9__gnu_cxx12_Lock_policyE2EEEED1Ev, symObjAddr: 0xBB90, symBinAddr: 0x10000F120, symSize: 0x48 }
  - { offsetInCU: 0x30600, offset: 0x30600, size: 0x8, addend: 0x0, symName: __ZNSaISt23_Sp_counted_ptr_inplaceI5QuarkSaIS0_ELN9__gnu_cxx12_Lock_policyE2EEED1Ev, symObjAddr: 0xBB30, symBinAddr: 0x10000F0C0, symSize: 0x20 }
  - { offsetInCU: 0x30608, offset: 0x30608, size: 0x8, addend: 0x0, symName: __ZSt18__allocate_guardedISaISt23_Sp_counted_ptr_inplaceI5QuarkSaIS1_ELN9__gnu_cxx12_Lock_policyE2EEEESt15__allocated_ptrIT_ERS8_, symObjAddr: 0xBB50, symBinAddr: 0x10000F0E0, symSize: 0x40 }
  - { offsetInCU: 0x30669, offset: 0x30669, size: 0x8, addend: 0x0, symName: __ZNSaISt23_Sp_counted_ptr_inplaceI5QuarkSaIS0_ELN9__gnu_cxx12_Lock_policyE2EEEC1IS0_EERKSaIT_E, symObjAddr: 0xBB0C, symBinAddr: 0x10000F09C, symSize: 0x24 }
  - { offsetInCU: 0x30671, offset: 0x30671, size: 0x8, addend: 0x0, symName: __ZNSaISt23_Sp_counted_ptr_inplaceI5QuarkSaIS0_ELN9__gnu_cxx12_Lock_policyE2EEED1Ev, symObjAddr: 0xBB30, symBinAddr: 0x10000F0C0, symSize: 0x20 }
  - { offsetInCU: 0x30714, offset: 0x30714, size: 0x8, addend: 0x0, symName: __ZSt14__relocate_a_1IPSt10shared_ptrI8ParticleES3_SaIS2_EET0_T_S6_S5_RT1_, symObjAddr: 0xBA88, symBinAddr: 0x10000F018, symSize: 0x84 }
  - { offsetInCU: 0x3071C, offset: 0x3071C, size: 0x8, addend: 0x0, symName: __ZNSaISt23_Sp_counted_ptr_inplaceI5QuarkSaIS0_ELN9__gnu_cxx12_Lock_policyE2EEEC1IS0_EERKSaIT_E, symObjAddr: 0xBB0C, symBinAddr: 0x10000F09C, symSize: 0x24 }
  - { offsetInCU: 0x3076A, offset: 0x3076A, size: 0x8, addend: 0x0, symName: __ZSt12__niter_baseIPSt10shared_ptrI8ParticleEET_S4_, symObjAddr: 0xBA74, symBinAddr: 0x10000F004, symSize: 0x14 }
  - { offsetInCU: 0x30772, offset: 0x30772, size: 0x8, addend: 0x0, symName: __ZSt14__relocate_a_1IPSt10shared_ptrI8ParticleES3_SaIS2_EET0_T_S6_S5_RT1_, symObjAddr: 0xBA88, symBinAddr: 0x10000F018, symSize: 0x84 }
  - { offsetInCU: 0x30755, offset: 0x30755, size: 0x8, addend: 0x0, symName: __ZNSt16allocator_traitsISaISt10shared_ptrI8ParticleEEE8max_sizeERKS3_, symObjAddr: 0xBA58, symBinAddr: 0x10000EFE8, symSize: 0x1C }
  - { offsetInCU: 0x3075D, offset: 0x3075D, size: 0x8, addend: 0x0, symName: __ZSt12__niter_baseIPSt10shared_ptrI8ParticleEET_S4_, symObjAddr: 0xBA74, symBinAddr: 0x10000F004, symSize: 0x14 }
  - { offsetInCU: 0x30787, offset: 0x30787, size: 0x8, addend: 0x0, symName: __ZNSt11_Tuple_implILm0EJP13Four_momentumSt14default_deleteIS0_EEE7_M_headERKS4_, symObjAddr: 0xBA3C, symBinAddr: 0x10000EFCC, symSize: 0x1C }
  - { offsetInCU: 0x3078F, offset: 0x3078F, size: 0x8, addend: 0x0, symName: __ZNSt16allocator_traitsISaISt10shared_ptrI8ParticleEEE8max_sizeERKS3_, symObjAddr: 0xBA58, symBinAddr: 0x10000EFE8, symSize: 0x1C }
  - { offsetInCU: 0x307B9, offset: 0x307B9, size: 0x8, addend: 0x0, symName: __ZN9__gnu_cxx13new_allocatorISt10_List_nodeISt10shared_ptrI8ElectronEEE10deallocateEPS5_m, symObjAddr: 0xBA0C, symBinAddr: 0x10000EF9C, symSize: 0x30 }
  - { offsetInCU: 0x307C1, offset: 0x307C1, size: 0x8, addend: 0x0, symName: __ZNSt11_Tuple_implILm0EJP13Four_momentumSt14default_deleteIS0_EEE7_M_headERKS4_, symObjAddr: 0xBA3C, symBinAddr: 0x10000EFCC, symSize: 0x1C }
  - { offsetInCU: 0x3080E, offset: 0x3080E, size: 0x8, addend: 0x0, symName: __ZNSt15__allocated_ptrISaISt10_List_nodeISt10shared_ptrI8ElectronEEEEaSEDn, symObjAddr: 0xB9EC, symBinAddr: 0x10000EF7C, symSize: 0x20 }
  - { offsetInCU: 0x30816, offset: 0x30816, size: 0x8, addend: 0x0, symName: __ZN9__gnu_cxx13new_allocatorISt10_List_nodeISt10shared_ptrI8ElectronEEE10deallocateEPS5_m, symObjAddr: 0xBA0C, symBinAddr: 0x10000EF9C, symSize: 0x30 }
  - { offsetInCU: 0x30849, offset: 0x30849, size: 0x8, addend: 0x0, symName: __ZNSt16allocator_traitsISaISt10_List_nodeISt10shared_ptrI8ElectronEEEE9constructIS3_JRKS3_EEEvRS5_PT_DpOT0_, symObjAddr: 0xB9B4, symBinAddr: 0x10000EF44, symSize: 0x38 }
  - { offsetInCU: 0x30851, offset: 0x30851, size: 0x8, addend: 0x0, symName: __ZNSt15__allocated_ptrISaISt10_List_nodeISt10shared_ptrI8ElectronEEEEaSEDn, symObjAddr: 0xB9EC, symBinAddr: 0x10000EF7C, symSize: 0x20 }
  - { offsetInCU: 0x3092F, offset: 0x3092F, size: 0x8, addend: 0x0, symName: __ZNSt15__allocated_ptrISaISt10_List_nodeISt10shared_ptrI8ElectronEEEED1Ev, symObjAddr: 0xB96C, symBinAddr: 0x10000EEFC, symSize: 0x48 }
  - { offsetInCU: 0x30937, offset: 0x30937, size: 0x8, addend: 0x0, symName: __ZNSt16allocator_traitsISaISt10_List_nodeISt10shared_ptrI8ElectronEEEE9constructIS3_JRKS3_EEEvRS5_PT_DpOT0_, symObjAddr: 0xB9B4, symBinAddr: 0x10000EF44, symSize: 0x38 }
  - { offsetInCU: 0x3099F, offset: 0x3099F, size: 0x8, addend: 0x0, symName: __ZNSt15__allocated_ptrISaISt10_List_nodeISt10shared_ptrI8ElectronEEEEC1ERS5_PS4_, symObjAddr: 0xB92C, symBinAddr: 0x10000EEBC, symSize: 0x40 }
  - { offsetInCU: 0x309A7, offset: 0x309A7, size: 0x8, addend: 0x0, symName: __ZNSt15__allocated_ptrISaISt10_List_nodeISt10shared_ptrI8ElectronEEEED1Ev, symObjAddr: 0xB96C, symBinAddr: 0x10000EEFC, symSize: 0x48 }
  - { offsetInCU: 0x30994, offset: 0x30994, size: 0x8, addend: 0x0, symName: __ZNSt7__cxx1110_List_baseISt10shared_ptrI8ElectronESaIS3_EE11_M_get_nodeEv, symObjAddr: 0xB90C, symBinAddr: 0x10000EE9C, symSize: 0x20 }
  - { offsetInCU: 0x3099C, offset: 0x3099C, size: 0x8, addend: 0x0, symName: __ZNSt15__allocated_ptrISaISt10_List_nodeISt10shared_ptrI8ElectronEEEEC1ERS5_PS4_, symObjAddr: 0xB92C, symBinAddr: 0x10000EEBC, symSize: 0x40 }
  - { offsetInCU: 0x309C3, offset: 0x309C3, size: 0x8, addend: 0x0, symName: __ZNSt16allocator_traitsISaISt13_Rb_tree_nodeISt4pairIKNSt7__cxx1112basic_stringIcSt11char_traitsIcESaIcEEEiEEEE10deallocateERSB_PSA_m, symObjAddr: 0xB8DC, symBinAddr: 0x10000EE6C, symSize: 0x30 }
  - { offsetInCU: 0x309CB, offset: 0x309CB, size: 0x8, addend: 0x0, symName: __ZNSt7__cxx1110_List_baseISt10shared_ptrI8ElectronESaIS3_EE11_M_get_nodeEv, symObjAddr: 0xB90C, symBinAddr: 0x10000EE9C, symSize: 0x20 }
  - { offsetInCU: 0x30A1D, offset: 0x30A1D, size: 0x8, addend: 0x0, symName: __ZNSt16allocator_traitsISaISt13_Rb_tree_nodeISt4pairIKNSt7__cxx1112basic_stringIcSt11char_traitsIcESaIcEEEiEEEE7destroyIS9_EEvRSB_PT_, symObjAddr: 0xB8B4, symBinAddr: 0x10000EE44, symSize: 0x28 }
  - { offsetInCU: 0x30A25, offset: 0x30A25, size: 0x8, addend: 0x0, symName: __ZNSt16allocator_traitsISaISt13_Rb_tree_nodeISt4pairIKNSt7__cxx1112basic_stringIcSt11char_traitsIcESaIcEEEiEEEE10deallocateERSB_PSA_m, symObjAddr: 0xB8DC, symBinAddr: 0x10000EE6C, symSize: 0x30 }
  - { offsetInCU: 0x30A70, offset: 0x30A70, size: 0x8, addend: 0x0, symName: __ZNSt8_Rb_treeINSt7__cxx1112basic_stringIcSt11char_traitsIcESaIcEEESt4pairIKS5_iESt10_Select1stIS8_ESt4lessIS5_ESaIS8_EE21_M_get_Node_allocatorEv, symObjAddr: 0xB8A0, symBinAddr: 0x10000EE30, symSize: 0x14 }
  - { offsetInCU: 0x30A78, offset: 0x30A78, size: 0x8, addend: 0x0, symName: __ZNSt16allocator_traitsISaISt13_Rb_tree_nodeISt4pairIKNSt7__cxx1112basic_stringIcSt11char_traitsIcESaIcEEEiEEEE7destroyIS9_EEvRSB_PT_, symObjAddr: 0xB8B4, symBinAddr: 0x10000EE44, symSize: 0x28 }
  - { offsetInCU: 0x30C42, offset: 0x30C42, size: 0x8, addend: 0x0, symName: __ZNSt14__shared_countILN9__gnu_cxx12_Lock_policyE2EEC1I7W_BosonSaIS4_EJdiiibEEERPT_St20_Sp_alloc_shared_tagIT0_EDpOT1_, symObjAddr: 0xB720, symBinAddr: 0x10000ECB0, symSize: 0x180 }
  - { offsetInCU: 0x30C4A, offset: 0x30C4A, size: 0x8, addend: 0x0, symName: __ZNSt8_Rb_treeINSt7__cxx1112basic_stringIcSt11char_traitsIcESaIcEEESt4pairIKS5_iESt10_Select1stIS8_ESt4lessIS5_ESaIS8_EE21_M_get_Node_allocatorEv, symObjAddr: 0xB8A0, symBinAddr: 0x10000EE30, symSize: 0x14 }
  - { offsetInCU: 0x30EB9, offset: 0x30EB9, size: 0x8, addend: 0x0, symName: __ZNSt14__shared_countILN9__gnu_cxx12_Lock_policyE2EEC1I7Z_BosonSaIS4_EJdiiiEEERPT_St20_Sp_alloc_shared_tagIT0_EDpOT1_, symObjAddr: 0xB5B4, symBinAddr: 0x10000EB44, symSize: 0x16C }
  - { offsetInCU: 0x30EC1, offset: 0x30EC1, size: 0x8, addend: 0x0, symName: __ZNSt14__shared_countILN9__gnu_cxx12_Lock_policyE2EEC1I7W_BosonSaIS4_EJdiiibEEERPT_St20_Sp_alloc_shared_tagIT0_EDpOT1_, symObjAddr: 0xB720, symBinAddr: 0x10000ECB0, symSize: 0x180 }
  - { offsetInCU: 0x30F8B, offset: 0x30F8B, size: 0x8, addend: 0x0, symName: __ZNSt12__shared_ptrI5HiggsLN9__gnu_cxx12_Lock_policyE2EE31_M_enable_shared_from_this_withIS0_S0_EENSt9enable_ifIXntsrNS3_15__has_esft_baseIT0_vEE5valueEvE4typeEPT_, symObjAddr: 0xB59C, symBinAddr: 0x10000EB2C, symSize: 0x18 }
  - { offsetInCU: 0x30F93, offset: 0x30F93, size: 0x8, addend: 0x0, symName: __ZNSt14__shared_countILN9__gnu_cxx12_Lock_policyE2EEC1I7Z_BosonSaIS4_EJdiiiEEERPT_St20_Sp_alloc_shared_tagIT0_EDpOT1_, symObjAddr: 0xB5B4, symBinAddr: 0x10000EB44, symSize: 0x16C }
  - { offsetInCU: 0x3116F, offset: 0x3116F, size: 0x8, addend: 0x0, symName: __ZNSt14__shared_countILN9__gnu_cxx12_Lock_policyE2EEC1I5HiggsSaIS4_EJddddEEERPT_St20_Sp_alloc_shared_tagIT0_EDpOT1_, symObjAddr: 0xB430, symBinAddr: 0x10000E9C0, symSize: 0x16C }
  - { offsetInCU: 0x31177, offset: 0x31177, size: 0x8, addend: 0x0, symName: __ZNSt12__shared_ptrI5HiggsLN9__gnu_cxx12_Lock_policyE2EE31_M_enable_shared_from_this_withIS0_S0_EENSt9enable_ifIXntsrNS3_15__has_esft_baseIT0_vEE5valueEvE4typeEPT_, symObjAddr: 0xB59C, symBinAddr: 0x10000EB2C, symSize: 0x18 }
  - { offsetInCU: 0x31243, offset: 0x31243, size: 0x8, addend: 0x0, symName: __ZNSt12__shared_ptrI7W_BosonLN9__gnu_cxx12_Lock_policyE2EE31_M_enable_shared_from_this_withIS0_S0_EENSt9enable_ifIXntsrNS3_15__has_esft_baseIT0_vEE5valueEvE4typeEPT_, symObjAddr: 0xB418, symBinAddr: 0x10000E9A8, symSize: 0x18 }
  - { offsetInCU: 0x3124B, offset: 0x3124B, size: 0x8, addend: 0x0, symName: __ZNSt14__shared_countILN9__gnu_cxx12_Lock_policyE2EEC1I5HiggsSaIS4_EJddddEEERPT_St20_Sp_alloc_shared_tagIT0_EDpOT1_, symObjAddr: 0xB430, symBinAddr: 0x10000E9C0, symSize: 0x16C }
  - { offsetInCU: 0x31432, offset: 0x31432, size: 0x8, addend: 0x0, symName: __ZNSt14__shared_countILN9__gnu_cxx12_Lock_policyE2EEC1I7W_BosonSaIS4_EJddddbEEERPT_St20_Sp_alloc_shared_tagIT0_EDpOT1_, symObjAddr: 0xB298, symBinAddr: 0x10000E828, symSize: 0x180 }
  - { offsetInCU: 0x3143A, offset: 0x3143A, size: 0x8, addend: 0x0, symName: __ZNSt12__shared_ptrI7W_BosonLN9__gnu_cxx12_Lock_policyE2EE31_M_enable_shared_from_this_withIS0_S0_EENSt9enable_ifIXntsrNS3_15__has_esft_baseIT0_vEE5valueEvE4typeEPT_, symObjAddr: 0xB418, symBinAddr: 0x10000E9A8, symSize: 0x18 }
  - { offsetInCU: 0x31519, offset: 0x31519, size: 0x8, addend: 0x0, symName: __ZNSt12__shared_ptrI7Z_BosonLN9__gnu_cxx12_Lock_policyE2EE31_M_enable_shared_from_this_withIS0_S0_EENSt9enable_ifIXntsrNS3_15__has_esft_baseIT0_vEE5valueEvE4typeEPT_, symObjAddr: 0xB280, symBinAddr: 0x10000E810, symSize: 0x18 }
  - { offsetInCU: 0x31521, offset: 0x31521, size: 0x8, addend: 0x0, symName: __ZNSt14__shared_countILN9__gnu_cxx12_Lock_policyE2EEC1I7W_BosonSaIS4_EJddddbEEERPT_St20_Sp_alloc_shared_tagIT0_EDpOT1_, symObjAddr: 0xB298, symBinAddr: 0x10000E828, symSize: 0x180 }
  - { offsetInCU: 0x316F5, offset: 0x316F5, size: 0x8, addend: 0x0, symName: __ZNSt14__shared_countILN9__gnu_cxx12_Lock_policyE2EEC1I7Z_BosonSaIS4_EJddddEEERPT_St20_Sp_alloc_shared_tagIT0_EDpOT1_, symObjAddr: 0xB114, symBinAddr: 0x10000E6A4, symSize: 0x16C }
  - { offsetInCU: 0x316FD, offset: 0x316FD, size: 0x8, addend: 0x0, symName: __ZNSt12__shared_ptrI7Z_BosonLN9__gnu_cxx12_Lock_policyE2EE31_M_enable_shared_from_this_withIS0_S0_EENSt9enable_ifIXntsrNS3_15__has_esft_baseIT0_vEE5valueEvE4typeEPT_, symObjAddr: 0xB280, symBinAddr: 0x10000E810, symSize: 0x18 }
  - { offsetInCU: 0x317C7, offset: 0x317C7, size: 0x8, addend: 0x0, symName: __ZNSt12__shared_ptrI6PhotonLN9__gnu_cxx12_Lock_policyE2EE31_M_enable_shared_from_this_withIS0_S0_EENSt9enable_ifIXntsrNS3_15__has_esft_baseIT0_vEE5valueEvE4typeEPT_, symObjAddr: 0xB0FC, symBinAddr: 0x10000E68C, symSize: 0x18 }
  - { offsetInCU: 0x317CF, offset: 0x317CF, size: 0x8, addend: 0x0, symName: __ZNSt14__shared_countILN9__gnu_cxx12_Lock_policyE2EEC1I7Z_BosonSaIS4_EJddddEEERPT_St20_Sp_alloc_shared_tagIT0_EDpOT1_, symObjAddr: 0xB114, symBinAddr: 0x10000E6A4, symSize: 0x16C }
  - { offsetInCU: 0x319AC, offset: 0x319AC, size: 0x8, addend: 0x0, symName: __ZNSt14__shared_countILN9__gnu_cxx12_Lock_policyE2EEC1I6PhotonSaIS4_EJiiiiEEERPT_St20_Sp_alloc_shared_tagIT0_EDpOT1_, symObjAddr: 0xAF90, symBinAddr: 0x10000E520, symSize: 0x16C }
  - { offsetInCU: 0x319B4, offset: 0x319B4, size: 0x8, addend: 0x0, symName: __ZNSt12__shared_ptrI6PhotonLN9__gnu_cxx12_Lock_policyE2EE31_M_enable_shared_from_this_withIS0_S0_EENSt9enable_ifIXntsrNS3_15__has_esft_baseIT0_vEE5valueEvE4typeEPT_, symObjAddr: 0xB0FC, symBinAddr: 0x10000E68C, symSize: 0x18 }
  - { offsetInCU: 0x31A7F, offset: 0x31A7F, size: 0x8, addend: 0x0, symName: __ZNSt12__shared_ptrI5GluonLN9__gnu_cxx12_Lock_policyE2EE31_M_enable_shared_from_this_withIS0_S0_EENSt9enable_ifIXntsrNS3_15__has_esft_baseIT0_vEE5valueEvE4typeEPT_, symObjAddr: 0xAF78, symBinAddr: 0x10000E508, symSize: 0x18 }
  - { offsetInCU: 0x31A87, offset: 0x31A87, size: 0x8, addend: 0x0, symName: __ZNSt14__shared_countILN9__gnu_cxx12_Lock_policyE2EEC1I6PhotonSaIS4_EJiiiiEEERPT_St20_Sp_alloc_shared_tagIT0_EDpOT1_, symObjAddr: 0xAF90, symBinAddr: 0x10000E520, symSize: 0x16C }
  - { offsetInCU: 0x31CAA, offset: 0x31CAA, size: 0x8, addend: 0x0, symName: __ZNSt14__shared_countILN9__gnu_cxx12_Lock_policyE2EEC1I5GluonSaIS4_EJddddb11Colour_listS6_EEERPT_St20_Sp_alloc_shared_tagIT0_EDpOT1_, symObjAddr: 0xADC8, symBinAddr: 0x10000E358, symSize: 0x1B0 }
  - { offsetInCU: 0x31CB2, offset: 0x31CB2, size: 0x8, addend: 0x0, symName: __ZNSt12__shared_ptrI5GluonLN9__gnu_cxx12_Lock_policyE2EE31_M_enable_shared_from_this_withIS0_S0_EENSt9enable_ifIXntsrNS3_15__has_esft_baseIT0_vEE5valueEvE4typeEPT_, symObjAddr: 0xAF78, symBinAddr: 0x10000E508, symSize: 0x18 }
  - { offsetInCU: 0x31F86, offset: 0x31F86, size: 0x8, addend: 0x0, symName: __ZNSt14__shared_countILN9__gnu_cxx12_Lock_policyE2EEC1I8NeutrinoSaIS4_EJddddb14Lepton_flavourbEEERPT_St20_Sp_alloc_shared_tagIT0_EDpOT1_, symObjAddr: 0xAC18, symBinAddr: 0x10000E1A8, symSize: 0x1B0 }
  - { offsetInCU: 0x31F8E, offset: 0x31F8E, size: 0x8, addend: 0x0, symName: __ZNSt14__shared_countILN9__gnu_cxx12_Lock_policyE2EEC1I5GluonSaIS4_EJddddb11Colour_listS6_EEERPT_St20_Sp_alloc_shared_tagIT0_EDpOT1_, symObjAddr: 0xADC8, symBinAddr: 0x10000E358, symSize: 0x1B0 }
  - { offsetInCU: 0x32224, offset: 0x32224, size: 0x8, addend: 0x0, symName: __ZNSt14__shared_countILN9__gnu_cxx12_Lock_policyE2EEC1I3TauSaIS4_EJdiiibEEERPT_St20_Sp_alloc_shared_tagIT0_EDpOT1_, symObjAddr: 0xAA98, symBinAddr: 0x10000E028, symSize: 0x180 }
  - { offsetInCU: 0x3222C, offset: 0x3222C, size: 0x8, addend: 0x0, symName: __ZNSt14__shared_countILN9__gnu_cxx12_Lock_policyE2EEC1I8NeutrinoSaIS4_EJddddb14Lepton_flavourbEEERPT_St20_Sp_alloc_shared_tagIT0_EDpOT1_, symObjAddr: 0xAC18, symBinAddr: 0x10000E1A8, symSize: 0x1B0 }
  - { offsetInCU: 0x324F0, offset: 0x324F0, size: 0x8, addend: 0x0, symName: __ZNSt14__shared_countILN9__gnu_cxx12_Lock_policyE2EEC1I5QuarkSaIS4_EJdiiib13Quark_flavour11Colour_listEEERPT_St20_Sp_alloc_shared_tagIT0_EDpOT1_, symObjAddr: 0xA8E8, symBinAddr: 0x10000DE78, symSize: 0x1B0 }
  - { offsetInCU: 0x324F8, offset: 0x324F8, size: 0x8, addend: 0x0, symName: __ZNSt14__shared_countILN9__gnu_cxx12_Lock_policyE2EEC1I3TauSaIS4_EJdiiibEEERPT_St20_Sp_alloc_shared_tagIT0_EDpOT1_, symObjAddr: 0xAA98, symBinAddr: 0x10000E028, symSize: 0x180 }
  - { offsetInCU: 0x325E7, offset: 0x325E7, size: 0x8, addend: 0x0, symName: __ZNSt12__shared_ptrI4MuonLN9__gnu_cxx12_Lock_policyE2EE31_M_enable_shared_from_this_withIS0_S0_EENSt9enable_ifIXntsrNS3_15__has_esft_baseIT0_vEE5valueEvE4typeEPT_, symObjAddr: 0xA8D0, symBinAddr: 0x10000DE60, symSize: 0x18 }
  - { offsetInCU: 0x325EF, offset: 0x325EF, size: 0x8, addend: 0x0, symName: __ZNSt14__shared_countILN9__gnu_cxx12_Lock_policyE2EEC1I5QuarkSaIS4_EJdiiib13Quark_flavour11Colour_listEEERPT_St20_Sp_alloc_shared_tagIT0_EDpOT1_, symObjAddr: 0xA8E8, symBinAddr: 0x10000DE78, symSize: 0x1B0 }
  - { offsetInCU: 0x327F0, offset: 0x327F0, size: 0x8, addend: 0x0, symName: __ZNSt14__shared_countILN9__gnu_cxx12_Lock_policyE2EEC1I4MuonSaIS4_EJddddbbEEERPT_St20_Sp_alloc_shared_tagIT0_EDpOT1_, symObjAddr: 0xA738, symBinAddr: 0x10000DCC8, symSize: 0x198 }
  - { offsetInCU: 0x327F8, offset: 0x327F8, size: 0x8, addend: 0x0, symName: __ZNSt12__shared_ptrI4MuonLN9__gnu_cxx12_Lock_policyE2EE31_M_enable_shared_from_this_withIS0_S0_EENSt9enable_ifIXntsrNS3_15__has_esft_baseIT0_vEE5valueEvE4typeEPT_, symObjAddr: 0xA8D0, symBinAddr: 0x10000DE60, symSize: 0x18 }
  - { offsetInCU: 0x32A92, offset: 0x32A92, size: 0x8, addend: 0x0, symName: __ZNSt14__shared_countILN9__gnu_cxx12_Lock_policyE2EEC1I8ElectronSaIS4_EJddddbEEERPT_St20_Sp_alloc_shared_tagIT0_EDpOT1_, symObjAddr: 0xA5B8, symBinAddr: 0x10000DB48, symSize: 0x180 }
  - { offsetInCU: 0x32A9A, offset: 0x32A9A, size: 0x8, addend: 0x0, symName: __ZNSt14__shared_countILN9__gnu_cxx12_Lock_policyE2EEC1I4MuonSaIS4_EJddddbbEEERPT_St20_Sp_alloc_shared_tagIT0_EDpOT1_, symObjAddr: 0xA738, symBinAddr: 0x10000DCC8, symSize: 0x198 }
  - { offsetInCU: 0x32D4F, offset: 0x32D4F, size: 0x8, addend: 0x0, symName: __ZNSt14__shared_countILN9__gnu_cxx12_Lock_policyE2EEC1I5QuarkSaIS4_EJddddb13Quark_flavour11Colour_listEEERPT_St20_Sp_alloc_shared_tagIT0_EDpOT1_, symObjAddr: 0xA408, symBinAddr: 0x10000D998, symSize: 0x1B0 }
  - { offsetInCU: 0x32D57, offset: 0x32D57, size: 0x8, addend: 0x0, symName: __ZNSt14__shared_countILN9__gnu_cxx12_Lock_policyE2EEC1I8ElectronSaIS4_EJddddbEEERPT_St20_Sp_alloc_shared_tagIT0_EDpOT1_, symObjAddr: 0xA5B8, symBinAddr: 0x10000DB48, symSize: 0x180 }
  - { offsetInCU: 0x32E46, offset: 0x32E46, size: 0x8, addend: 0x0, symName: __ZNSt12__shared_ptrI8NeutrinoLN9__gnu_cxx12_Lock_policyE2EE31_M_enable_shared_from_this_withIS0_S0_EENSt9enable_ifIXntsrNS3_15__has_esft_baseIT0_vEE5valueEvE4typeEPT_, symObjAddr: 0xA3F0, symBinAddr: 0x10000D980, symSize: 0x18 }
  - { offsetInCU: 0x32E4E, offset: 0x32E4E, size: 0x8, addend: 0x0, symName: __ZNSt14__shared_countILN9__gnu_cxx12_Lock_policyE2EEC1I5QuarkSaIS4_EJddddb13Quark_flavour11Colour_listEEERPT_St20_Sp_alloc_shared_tagIT0_EDpOT1_, symObjAddr: 0xA408, symBinAddr: 0x10000D998, symSize: 0x1B0 }
  - { offsetInCU: 0x3306B, offset: 0x3306B, size: 0x8, addend: 0x0, symName: __ZNSt14__shared_countILN9__gnu_cxx12_Lock_policyE2EEC1I8NeutrinoSaIS4_EJdiiib14Lepton_flavourbEEERPT_St20_Sp_alloc_shared_tagIT0_EDpOT1_, symObjAddr: 0xA240, symBinAddr: 0x10000D7D0, symSize: 0x1B0 }
  - { offsetInCU: 0x33073, offset: 0x33073, size: 0x8, addend: 0x0, symName: __ZNSt12__shared_ptrI8NeutrinoLN9__gnu_cxx12_Lock_policyE2EE31_M_enable_shared_from_this_withIS0_S0_EENSt9enable_ifIXntsrNS3_15__has_esft_baseIT0_vEE5valueEvE4typeEPT_, symObjAddr: 0xA3F0, symBinAddr: 0x10000D980, symSize: 0x18 }
  - { offsetInCU: 0x3316A, offset: 0x3316A, size: 0x8, addend: 0x0, symName: __ZNSt12__shared_ptrI8ElectronLN9__gnu_cxx12_Lock_policyE2EE31_M_enable_shared_from_this_withIS0_S0_EENSt9enable_ifIXntsrNS3_15__has_esft_baseIT0_vEE5valueEvE4typeEPT_, symObjAddr: 0xA228, symBinAddr: 0x10000D7B8, symSize: 0x18 }
  - { offsetInCU: 0x33172, offset: 0x33172, size: 0x8, addend: 0x0, symName: __ZNSt14__shared_countILN9__gnu_cxx12_Lock_policyE2EEC1I8NeutrinoSaIS4_EJdiiib14Lepton_flavourbEEERPT_St20_Sp_alloc_shared_tagIT0_EDpOT1_, symObjAddr: 0xA240, symBinAddr: 0x10000D7D0, symSize: 0x1B0 }
  - { offsetInCU: 0x3335A, offset: 0x3335A, size: 0x8, addend: 0x0, symName: __ZNSt14__shared_countILN9__gnu_cxx12_Lock_policyE2EEC1I8ElectronSaIS4_EJdiiibEEERPT_St20_Sp_alloc_shared_tagIT0_EDpOT1_, symObjAddr: 0xA0A8, symBinAddr: 0x10000D638, symSize: 0x180 }
  - { offsetInCU: 0x33362, offset: 0x33362, size: 0x8, addend: 0x0, symName: __ZNSt12__shared_ptrI8ElectronLN9__gnu_cxx12_Lock_policyE2EE31_M_enable_shared_from_this_withIS0_S0_EENSt9enable_ifIXntsrNS3_15__has_esft_baseIT0_vEE5valueEvE4typeEPT_, symObjAddr: 0xA228, symBinAddr: 0x10000D7B8, symSize: 0x18 }
  - { offsetInCU: 0x33440, offset: 0x33440, size: 0x8, addend: 0x0, symName: __ZNSt12__shared_ptrI3TauLN9__gnu_cxx12_Lock_policyE2EE31_M_enable_shared_from_this_withIS0_S0_EENSt9enable_ifIXntsrNS3_15__has_esft_baseIT0_vEE5valueEvE4typeEPT_, symObjAddr: 0xA090, symBinAddr: 0x10000D620, symSize: 0x18 }
  - { offsetInCU: 0x33448, offset: 0x33448, size: 0x8, addend: 0x0, symName: __ZNSt14__shared_countILN9__gnu_cxx12_Lock_policyE2EEC1I8ElectronSaIS4_EJdiiibEEERPT_St20_Sp_alloc_shared_tagIT0_EDpOT1_, symObjAddr: 0xA0A8, symBinAddr: 0x10000D638, symSize: 0x180 }
  - { offsetInCU: 0x3362B, offset: 0x3362B, size: 0x8, addend: 0x0, symName: __ZNSt14__shared_countILN9__gnu_cxx12_Lock_policyE2EEC1I3TauSaIS4_EJddddbEEERPT_St20_Sp_alloc_shared_tagIT0_EDpOT1_, symObjAddr: 0x9F10, symBinAddr: 0x10000D4A0, symSize: 0x180 }
  - { offsetInCU: 0x33633, offset: 0x33633, size: 0x8, addend: 0x0, symName: __ZNSt12__shared_ptrI3TauLN9__gnu_cxx12_Lock_policyE2EE31_M_enable_shared_from_this_withIS0_S0_EENSt9enable_ifIXntsrNS3_15__has_esft_baseIT0_vEE5valueEvE4typeEPT_, symObjAddr: 0xA090, symBinAddr: 0x10000D620, symSize: 0x18 }
  - { offsetInCU: 0x33716, offset: 0x33716, size: 0x8, addend: 0x0, symName: __ZNSt12__shared_ptrI5QuarkLN9__gnu_cxx12_Lock_policyE2EE31_M_enable_shared_from_this_withIS0_S0_EENSt9enable_ifIXntsrNS3_15__has_esft_baseIT0_vEE5valueEvE4typeEPT_, symObjAddr: 0x9EF8, symBinAddr: 0x10000D488, symSize: 0x18 }
  - { offsetInCU: 0x3371E, offset: 0x3371E, size: 0x8, addend: 0x0, symName: __ZNSt14__shared_countILN9__gnu_cxx12_Lock_policyE2EEC1I3TauSaIS4_EJddddbEEERPT_St20_Sp_alloc_shared_tagIT0_EDpOT1_, symObjAddr: 0x9F10, symBinAddr: 0x10000D4A0, symSize: 0x180 }
  - { offsetInCU: 0x33943, offset: 0x33943, size: 0x8, addend: 0x0, symName: __ZNSt14__shared_countILN9__gnu_cxx12_Lock_policyE2EEC1I5QuarkSaIS4_EJiiiib13Quark_flavour11Colour_listEEERPT_St20_Sp_alloc_shared_tagIT0_EDpOT1_, symObjAddr: 0x9D48, symBinAddr: 0x10000D2D8, symSize: 0x1B0 }
  - { offsetInCU: 0x3394B, offset: 0x3394B, size: 0x8, addend: 0x0, symName: __ZNSt12__shared_ptrI5QuarkLN9__gnu_cxx12_Lock_policyE2EE31_M_enable_shared_from_this_withIS0_S0_EENSt9enable_ifIXntsrNS3_15__has_esft_baseIT0_vEE5valueEvE4typeEPT_, symObjAddr: 0x9EF8, symBinAddr: 0x10000D488, symSize: 0x18 }
  - { offsetInCU: 0x33A9A, offset: 0x33A9A, size: 0x8, addend: 0x0, symName: __ZSt11__addressofISt10shared_ptrI8ParticleEEPT_RS3_, symObjAddr: 0x9D34, symBinAddr: 0x10000D2C4, symSize: 0x14 }
  - { offsetInCU: 0x33AA2, offset: 0x33AA2, size: 0x8, addend: 0x0, symName: __ZNSt14__shared_countILN9__gnu_cxx12_Lock_policyE2EEC1I5QuarkSaIS4_EJiiiib13Quark_flavour11Colour_listEEERPT_St20_Sp_alloc_shared_tagIT0_EDpOT1_, symObjAddr: 0x9D48, symBinAddr: 0x10000D2D8, symSize: 0x1B0 }
  - { offsetInCU: 0x33A85, offset: 0x33A85, size: 0x8, addend: 0x0, symName: __ZN9__gnu_cxx13new_allocatorISt10_List_nodeISt10shared_ptrI8ParticleEEE10deallocateEPS5_m, symObjAddr: 0x9D04, symBinAddr: 0x10000D294, symSize: 0x30 }
  - { offsetInCU: 0x33A8D, offset: 0x33A8D, size: 0x8, addend: 0x0, symName: __ZSt11__addressofISt10shared_ptrI8ParticleEEPT_RS3_, symObjAddr: 0x9D34, symBinAddr: 0x10000D2C4, symSize: 0x14 }
  - { offsetInCU: 0x33ADE, offset: 0x33ADE, size: 0x8, addend: 0x0, symName: __ZN9__gnu_cxx16__aligned_membufISt10shared_ptrI8ParticleEE7_M_addrEv, symObjAddr: 0x9CF0, symBinAddr: 0x10000D280, symSize: 0x14 }
  - { offsetInCU: 0x33AE6, offset: 0x33AE6, size: 0x8, addend: 0x0, symName: __ZN9__gnu_cxx13new_allocatorISt10_List_nodeISt10shared_ptrI8ParticleEEE10deallocateEPS5_m, symObjAddr: 0x9D04, symBinAddr: 0x10000D294, symSize: 0x30 }
  - { offsetInCU: 0x33B11, offset: 0x33B11, size: 0x8, addend: 0x0, symName: __ZN9__gnu_cxx13new_allocatorISt10shared_ptrI8ParticleEE10deallocateEPS3_m, symObjAddr: 0x9CC0, symBinAddr: 0x10000D250, symSize: 0x30 }
  - { offsetInCU: 0x33B19, offset: 0x33B19, size: 0x8, addend: 0x0, symName: __ZN9__gnu_cxx16__aligned_membufISt10shared_ptrI8ParticleEE7_M_addrEv, symObjAddr: 0x9CF0, symBinAddr: 0x10000D280, symSize: 0x14 }
  - { offsetInCU: 0x33C25, offset: 0x33C25, size: 0x8, addend: 0x0, symName: __ZSt12__relocate_aIPSt10shared_ptrI8ParticleES3_SaIS2_EET0_T_S6_S5_RT1_, symObjAddr: 0x9C64, symBinAddr: 0x10000D1F4, symSize: 0x5C }
  - { offsetInCU: 0x33C2D, offset: 0x33C2D, size: 0x8, addend: 0x0, symName: __ZN9__gnu_cxx13new_allocatorISt10shared_ptrI8ParticleEE10deallocateEPS3_m, symObjAddr: 0x9CC0, symBinAddr: 0x10000D250, symSize: 0x30 }
  - { offsetInCU: 0x33C09, offset: 0x33C09, size: 0x8, addend: 0x0, symName: __ZN9__gnu_cxx13new_allocatorISt10shared_ptrI8ParticleEE8allocateEmPKv, symObjAddr: 0x9BEC, symBinAddr: 0x10000D17C, symSize: 0x78 }
  - { offsetInCU: 0x33C11, offset: 0x33C11, size: 0x8, addend: 0x0, symName: __ZSt12__relocate_aIPSt10shared_ptrI8ParticleES3_SaIS2_EET0_T_S6_S5_RT1_, symObjAddr: 0x9C64, symBinAddr: 0x10000D1F4, symSize: 0x5C }
  - { offsetInCU: 0x33C6B, offset: 0x33C6B, size: 0x8, addend: 0x0, symName: __ZNK9__gnu_cxx13new_allocatorISt10shared_ptrI8ParticleEE11_M_max_sizeEv, symObjAddr: 0x9BD8, symBinAddr: 0x10000D168, symSize: 0x14 }
  - { offsetInCU: 0x33C73, offset: 0x33C73, size: 0x8, addend: 0x0, symName: __ZN9__gnu_cxx13new_allocatorISt10shared_ptrI8ParticleEE8allocateEmPKv, symObjAddr: 0x9BEC, symBinAddr: 0x10000D17C, symSize: 0x78 }
  - { offsetInCU: 0x33C9A, offset: 0x33C9A, size: 0x8, addend: 0x0, symName: __ZNKSt12_Vector_baseISt10shared_ptrI8ParticleESaIS2_EE19_M_get_Tp_allocatorEv, symObjAddr: 0x9BC4, symBinAddr: 0x10000D154, symSize: 0x14 }
  - { offsetInCU: 0x33CA2, offset: 0x33CA2, size: 0x8, addend: 0x0, symName: __ZNK9__gnu_cxx13new_allocatorISt10shared_ptrI8ParticleEE11_M_max_sizeEv, symObjAddr: 0x9BD8, symBinAddr: 0x10000D168, symSize: 0x14 }
  - { offsetInCU: 0x33CC9, offset: 0x33CC9, size: 0x8, addend: 0x0, symName: __ZNSt6vectorISt10shared_ptrI8ParticleESaIS2_EE11_S_max_sizeERKS3_, symObjAddr: 0x9B8C, symBinAddr: 0x10000D11C, symSize: 0x38 }
  - { offsetInCU: 0x33CD1, offset: 0x33CD1, size: 0x8, addend: 0x0, symName: __ZNKSt12_Vector_baseISt10shared_ptrI8ParticleESaIS2_EE19_M_get_Tp_allocatorEv, symObjAddr: 0x9BC4, symBinAddr: 0x10000D154, symSize: 0x14 }
  - { offsetInCU: 0x33DD5, offset: 0x33DD5, size: 0x8, addend: 0x0, symName: __ZSt12__get_helperILm0EP13Four_momentumJSt14default_deleteIS0_EEERKT0_RKSt11_Tuple_implIXT_EJS4_DpT1_EE, symObjAddr: 0x9B70, symBinAddr: 0x10000D100, symSize: 0x1C }
  - { offsetInCU: 0x33DDD, offset: 0x33DDD, size: 0x8, addend: 0x0, symName: __ZNSt6vectorISt10shared_ptrI8ParticleESaIS2_EE11_S_max_sizeERKS3_, symObjAddr: 0x9B8C, symBinAddr: 0x10000D11C, symSize: 0x38 }
  - { offsetInCU: 0x33D91, offset: 0x33D91, size: 0x8, addend: 0x0, symName: __ZNK9__gnu_cxx16__aligned_membufISt10shared_ptrI8ParticleEE7_M_addrEv, symObjAddr: 0x9B5C, symBinAddr: 0x10000D0EC, symSize: 0x14 }
  - { offsetInCU: 0x33D99, offset: 0x33D99, size: 0x8, addend: 0x0, symName: __ZSt12__get_helperILm0EP13Four_momentumJSt14default_deleteIS0_EEERKT0_RKSt11_Tuple_implIXT_EJS4_DpT1_EE, symObjAddr: 0x9B70, symBinAddr: 0x10000D100, symSize: 0x1C }
  - { offsetInCU: 0x33DC8, offset: 0x33DC8, size: 0x8, addend: 0x0, symName: __ZN9__gnu_cxx16__aligned_membufISt10shared_ptrI8ElectronEE7_M_addrEv, symObjAddr: 0x9B48, symBinAddr: 0x10000D0D8, symSize: 0x14 }
  - { offsetInCU: 0x33DD0, offset: 0x33DD0, size: 0x8, addend: 0x0, symName: __ZNK9__gnu_cxx16__aligned_membufISt10shared_ptrI8ParticleEE7_M_addrEv, symObjAddr: 0x9B5C, symBinAddr: 0x10000D0EC, symSize: 0x14 }
  - { offsetInCU: 0x33DFB, offset: 0x33DFB, size: 0x8, addend: 0x0, symName: __ZNSt16allocator_traitsISaISt10_List_nodeISt10shared_ptrI8ElectronEEEE10deallocateERS5_PS4_m, symObjAddr: 0x9B18, symBinAddr: 0x10000D0A8, symSize: 0x30 }
  - { offsetInCU: 0x33E03, offset: 0x33E03, size: 0x8, addend: 0x0, symName: __ZN9__gnu_cxx16__aligned_membufISt10shared_ptrI8ElectronEE7_M_addrEv, symObjAddr: 0x9B48, symBinAddr: 0x10000D0D8, symSize: 0x14 }
  - { offsetInCU: 0x33E55, offset: 0x33E55, size: 0x8, addend: 0x0, symName: __ZN9__gnu_cxx13new_allocatorISt10_List_nodeISt10shared_ptrI8ElectronEEE7destroyIS4_EEvPT_, symObjAddr: 0x9AF4, symBinAddr: 0x10000D084, symSize: 0x24 }
  - { offsetInCU: 0x33E5D, offset: 0x33E5D, size: 0x8, addend: 0x0, symName: __ZNSt16allocator_traitsISaISt10_List_nodeISt10shared_ptrI8ElectronEEEE10deallocateERS5_PS4_m, symObjAddr: 0x9B18, symBinAddr: 0x10000D0A8, symSize: 0x30 }
  - { offsetInCU: 0x33EA4, offset: 0x33EA4, size: 0x8, addend: 0x0, symName: __ZNSt7__cxx1110_List_baseISt10shared_ptrI8ElectronESaIS3_EE11_M_inc_sizeEm, symObjAddr: 0x9AC4, symBinAddr: 0x10000D054, symSize: 0x30 }
  - { offsetInCU: 0x33EAC, offset: 0x33EAC, size: 0x8, addend: 0x0, symName: __ZN9__gnu_cxx13new_allocatorISt10_List_nodeISt10shared_ptrI8ElectronEEE7destroyIS4_EEvPT_, symObjAddr: 0x9AF4, symBinAddr: 0x10000D084, symSize: 0x24 }
  - { offsetInCU: 0x33EF1, offset: 0x33EF1, size: 0x8, addend: 0x0, symName: __ZNSt7__cxx114listISt10shared_ptrI8ElectronESaIS3_EE14_M_create_nodeIJRKS3_EEEPSt10_List_nodeIS3_EDpOT_, symObjAddr: 0x9A3C, symBinAddr: 0x10000CFCC, symSize: 0x88 }
  - { offsetInCU: 0x33EF9, offset: 0x33EF9, size: 0x8, addend: 0x0, symName: __ZNSt7__cxx1110_List_baseISt10shared_ptrI8ElectronESaIS3_EE11_M_inc_sizeEm, symObjAddr: 0x9AC4, symBinAddr: 0x10000D054, symSize: 0x30 }
  - { offsetInCU: 0x33FFA, offset: 0x33FFA, size: 0x8, addend: 0x0, symName: __ZSt7forwardIRKSt10shared_ptrI8ElectronEEOT_RNSt16remove_referenceIS5_E4typeE, symObjAddr: 0x9A28, symBinAddr: 0x10000CFB8, symSize: 0x14 }
  - { offsetInCU: 0x34002, offset: 0x34002, size: 0x8, addend: 0x0, symName: __ZNSt7__cxx114listISt10shared_ptrI8ElectronESaIS3_EE14_M_create_nodeIJRKS3_EEEPSt10_List_nodeIS3_EDpOT_, symObjAddr: 0x9A3C, symBinAddr: 0x10000CFCC, symSize: 0x88 }
  - { offsetInCU: 0x3402C, offset: 0x3402C, size: 0x8, addend: 0x0, symName: __ZNSt12__shared_ptrI8ElectronLN9__gnu_cxx12_Lock_policyE2EEC2Ev, symObjAddr: 0x99FC, symBinAddr: 0x10000CF8C, symSize: 0x2C }
  - { offsetInCU: 0x34034, offset: 0x34034, size: 0x8, addend: 0x0, symName: __ZSt7forwardIRKSt10shared_ptrI8ElectronEEOT_RNSt16remove_referenceIS5_E4typeE, symObjAddr: 0x9A28, symBinAddr: 0x10000CFB8, symSize: 0x14 }
  - { offsetInCU: 0x340BE, offset: 0x340BE, size: 0x8, addend: 0x0, symName: __ZNSt12__shared_ptrI8ElectronLN9__gnu_cxx12_Lock_policyE2EEC2I8ParticleEERKS_IT_LS2_2EEPS0_, symObjAddr: 0x99B4, symBinAddr: 0x10000CF44, symSize: 0x48 }
  - { offsetInCU: 0x340C6, offset: 0x340C6, size: 0x8, addend: 0x0, symName: __ZNSt12__shared_ptrI8ElectronLN9__gnu_cxx12_Lock_policyE2EEC2Ev, symObjAddr: 0x99FC, symBinAddr: 0x10000CF8C, symSize: 0x2C }
  - { offsetInCU: 0x3411A, offset: 0x3411A, size: 0x8, addend: 0x0, symName: __ZN9__gnu_cxx13new_allocatorISt10_List_nodeISt10shared_ptrI8ElectronEEEC2Ev, symObjAddr: 0x99A0, symBinAddr: 0x10000CF30, symSize: 0x14 }
  - { offsetInCU: 0x34122, offset: 0x34122, size: 0x8, addend: 0x0, symName: __ZNSt12__shared_ptrI8ElectronLN9__gnu_cxx12_Lock_policyE2EEC2I8ParticleEERKS_IT_LS2_2EEPS0_, symObjAddr: 0x99B4, symBinAddr: 0x10000CF44, symSize: 0x48 }
  - { offsetInCU: 0x34100, offset: 0x34100, size: 0x8, addend: 0x0, symName: __ZN9__gnu_cxx16__aligned_membufISt4pairIKNSt7__cxx1112basic_stringIcSt11char_traitsIcESaIcEEEiEE7_M_addrEv, symObjAddr: 0x998C, symBinAddr: 0x10000CF1C, symSize: 0x14 }
  - { offsetInCU: 0x34108, offset: 0x34108, size: 0x8, addend: 0x0, symName: __ZN9__gnu_cxx13new_allocatorISt10_List_nodeISt10shared_ptrI8ElectronEEEC2Ev, symObjAddr: 0x99A0, symBinAddr: 0x10000CF30, symSize: 0x14 }
  - { offsetInCU: 0x34133, offset: 0x34133, size: 0x8, addend: 0x0, symName: __ZNSt8_Rb_treeINSt7__cxx1112basic_stringIcSt11char_traitsIcESaIcEEESt4pairIKS5_iESt10_Select1stIS8_ESt4lessIS5_ESaIS8_EE11_M_put_nodeEPSt13_Rb_tree_nodeIS8_E, symObjAddr: 0x995C, symBinAddr: 0x10000CEEC, symSize: 0x30 }
  - { offsetInCU: 0x3413B, offset: 0x3413B, size: 0x8, addend: 0x0, symName: __ZN9__gnu_cxx16__aligned_membufISt4pairIKNSt7__cxx1112basic_stringIcSt11char_traitsIcESaIcEEEiEE7_M_addrEv, symObjAddr: 0x998C, symBinAddr: 0x10000CF1C, symSize: 0x14 }
  - { offsetInCU: 0x34176, offset: 0x34176, size: 0x8, addend: 0x0, symName: __ZNSt8_Rb_treeINSt7__cxx1112basic_stringIcSt11char_traitsIcESaIcEEESt4pairIKS5_iESt10_Select1stIS8_ESt4lessIS5_ESaIS8_EE15_M_destroy_nodeEPSt13_Rb_tree_nodeIS8_E, symObjAddr: 0x9918, symBinAddr: 0x10000CEA8, symSize: 0x44 }
  - { offsetInCU: 0x3417E, offset: 0x3417E, size: 0x8, addend: 0x0, symName: __ZNSt8_Rb_treeINSt7__cxx1112basic_stringIcSt11char_traitsIcESaIcEEESt4pairIKS5_iESt10_Select1stIS8_ESt4lessIS5_ESaIS8_EE11_M_put_nodeEPSt13_Rb_tree_nodeIS8_E, symObjAddr: 0x995C, symBinAddr: 0x10000CEEC, symSize: 0x30 }
  - { offsetInCU: 0x342C7, offset: 0x342C7, size: 0x8, addend: 0x0, symName: __ZNSt12__shared_ptrI7W_BosonLN9__gnu_cxx12_Lock_policyE2EEC2ISaIS0_EJdiiibEEESt20_Sp_alloc_shared_tagIT_EDpOT0_, symObjAddr: 0x984C, symBinAddr: 0x10000CDDC, symSize: 0xCC }
  - { offsetInCU: 0x342CF, offset: 0x342CF, size: 0x8, addend: 0x0, symName: __ZNSt8_Rb_treeINSt7__cxx1112basic_stringIcSt11char_traitsIcESaIcEEESt4pairIKS5_iESt10_Select1stIS8_ESt4lessIS5_ESaIS8_EE15_M_destroy_nodeEPSt13_Rb_tree_nodeIS8_E, symObjAddr: 0x9918, symBinAddr: 0x10000CEA8, symSize: 0x44 }
  - { offsetInCU: 0x3440F, offset: 0x3440F, size: 0x8, addend: 0x0, symName: __ZNSt12__shared_ptrI7Z_BosonLN9__gnu_cxx12_Lock_policyE2EEC2ISaIS0_EJdiiiEEESt20_Sp_alloc_shared_tagIT_EDpOT0_, symObjAddr: 0x9794, symBinAddr: 0x10000CD24, symSize: 0xB8 }
  - { offsetInCU: 0x34417, offset: 0x34417, size: 0x8, addend: 0x0, symName: __ZNSt12__shared_ptrI7W_BosonLN9__gnu_cxx12_Lock_policyE2EEC2ISaIS0_EJdiiibEEESt20_Sp_alloc_shared_tagIT_EDpOT0_, symObjAddr: 0x984C, symBinAddr: 0x10000CDDC, symSize: 0xCC }
  - { offsetInCU: 0x34541, offset: 0x34541, size: 0x8, addend: 0x0, symName: __ZNSt12__shared_ptrI5HiggsLN9__gnu_cxx12_Lock_policyE2EEC2ISaIS0_EJddddEEESt20_Sp_alloc_shared_tagIT_EDpOT0_, symObjAddr: 0x96DC, symBinAddr: 0x10000CC6C, symSize: 0xB8 }
  - { offsetInCU: 0x34549, offset: 0x34549, size: 0x8, addend: 0x0, symName: __ZNSt12__shared_ptrI7Z_BosonLN9__gnu_cxx12_Lock_policyE2EEC2ISaIS0_EJdiiiEEESt20_Sp_alloc_shared_tagIT_EDpOT0_, symObjAddr: 0x9794, symBinAddr: 0x10000CD24, symSize: 0xB8 }
  - { offsetInCU: 0x3468A, offset: 0x3468A, size: 0x8, addend: 0x0, symName: __ZNSt12__shared_ptrI7W_BosonLN9__gnu_cxx12_Lock_policyE2EEC2ISaIS0_EJddddbEEESt20_Sp_alloc_shared_tagIT_EDpOT0_, symObjAddr: 0x9610, symBinAddr: 0x10000CBA0, symSize: 0xCC }
  - { offsetInCU: 0x34692, offset: 0x34692, size: 0x8, addend: 0x0, symName: __ZNSt12__shared_ptrI5HiggsLN9__gnu_cxx12_Lock_policyE2EEC2ISaIS0_EJddddEEESt20_Sp_alloc_shared_tagIT_EDpOT0_, symObjAddr: 0x96DC, symBinAddr: 0x10000CC6C, symSize: 0xB8 }
  - { offsetInCU: 0x347D2, offset: 0x347D2, size: 0x8, addend: 0x0, symName: __ZNSt12__shared_ptrI7Z_BosonLN9__gnu_cxx12_Lock_policyE2EEC2ISaIS0_EJddddEEESt20_Sp_alloc_shared_tagIT_EDpOT0_, symObjAddr: 0x9558, symBinAddr: 0x10000CAE8, symSize: 0xB8 }
  - { offsetInCU: 0x347DA, offset: 0x347DA, size: 0x8, addend: 0x0, symName: __ZNSt12__shared_ptrI7W_BosonLN9__gnu_cxx12_Lock_policyE2EEC2ISaIS0_EJddddbEEESt20_Sp_alloc_shared_tagIT_EDpOT0_, symObjAddr: 0x9610, symBinAddr: 0x10000CBA0, symSize: 0xCC }
  - { offsetInCU: 0x34905, offset: 0x34905, size: 0x8, addend: 0x0, symName: __ZNSt12__shared_ptrI6PhotonLN9__gnu_cxx12_Lock_policyE2EEC2ISaIS0_EJiiiiEEESt20_Sp_alloc_shared_tagIT_EDpOT0_, symObjAddr: 0x94A0, symBinAddr: 0x10000CA30, symSize: 0xB8 }
  - { offsetInCU: 0x3490D, offset: 0x3490D, size: 0x8, addend: 0x0, symName: __ZNSt12__shared_ptrI7Z_BosonLN9__gnu_cxx12_Lock_policyE2EEC2ISaIS0_EJddddEEESt20_Sp_alloc_shared_tagIT_EDpOT0_, symObjAddr: 0x9558, symBinAddr: 0x10000CAE8, symSize: 0xB8 }
  - { offsetInCU: 0x34A7F, offset: 0x34A7F, size: 0x8, addend: 0x0, symName: __ZNSt12__shared_ptrI5GluonLN9__gnu_cxx12_Lock_policyE2EEC2ISaIS0_EJddddb11Colour_listS6_EEESt20_Sp_alloc_shared_tagIT_EDpOT0_, symObjAddr: 0x93A0, symBinAddr: 0x10000C930, symSize: 0x100 }
  - { offsetInCU: 0x34A87, offset: 0x34A87, size: 0x8, addend: 0x0, symName: __ZNSt12__shared_ptrI6PhotonLN9__gnu_cxx12_Lock_policyE2EEC2ISaIS0_EJiiiiEEESt20_Sp_alloc_shared_tagIT_EDpOT0_, symObjAddr: 0x94A0, symBinAddr: 0x10000CA30, symSize: 0xB8 }
  - { offsetInCU: 0x34C2C, offset: 0x34C2C, size: 0x8, addend: 0x0, symName: __ZNSt12__shared_ptrI8NeutrinoLN9__gnu_cxx12_Lock_policyE2EEC2ISaIS0_EJddddb14Lepton_flavourbEEESt20_Sp_alloc_shared_tagIT_EDpOT0_, symObjAddr: 0x92A0, symBinAddr: 0x10000C830, symSize: 0x100 }
  - { offsetInCU: 0x34C34, offset: 0x34C34, size: 0x8, addend: 0x0, symName: __ZNSt12__shared_ptrI5GluonLN9__gnu_cxx12_Lock_policyE2EEC2ISaIS0_EJddddb11Colour_listS6_EEESt20_Sp_alloc_shared_tagIT_EDpOT0_, symObjAddr: 0x93A0, symBinAddr: 0x10000C930, symSize: 0x100 }
  - { offsetInCU: 0x34D9B, offset: 0x34D9B, size: 0x8, addend: 0x0, symName: __ZNSt12__shared_ptrI3TauLN9__gnu_cxx12_Lock_policyE2EEC2ISaIS0_EJdiiibEEESt20_Sp_alloc_shared_tagIT_EDpOT0_, symObjAddr: 0x91D4, symBinAddr: 0x10000C764, symSize: 0xCC }
  - { offsetInCU: 0x34DA3, offset: 0x34DA3, size: 0x8, addend: 0x0, symName: __ZNSt12__shared_ptrI8NeutrinoLN9__gnu_cxx12_Lock_policyE2EEC2ISaIS0_EJddddb14Lepton_flavourbEEESt20_Sp_alloc_shared_tagIT_EDpOT0_, symObjAddr: 0x92A0, symBinAddr: 0x10000C830, symSize: 0x100 }
  - { offsetInCU: 0x34F38, offset: 0x34F38, size: 0x8, addend: 0x0, symName: __ZNSt12__shared_ptrI5QuarkLN9__gnu_cxx12_Lock_policyE2EEC2ISaIS0_EJdiiib13Quark_flavour11Colour_listEEESt20_Sp_alloc_shared_tagIT_EDpOT0_, symObjAddr: 0x90D4, symBinAddr: 0x10000C664, symSize: 0x100 }
  - { offsetInCU: 0x34F40, offset: 0x34F40, size: 0x8, addend: 0x0, symName: __ZNSt12__shared_ptrI3TauLN9__gnu_cxx12_Lock_policyE2EEC2ISaIS0_EJdiiibEEESt20_Sp_alloc_shared_tagIT_EDpOT0_, symObjAddr: 0x91D4, symBinAddr: 0x10000C764, symSize: 0xCC }
  - { offsetInCU: 0x350B3, offset: 0x350B3, size: 0x8, addend: 0x0, symName: __ZNSt12__shared_ptrI4MuonLN9__gnu_cxx12_Lock_policyE2EEC2ISaIS0_EJddddbbEEESt20_Sp_alloc_shared_tagIT_EDpOT0_, symObjAddr: 0x8FE4, symBinAddr: 0x10000C574, symSize: 0xF0 }
  - { offsetInCU: 0x350BB, offset: 0x350BB, size: 0x8, addend: 0x0, symName: __ZNSt12__shared_ptrI5QuarkLN9__gnu_cxx12_Lock_policyE2EEC2ISaIS0_EJdiiib13Quark_flavour11Colour_listEEESt20_Sp_alloc_shared_tagIT_EDpOT0_, symObjAddr: 0x90D4, symBinAddr: 0x10000C664, symSize: 0x100 }
  - { offsetInCU: 0x35226, offset: 0x35226, size: 0x8, addend: 0x0, symName: __ZNSt12__shared_ptrI8ElectronLN9__gnu_cxx12_Lock_policyE2EEC2ISaIS0_EJddddbEEESt20_Sp_alloc_shared_tagIT_EDpOT0_, symObjAddr: 0x8F18, symBinAddr: 0x10000C4A8, symSize: 0xCC }
  - { offsetInCU: 0x3522E, offset: 0x3522E, size: 0x8, addend: 0x0, symName: __ZNSt12__shared_ptrI4MuonLN9__gnu_cxx12_Lock_policyE2EEC2ISaIS0_EJddddbbEEESt20_Sp_alloc_shared_tagIT_EDpOT0_, symObjAddr: 0x8FE4, symBinAddr: 0x10000C574, symSize: 0xF0 }
  - { offsetInCU: 0x353BE, offset: 0x353BE, size: 0x8, addend: 0x0, symName: __ZNSt12__shared_ptrI5QuarkLN9__gnu_cxx12_Lock_policyE2EEC2ISaIS0_EJddddb13Quark_flavour11Colour_listEEESt20_Sp_alloc_shared_tagIT_EDpOT0_, symObjAddr: 0x8E18, symBinAddr: 0x10000C3A8, symSize: 0x100 }
  - { offsetInCU: 0x353C6, offset: 0x353C6, size: 0x8, addend: 0x0, symName: __ZNSt12__shared_ptrI8ElectronLN9__gnu_cxx12_Lock_policyE2EEC2ISaIS0_EJddddbEEESt20_Sp_alloc_shared_tagIT_EDpOT0_, symObjAddr: 0x8F18, symBinAddr: 0x10000C4A8, symSize: 0xCC }
  - { offsetInCU: 0x3555F, offset: 0x3555F, size: 0x8, addend: 0x0, symName: __ZNSt12__shared_ptrI8NeutrinoLN9__gnu_cxx12_Lock_policyE2EEC2ISaIS0_EJdiiib14Lepton_flavourbEEESt20_Sp_alloc_shared_tagIT_EDpOT0_, symObjAddr: 0x8D18, symBinAddr: 0x10000C2A8, symSize: 0x100 }
  - { offsetInCU: 0x35567, offset: 0x35567, size: 0x8, addend: 0x0, symName: __ZNSt12__shared_ptrI5QuarkLN9__gnu_cxx12_Lock_policyE2EEC2ISaIS0_EJddddb13Quark_flavour11Colour_listEEESt20_Sp_alloc_shared_tagIT_EDpOT0_, symObjAddr: 0x8E18, symBinAddr: 0x10000C3A8, symSize: 0x100 }
  - { offsetInCU: 0x356D3, offset: 0x356D3, size: 0x8, addend: 0x0, symName: __ZNSt12__shared_ptrI8ElectronLN9__gnu_cxx12_Lock_policyE2EEC2ISaIS0_EJdiiibEEESt20_Sp_alloc_shared_tagIT_EDpOT0_, symObjAddr: 0x8C4C, symBinAddr: 0x10000C1DC, symSize: 0xCC }
  - { offsetInCU: 0x356DB, offset: 0x356DB, size: 0x8, addend: 0x0, symName: __ZNSt12__shared_ptrI8NeutrinoLN9__gnu_cxx12_Lock_policyE2EEC2ISaIS0_EJdiiib14Lepton_flavourbEEESt20_Sp_alloc_shared_tagIT_EDpOT0_, symObjAddr: 0x8D18, symBinAddr: 0x10000C2A8, symSize: 0x100 }
  - { offsetInCU: 0x3571F, offset: 0x3571F, size: 0x8, addend: 0x0, symName: __ZNSt16_Sp_counted_baseILN9__gnu_cxx12_Lock_policyE2EE15_M_add_ref_copyEv, symObjAddr: 0x8BB8, symBinAddr: 0x10000C148, symSize: 0x94 }
  - { offsetInCU: 0x35727, offset: 0x35727, size: 0x8, addend: 0x0, symName: __ZNSt12__shared_ptrI8ElectronLN9__gnu_cxx12_Lock_policyE2EEC2ISaIS0_EJdiiibEEESt20_Sp_alloc_shared_tagIT_EDpOT0_, symObjAddr: 0x8C4C, symBinAddr: 0x10000C1DC, symSize: 0xCC }
  - { offsetInCU: 0x3590B, offset: 0x3590B, size: 0x8, addend: 0x0, symName: __ZNSt12__shared_ptrI3TauLN9__gnu_cxx12_Lock_policyE2EEC2ISaIS0_EJddddbEEESt20_Sp_alloc_shared_tagIT_EDpOT0_, symObjAddr: 0x8AEC, symBinAddr: 0x10000C07C, symSize: 0xCC }
  - { offsetInCU: 0x35913, offset: 0x35913, size: 0x8, addend: 0x0, symName: __ZNSt16_Sp_counted_baseILN9__gnu_cxx12_Lock_policyE2EE15_M_add_ref_copyEv, symObjAddr: 0x8BB8, symBinAddr: 0x10000C148, symSize: 0x94 }
  - { offsetInCU: 0x359BE, offset: 0x359BE, size: 0x8, addend: 0x0, symName: __ZNSt16_Sp_counted_baseILN9__gnu_cxx12_Lock_policyE2EED2Ev, symObjAddr: 0x8AC4, symBinAddr: 0x10000C054, symSize: 0x28 }
  - { offsetInCU: 0x359C6, offset: 0x359C6, size: 0x8, addend: 0x0, symName: __ZNSt12__shared_ptrI3TauLN9__gnu_cxx12_Lock_policyE2EEC2ISaIS0_EJddddbEEESt20_Sp_alloc_shared_tagIT_EDpOT0_, symObjAddr: 0x8AEC, symBinAddr: 0x10000C07C, symSize: 0xCC }
  - { offsetInCU: 0x35AFD, offset: 0x35AFD, size: 0x8, addend: 0x0, symName: __ZNSt12__shared_ptrI5QuarkLN9__gnu_cxx12_Lock_policyE2EEC2ISaIS0_EJiiiib13Quark_flavour11Colour_listEEESt20_Sp_alloc_shared_tagIT_EDpOT0_, symObjAddr: 0x89C4, symBinAddr: 0x10000BF54, symSize: 0x100 }
  - { offsetInCU: 0x35B05, offset: 0x35B05, size: 0x8, addend: 0x0, symName: __ZNSt16_Sp_counted_baseILN9__gnu_cxx12_Lock_policyE2EED2Ev, symObjAddr: 0x8AC4, symBinAddr: 0x10000C054, symSize: 0x28 }
  - { offsetInCU: 0x35B5A, offset: 0x35B5A, size: 0x8, addend: 0x0, symName: __ZNSt16allocator_traitsISaISt10_List_nodeISt10shared_ptrI8ParticleEEEE10deallocateERS5_PS4_m, symObjAddr: 0x8994, symBinAddr: 0x10000BF24, symSize: 0x30 }
  - { offsetInCU: 0x35B62, offset: 0x35B62, size: 0x8, addend: 0x0, symName: __ZNSt12__shared_ptrI5QuarkLN9__gnu_cxx12_Lock_policyE2EEC2ISaIS0_EJiiiib13Quark_flavour11Colour_listEEESt20_Sp_alloc_shared_tagIT_EDpOT0_, symObjAddr: 0x89C4, symBinAddr: 0x10000BF54, symSize: 0x100 }
  - { offsetInCU: 0x35BB4, offset: 0x35BB4, size: 0x8, addend: 0x0, symName: __ZN9__gnu_cxx13new_allocatorISt10_List_nodeISt10shared_ptrI8ParticleEEE7destroyIS4_EEvPT_, symObjAddr: 0x8970, symBinAddr: 0x10000BF00, symSize: 0x24 }
  - { offsetInCU: 0x35BBC, offset: 0x35BBC, size: 0x8, addend: 0x0, symName: __ZNSt16allocator_traitsISaISt10_List_nodeISt10shared_ptrI8ParticleEEEE10deallocateERS5_PS4_m, symObjAddr: 0x8994, symBinAddr: 0x10000BF24, symSize: 0x30 }
  - { offsetInCU: 0x35C03, offset: 0x35C03, size: 0x8, addend: 0x0, symName: __ZN9__gnu_cxx16__aligned_membufISt10shared_ptrI8ParticleEE6_M_ptrEv, symObjAddr: 0x8954, symBinAddr: 0x10000BEE4, symSize: 0x1C }
  - { offsetInCU: 0x35C0B, offset: 0x35C0B, size: 0x8, addend: 0x0, symName: __ZN9__gnu_cxx13new_allocatorISt10_List_nodeISt10shared_ptrI8ParticleEEE7destroyIS4_EEvPT_, symObjAddr: 0x8970, symBinAddr: 0x10000BF00, symSize: 0x24 }
  - { offsetInCU: 0x35C32, offset: 0x35C32, size: 0x8, addend: 0x0, symName: __ZNSt16allocator_traitsISaISt10shared_ptrI8ParticleEEE10deallocateERS3_PS2_m, symObjAddr: 0x8924, symBinAddr: 0x10000BEB4, symSize: 0x30 }
  - { offsetInCU: 0x35C3A, offset: 0x35C3A, size: 0x8, addend: 0x0, symName: __ZN9__gnu_cxx16__aligned_membufISt10shared_ptrI8ParticleEE6_M_ptrEv, symObjAddr: 0x8954, symBinAddr: 0x10000BEE4, symSize: 0x1C }
  - { offsetInCU: 0x35C8C, offset: 0x35C8C, size: 0x8, addend: 0x0, symName: __ZN9__gnu_cxx13new_allocatorISt10shared_ptrI8ParticleEE7destroyIS3_EEvPT_, symObjAddr: 0x8900, symBinAddr: 0x10000BE90, symSize: 0x24 }
  - { offsetInCU: 0x35C94, offset: 0x35C94, size: 0x8, addend: 0x0, symName: __ZNSt16allocator_traitsISaISt10shared_ptrI8ParticleEEE10deallocateERS3_PS2_m, symObjAddr: 0x8924, symBinAddr: 0x10000BEB4, symSize: 0x30 }
  - { offsetInCU: 0x35CDB, offset: 0x35CDB, size: 0x8, addend: 0x0, symName: __ZNSt6vectorISt10shared_ptrI8ParticleESaIS2_EE14_S_do_relocateEPS2_S5_S5_RS3_St17integral_constantIbLb1EE, symObjAddr: 0x88C8, symBinAddr: 0x10000BE58, symSize: 0x38 }
  - { offsetInCU: 0x35CE3, offset: 0x35CE3, size: 0x8, addend: 0x0, symName: __ZN9__gnu_cxx13new_allocatorISt10shared_ptrI8ParticleEE7destroyIS3_EEvPT_, symObjAddr: 0x8900, symBinAddr: 0x10000BE90, symSize: 0x24 }
  - { offsetInCU: 0x35D55, offset: 0x35D55, size: 0x8, addend: 0x0, symName: __ZNSt16allocator_traitsISaISt10shared_ptrI8ParticleEEE8allocateERS3_m, symObjAddr: 0x88A0, symBinAddr: 0x10000BE30, symSize: 0x28 }
  - { offsetInCU: 0x35D5D, offset: 0x35D5D, size: 0x8, addend: 0x0, symName: __ZNSt6vectorISt10shared_ptrI8ParticleESaIS2_EE14_S_do_relocateEPS2_S5_S5_RS3_St17integral_constantIbLb1EE, symObjAddr: 0x88C8, symBinAddr: 0x10000BE58, symSize: 0x38 }
  - { offsetInCU: 0x35D9B, offset: 0x35D9B, size: 0x8, addend: 0x0, symName: __ZNKSt6vectorISt10shared_ptrI8ParticleESaIS2_EE4sizeEv, symObjAddr: 0x8878, symBinAddr: 0x10000BE08, symSize: 0x28 }
  - { offsetInCU: 0x35DA3, offset: 0x35DA3, size: 0x8, addend: 0x0, symName: __ZNSt16allocator_traitsISaISt10shared_ptrI8ParticleEEE8allocateERS3_m, symObjAddr: 0x88A0, symBinAddr: 0x10000BE30, symSize: 0x28 }
  - { offsetInCU: 0x35DCA, offset: 0x35DCA, size: 0x8, addend: 0x0, symName: __ZNKSt6vectorISt10shared_ptrI8ParticleESaIS2_EE8max_sizeEv, symObjAddr: 0x8858, symBinAddr: 0x10000BDE8, symSize: 0x20 }
  - { offsetInCU: 0x35DD2, offset: 0x35DD2, size: 0x8, addend: 0x0, symName: __ZNKSt6vectorISt10shared_ptrI8ParticleESaIS2_EE4sizeEv, symObjAddr: 0x8878, symBinAddr: 0x10000BE08, symSize: 0x28 }
  - { offsetInCU: 0x35EC1, offset: 0x35EC1, size: 0x8, addend: 0x0, symName: __ZSt3getILm0EJP13Four_momentumSt14default_deleteIS0_EEERKNSt13tuple_elementIXT_ESt5tupleIJDpT0_EEE4typeERKS8_, symObjAddr: 0x883C, symBinAddr: 0x10000BDCC, symSize: 0x1C }
  - { offsetInCU: 0x35EC9, offset: 0x35EC9, size: 0x8, addend: 0x0, symName: __ZNKSt6vectorISt10shared_ptrI8ParticleESaIS2_EE8max_sizeEv, symObjAddr: 0x8858, symBinAddr: 0x10000BDE8, symSize: 0x20 }
  - { offsetInCU: 0x35E82, offset: 0x35E82, size: 0x8, addend: 0x0, symName: __ZNK9__gnu_cxx16__aligned_membufISt10shared_ptrI8ParticleEE6_M_ptrEv, symObjAddr: 0x8820, symBinAddr: 0x10000BDB0, symSize: 0x1C }
  - { offsetInCU: 0x35E8A, offset: 0x35E8A, size: 0x8, addend: 0x0, symName: __ZSt3getILm0EJP13Four_momentumSt14default_deleteIS0_EEERKNSt13tuple_elementIXT_ESt5tupleIJDpT0_EEE4typeERKS8_, symObjAddr: 0x883C, symBinAddr: 0x10000BDCC, symSize: 0x1C }
  - { offsetInCU: 0x35EB1, offset: 0x35EB1, size: 0x8, addend: 0x0, symName: __ZNKSt7__cxx1110_List_baseISt10shared_ptrI8ParticleESaIS3_EE11_M_get_sizeEv, symObjAddr: 0x8808, symBinAddr: 0x10000BD98, symSize: 0x18 }
  - { offsetInCU: 0x35EB9, offset: 0x35EB9, size: 0x8, addend: 0x0, symName: __ZNK9__gnu_cxx16__aligned_membufISt10shared_ptrI8ParticleEE6_M_ptrEv, symObjAddr: 0x8820, symBinAddr: 0x10000BDB0, symSize: 0x1C }
  - { offsetInCU: 0x35EE0, offset: 0x35EE0, size: 0x8, addend: 0x0, symName: __ZNKSt12__shared_ptrI8ElectronLN9__gnu_cxx12_Lock_policyE2EE3getEv, symObjAddr: 0x87F0, symBinAddr: 0x10000BD80, symSize: 0x18 }
  - { offsetInCU: 0x35EE8, offset: 0x35EE8, size: 0x8, addend: 0x0, symName: __ZNKSt7__cxx1110_List_baseISt10shared_ptrI8ParticleESaIS3_EE11_M_get_sizeEv, symObjAddr: 0x8808, symBinAddr: 0x10000BD98, symSize: 0x18 }
  - { offsetInCU: 0x35F0F, offset: 0x35F0F, size: 0x8, addend: 0x0, symName: __ZN9__gnu_cxx16__aligned_membufISt10shared_ptrI8ElectronEE6_M_ptrEv, symObjAddr: 0x87D4, symBinAddr: 0x10000BD64, symSize: 0x1C }
  - { offsetInCU: 0x35F17, offset: 0x35F17, size: 0x8, addend: 0x0, symName: __ZNKSt12__shared_ptrI8ElectronLN9__gnu_cxx12_Lock_policyE2EE3getEv, symObjAddr: 0x87F0, symBinAddr: 0x10000BD80, symSize: 0x18 }
  - { offsetInCU: 0x35F3E, offset: 0x35F3E, size: 0x8, addend: 0x0, symName: __ZNSt7__cxx1110_List_baseISt10shared_ptrI8ElectronESaIS3_EE11_M_put_nodeEPSt10_List_nodeIS3_E, symObjAddr: 0x87A8, symBinAddr: 0x10000BD38, symSize: 0x2C }
  - { offsetInCU: 0x35F46, offset: 0x35F46, size: 0x8, addend: 0x0, symName: __ZN9__gnu_cxx16__aligned_membufISt10shared_ptrI8ElectronEE6_M_ptrEv, symObjAddr: 0x87D4, symBinAddr: 0x10000BD64, symSize: 0x1C }
  - { offsetInCU: 0x35F81, offset: 0x35F81, size: 0x8, addend: 0x0, symName: __ZNSt16allocator_traitsISaISt10_List_nodeISt10shared_ptrI8ElectronEEEE7destroyIS3_EEvRS5_PT_, symObjAddr: 0x8780, symBinAddr: 0x10000BD10, symSize: 0x28 }
  - { offsetInCU: 0x35F89, offset: 0x35F89, size: 0x8, addend: 0x0, symName: __ZNSt7__cxx1110_List_baseISt10shared_ptrI8ElectronESaIS3_EE11_M_put_nodeEPSt10_List_nodeIS3_E, symObjAddr: 0x87A8, symBinAddr: 0x10000BD38, symSize: 0x2C }
  - { offsetInCU: 0x35FD4, offset: 0x35FD4, size: 0x8, addend: 0x0, symName: __ZNSt7__cxx1110_List_baseISt10shared_ptrI8ElectronESaIS3_EE21_M_get_Node_allocatorEv, symObjAddr: 0x876C, symBinAddr: 0x10000BCFC, symSize: 0x14 }
  - { offsetInCU: 0x35FDC, offset: 0x35FDC, size: 0x8, addend: 0x0, symName: __ZNSt16allocator_traitsISaISt10_List_nodeISt10shared_ptrI8ElectronEEEE7destroyIS3_EEvRS5_PT_, symObjAddr: 0x8780, symBinAddr: 0x10000BD10, symSize: 0x28 }
  - { offsetInCU: 0x36003, offset: 0x36003, size: 0x8, addend: 0x0, symName: __ZNSt7__cxx114listISt10shared_ptrI8ElectronESaIS3_EE9_M_insertIJRKS3_EEEvSt14_List_iteratorIS3_EDpOT_, symObjAddr: 0x871C, symBinAddr: 0x10000BCAC, symSize: 0x50 }
  - { offsetInCU: 0x3600B, offset: 0x3600B, size: 0x8, addend: 0x0, symName: __ZNSt7__cxx1110_List_baseISt10shared_ptrI8ElectronESaIS3_EE21_M_get_Node_allocatorEv, symObjAddr: 0x876C, symBinAddr: 0x10000BCFC, symSize: 0x14 }
  - { offsetInCU: 0x360B6, offset: 0x360B6, size: 0x8, addend: 0x0, symName: __ZNSt10shared_ptrI8ElectronEC1Ev, symObjAddr: 0x86FC, symBinAddr: 0x10000BC8C, symSize: 0x20 }
  - { offsetInCU: 0x360BE, offset: 0x360BE, size: 0x8, addend: 0x0, symName: __ZNSt7__cxx114listISt10shared_ptrI8ElectronESaIS3_EE9_M_insertIJRKS3_EEEvSt14_List_iteratorIS3_EDpOT_, symObjAddr: 0x871C, symBinAddr: 0x10000BCAC, symSize: 0x50 }
  - { offsetInCU: 0x3614C, offset: 0x3614C, size: 0x8, addend: 0x0, symName: __ZNSt10shared_ptrI8ElectronEC1I8ParticleEERKS_IT_EPS0_, symObjAddr: 0x86CC, symBinAddr: 0x10000BC5C, symSize: 0x30 }
  - { offsetInCU: 0x36154, offset: 0x36154, size: 0x8, addend: 0x0, symName: __ZNSt10shared_ptrI8ElectronEC1Ev, symObjAddr: 0x86FC, symBinAddr: 0x10000BC8C, symSize: 0x20 }
  - { offsetInCU: 0x36168, offset: 0x36168, size: 0x8, addend: 0x0, symName: __ZNKSt12__shared_ptrI8ParticleLN9__gnu_cxx12_Lock_policyE2EE3getEv, symObjAddr: 0x86B4, symBinAddr: 0x10000BC44, symSize: 0x18 }
  - { offsetInCU: 0x36170, offset: 0x36170, size: 0x8, addend: 0x0, symName: __ZNSt10shared_ptrI8ElectronEC1I8ParticleEERKS_IT_EPS0_, symObjAddr: 0x86CC, symBinAddr: 0x10000BC5C, symSize: 0x30 }
  - { offsetInCU: 0x3620A, offset: 0x3620A, size: 0x8, addend: 0x0, symName: __ZN9__gnu_cxx13new_allocatorISt10_List_nodeISt10shared_ptrI8ElectronEEED2Ev, symObjAddr: 0x86A0, symBinAddr: 0x10000BC30, symSize: 0x14 }
  - { offsetInCU: 0x36212, offset: 0x36212, size: 0x8, addend: 0x0, symName: __ZNKSt12__shared_ptrI8ParticleLN9__gnu_cxx12_Lock_policyE2EE3getEv, symObjAddr: 0x86B4, symBinAddr: 0x10000BC44, symSize: 0x18 }
  - { offsetInCU: 0x3623A, offset: 0x3623A, size: 0x8, addend: 0x0, symName: __ZNSaISt10_List_nodeISt10shared_ptrI8ElectronEEEC2Ev, symObjAddr: 0x8680, symBinAddr: 0x10000BC10, symSize: 0x20 }
  - { offsetInCU: 0x36242, offset: 0x36242, size: 0x8, addend: 0x0, symName: __ZN9__gnu_cxx13new_allocatorISt10_List_nodeISt10shared_ptrI8ElectronEEED2Ev, symObjAddr: 0x86A0, symBinAddr: 0x10000BC30, symSize: 0x14 }
  - { offsetInCU: 0x36233, offset: 0x36233, size: 0x8, addend: 0x0, symName: __ZN9__gnu_cxx16__aligned_membufISt4pairIKNSt7__cxx1112basic_stringIcSt11char_traitsIcESaIcEEEiEE6_M_ptrEv, symObjAddr: 0x8664, symBinAddr: 0x10000BBF4, symSize: 0x1C }
  - { offsetInCU: 0x3623B, offset: 0x3623B, size: 0x8, addend: 0x0, symName: __ZNSaISt10_List_nodeISt10shared_ptrI8ElectronEEEC2Ev, symObjAddr: 0x8680, symBinAddr: 0x10000BC10, symSize: 0x20 }
  - { offsetInCU: 0x36300, offset: 0x36300, size: 0x8, addend: 0x0, symName: __ZNSt17_Rb_tree_iteratorISt4pairIKNSt7__cxx1112basic_stringIcSt11char_traitsIcESaIcEEEiEEC1EPSt18_Rb_tree_node_base, symObjAddr: 0x8640, symBinAddr: 0x10000BBD0, symSize: 0x24 }
  - { offsetInCU: 0x36308, offset: 0x36308, size: 0x8, addend: 0x0, symName: __ZN9__gnu_cxx16__aligned_membufISt4pairIKNSt7__cxx1112basic_stringIcSt11char_traitsIcESaIcEEEiEE6_M_ptrEv, symObjAddr: 0x8664, symBinAddr: 0x10000BBF4, symSize: 0x1C }
  - { offsetInCU: 0x362C6, offset: 0x362C6, size: 0x8, addend: 0x0, symName: __ZNKSt8_Rb_treeINSt7__cxx1112basic_stringIcSt11char_traitsIcESaIcEEESt4pairIKS5_iESt10_Select1stIS8_ESt4lessIS5_ESaIS8_EE9_M_mbeginEv, symObjAddr: 0x8628, symBinAddr: 0x10000BBB8, symSize: 0x18 }
  - { offsetInCU: 0x362CE, offset: 0x362CE, size: 0x8, addend: 0x0, symName: __ZNSt17_Rb_tree_iteratorISt4pairIKNSt7__cxx1112basic_stringIcSt11char_traitsIcESaIcEEEiEEC1EPSt18_Rb_tree_node_base, symObjAddr: 0x8640, symBinAddr: 0x10000BBD0, symSize: 0x24 }
  - { offsetInCU: 0x362F5, offset: 0x362F5, size: 0x8, addend: 0x0, symName: __ZNSt8_Rb_treeINSt7__cxx1112basic_stringIcSt11char_traitsIcESaIcEEESt4pairIKS5_iESt10_Select1stIS8_ESt4lessIS5_ESaIS8_EE12_M_drop_nodeEPSt13_Rb_tree_nodeIS8_E, symObjAddr: 0x85F4, symBinAddr: 0x10000BB84, symSize: 0x34 }
  - { offsetInCU: 0x362FD, offset: 0x362FD, size: 0x8, addend: 0x0, symName: __ZNKSt8_Rb_treeINSt7__cxx1112basic_stringIcSt11char_traitsIcESaIcEEESt4pairIKS5_iESt10_Select1stIS8_ESt4lessIS5_ESaIS8_EE9_M_mbeginEv, symObjAddr: 0x8628, symBinAddr: 0x10000BBB8, symSize: 0x18 }
  - { offsetInCU: 0x36338, offset: 0x36338, size: 0x8, addend: 0x0, symName: __ZNSt8_Rb_treeINSt7__cxx1112basic_stringIcSt11char_traitsIcESaIcEEESt4pairIKS5_iESt10_Select1stIS8_ESt4lessIS5_ESaIS8_EE7_S_leftEPSt18_Rb_tree_node_base, symObjAddr: 0x85DC, symBinAddr: 0x10000BB6C, symSize: 0x18 }
  - { offsetInCU: 0x36340, offset: 0x36340, size: 0x8, addend: 0x0, symName: __ZNSt8_Rb_treeINSt7__cxx1112basic_stringIcSt11char_traitsIcESaIcEEESt4pairIKS5_iESt10_Select1stIS8_ESt4lessIS5_ESaIS8_EE12_M_drop_nodeEPSt13_Rb_tree_nodeIS8_E, symObjAddr: 0x85F4, symBinAddr: 0x10000BB84, symSize: 0x34 }
  - { offsetInCU: 0x3636A, offset: 0x3636A, size: 0x8, addend: 0x0, symName: __ZNSt8_Rb_treeINSt7__cxx1112basic_stringIcSt11char_traitsIcESaIcEEESt4pairIKS5_iESt10_Select1stIS8_ESt4lessIS5_ESaIS8_EE8_S_rightEPSt18_Rb_tree_node_base, symObjAddr: 0x85C4, symBinAddr: 0x10000BB54, symSize: 0x18 }
  - { offsetInCU: 0x36372, offset: 0x36372, size: 0x8, addend: 0x0, symName: __ZNSt8_Rb_treeINSt7__cxx1112basic_stringIcSt11char_traitsIcESaIcEEESt4pairIKS5_iESt10_Select1stIS8_ESt4lessIS5_ESaIS8_EE7_S_leftEPSt18_Rb_tree_node_base, symObjAddr: 0x85DC, symBinAddr: 0x10000BB6C, symSize: 0x18 }
  - { offsetInCU: 0x36438, offset: 0x36438, size: 0x8, addend: 0x0, symName: __ZN9__gnu_cxx13new_allocatorISt13_Rb_tree_nodeISt4pairIKNSt7__cxx1112basic_stringIcSt11char_traitsIcESaIcEEEiEEED2Ev, symObjAddr: 0x85B0, symBinAddr: 0x10000BB40, symSize: 0x14 }
  - { offsetInCU: 0x36440, offset: 0x36440, size: 0x8, addend: 0x0, symName: __ZNSt8_Rb_treeINSt7__cxx1112basic_stringIcSt11char_traitsIcESaIcEEESt4pairIKS5_iESt10_Select1stIS8_ESt4lessIS5_ESaIS8_EE8_S_rightEPSt18_Rb_tree_node_base, symObjAddr: 0x85C4, symBinAddr: 0x10000BB54, symSize: 0x18 }
  - { offsetInCU: 0x364E0, offset: 0x364E0, size: 0x8, addend: 0x0, symName: __ZNSt10shared_ptrI7W_BosonEC1ISaIS0_EJdiiibEEESt20_Sp_alloc_shared_tagIT_EDpOT0_, symObjAddr: 0x850C, symBinAddr: 0x10000BA9C, symSize: 0xA4 }
  - { offsetInCU: 0x364E8, offset: 0x364E8, size: 0x8, addend: 0x0, symName: __ZN9__gnu_cxx13new_allocatorISt13_Rb_tree_nodeISt4pairIKNSt7__cxx1112basic_stringIcSt11char_traitsIcESaIcEEEiEEED2Ev, symObjAddr: 0x85B0, symBinAddr: 0x10000BB40, symSize: 0x14 }
  - { offsetInCU: 0x36628, offset: 0x36628, size: 0x8, addend: 0x0, symName: __ZNSt10shared_ptrI7Z_BosonEC1ISaIS0_EJdiiiEEESt20_Sp_alloc_shared_tagIT_EDpOT0_, symObjAddr: 0x8484, symBinAddr: 0x10000BA14, symSize: 0x88 }
  - { offsetInCU: 0x36630, offset: 0x36630, size: 0x8, addend: 0x0, symName: __ZNSt10shared_ptrI7W_BosonEC1ISaIS0_EJdiiibEEESt20_Sp_alloc_shared_tagIT_EDpOT0_, symObjAddr: 0x850C, symBinAddr: 0x10000BA9C, symSize: 0xA4 }
  - { offsetInCU: 0x36680, offset: 0x36680, size: 0x8, addend: 0x0, symName: __ZNKSt12__shared_ptrI5HiggsLN9__gnu_cxx12_Lock_policyE2EE3getEv, symObjAddr: 0x846C, symBinAddr: 0x10000B9FC, symSize: 0x18 }
  - { offsetInCU: 0x36688, offset: 0x36688, size: 0x8, addend: 0x0, symName: __ZNSt10shared_ptrI7Z_BosonEC1ISaIS0_EJdiiiEEESt20_Sp_alloc_shared_tagIT_EDpOT0_, symObjAddr: 0x8484, symBinAddr: 0x10000BA14, symSize: 0x88 }
  - { offsetInCU: 0x36789, offset: 0x36789, size: 0x8, addend: 0x0, symName: __ZNSt10shared_ptrI5HiggsEC1ISaIS0_EJddddEEESt20_Sp_alloc_shared_tagIT_EDpOT0_, symObjAddr: 0x83E4, symBinAddr: 0x10000B974, symSize: 0x88 }
  - { offsetInCU: 0x36791, offset: 0x36791, size: 0x8, addend: 0x0, symName: __ZNKSt12__shared_ptrI5HiggsLN9__gnu_cxx12_Lock_policyE2EE3getEv, symObjAddr: 0x846C, symBinAddr: 0x10000B9FC, symSize: 0x18 }
  - { offsetInCU: 0x36833, offset: 0x36833, size: 0x8, addend: 0x0, symName: __ZN9__gnu_cxx13new_allocatorI5HiggsED2Ev, symObjAddr: 0x83D0, symBinAddr: 0x10000B960, symSize: 0x14 }
  - { offsetInCU: 0x3683B, offset: 0x3683B, size: 0x8, addend: 0x0, symName: __ZNSt10shared_ptrI5HiggsEC1ISaIS0_EJddddEEESt20_Sp_alloc_shared_tagIT_EDpOT0_, symObjAddr: 0x83E4, symBinAddr: 0x10000B974, symSize: 0x88 }
  - { offsetInCU: 0x3687A, offset: 0x3687A, size: 0x8, addend: 0x0, symName: __ZN9__gnu_cxx13new_allocatorI5HiggsEC2Ev, symObjAddr: 0x83BC, symBinAddr: 0x10000B94C, symSize: 0x14 }
  - { offsetInCU: 0x36882, offset: 0x36882, size: 0x8, addend: 0x0, symName: __ZN9__gnu_cxx13new_allocatorI5HiggsED2Ev, symObjAddr: 0x83D0, symBinAddr: 0x10000B960, symSize: 0x14 }
  - { offsetInCU: 0x3687F, offset: 0x3687F, size: 0x8, addend: 0x0, symName: __ZNKSt12__shared_ptrI7W_BosonLN9__gnu_cxx12_Lock_policyE2EE3getEv, symObjAddr: 0x83A4, symBinAddr: 0x10000B934, symSize: 0x18 }
  - { offsetInCU: 0x36887, offset: 0x36887, size: 0x8, addend: 0x0, symName: __ZN9__gnu_cxx13new_allocatorI5HiggsEC2Ev, symObjAddr: 0x83BC, symBinAddr: 0x10000B94C, symSize: 0x14 }
  - { offsetInCU: 0x3699D, offset: 0x3699D, size: 0x8, addend: 0x0, symName: __ZNSt10shared_ptrI7W_BosonEC1ISaIS0_EJddddbEEESt20_Sp_alloc_shared_tagIT_EDpOT0_, symObjAddr: 0x8300, symBinAddr: 0x10000B890, symSize: 0xA4 }
  - { offsetInCU: 0x369A5, offset: 0x369A5, size: 0x8, addend: 0x0, symName: __ZNKSt12__shared_ptrI7W_BosonLN9__gnu_cxx12_Lock_policyE2EE3getEv, symObjAddr: 0x83A4, symBinAddr: 0x10000B934, symSize: 0x18 }
  - { offsetInCU: 0x36A5B, offset: 0x36A5B, size: 0x8, addend: 0x0, symName: __ZN9__gnu_cxx13new_allocatorI7W_BosonED2Ev, symObjAddr: 0x82EC, symBinAddr: 0x10000B87C, symSize: 0x14 }
  - { offsetInCU: 0x36A63, offset: 0x36A63, size: 0x8, addend: 0x0, symName: __ZNSt10shared_ptrI7W_BosonEC1ISaIS0_EJddddbEEESt20_Sp_alloc_shared_tagIT_EDpOT0_, symObjAddr: 0x8300, symBinAddr: 0x10000B890, symSize: 0xA4 }
  - { offsetInCU: 0x36AA2, offset: 0x36AA2, size: 0x8, addend: 0x0, symName: __ZN9__gnu_cxx13new_allocatorI7W_BosonEC2Ev, symObjAddr: 0x82D8, symBinAddr: 0x10000B868, symSize: 0x14 }
  - { offsetInCU: 0x36AAA, offset: 0x36AAA, size: 0x8, addend: 0x0, symName: __ZN9__gnu_cxx13new_allocatorI7W_BosonED2Ev, symObjAddr: 0x82EC, symBinAddr: 0x10000B87C, symSize: 0x14 }
  - { offsetInCU: 0x36AA5, offset: 0x36AA5, size: 0x8, addend: 0x0, symName: __ZNKSt12__shared_ptrI7Z_BosonLN9__gnu_cxx12_Lock_policyE2EE3getEv, symObjAddr: 0x82C0, symBinAddr: 0x10000B850, symSize: 0x18 }
  - { offsetInCU: 0x36AAD, offset: 0x36AAD, size: 0x8, addend: 0x0, symName: __ZN9__gnu_cxx13new_allocatorI7W_BosonEC2Ev, symObjAddr: 0x82D8, symBinAddr: 0x10000B868, symSize: 0x14 }
  - { offsetInCU: 0x36BB0, offset: 0x36BB0, size: 0x8, addend: 0x0, symName: __ZNSt10shared_ptrI7Z_BosonEC1ISaIS0_EJddddEEESt20_Sp_alloc_shared_tagIT_EDpOT0_, symObjAddr: 0x8238, symBinAddr: 0x10000B7C8, symSize: 0x88 }
  - { offsetInCU: 0x36BB8, offset: 0x36BB8, size: 0x8, addend: 0x0, symName: __ZNKSt12__shared_ptrI7Z_BosonLN9__gnu_cxx12_Lock_policyE2EE3getEv, symObjAddr: 0x82C0, symBinAddr: 0x10000B850, symSize: 0x18 }
  - { offsetInCU: 0x36C5A, offset: 0x36C5A, size: 0x8, addend: 0x0, symName: __ZN9__gnu_cxx13new_allocatorI7Z_BosonED2Ev, symObjAddr: 0x8224, symBinAddr: 0x10000B7B4, symSize: 0x14 }
  - { offsetInCU: 0x36C62, offset: 0x36C62, size: 0x8, addend: 0x0, symName: __ZNSt10shared_ptrI7Z_BosonEC1ISaIS0_EJddddEEESt20_Sp_alloc_shared_tagIT_EDpOT0_, symObjAddr: 0x8238, symBinAddr: 0x10000B7C8, symSize: 0x88 }
  - { offsetInCU: 0x36CA1, offset: 0x36CA1, size: 0x8, addend: 0x0, symName: __ZN9__gnu_cxx13new_allocatorI7Z_BosonEC2Ev, symObjAddr: 0x8210, symBinAddr: 0x10000B7A0, symSize: 0x14 }
  - { offsetInCU: 0x36CA9, offset: 0x36CA9, size: 0x8, addend: 0x0, symName: __ZN9__gnu_cxx13new_allocatorI7Z_BosonED2Ev, symObjAddr: 0x8224, symBinAddr: 0x10000B7B4, symSize: 0x14 }
  - { offsetInCU: 0x36D7F, offset: 0x36D7F, size: 0x8, addend: 0x0, symName: __ZNSt10shared_ptrI6PhotonEC1ISaIS0_EJiiiiEEESt20_Sp_alloc_shared_tagIT_EDpOT0_, symObjAddr: 0x8188, symBinAddr: 0x10000B718, symSize: 0x88 }
  - { offsetInCU: 0x36D87, offset: 0x36D87, size: 0x8, addend: 0x0, symName: __ZN9__gnu_cxx13new_allocatorI7Z_BosonEC2Ev, symObjAddr: 0x8210, symBinAddr: 0x10000B7A0, symSize: 0x14 }
  - { offsetInCU: 0x36E29, offset: 0x36E29, size: 0x8, addend: 0x0, symName: __ZN9__gnu_cxx13new_allocatorI6PhotonED2Ev, symObjAddr: 0x8174, symBinAddr: 0x10000B704, symSize: 0x14 }
  - { offsetInCU: 0x36E31, offset: 0x36E31, size: 0x8, addend: 0x0, symName: __ZNSt10shared_ptrI6PhotonEC1ISaIS0_EJiiiiEEESt20_Sp_alloc_shared_tagIT_EDpOT0_, symObjAddr: 0x8188, symBinAddr: 0x10000B718, symSize: 0x88 }
  - { offsetInCU: 0x36E70, offset: 0x36E70, size: 0x8, addend: 0x0, symName: __ZN9__gnu_cxx13new_allocatorI6PhotonEC2Ev, symObjAddr: 0x8160, symBinAddr: 0x10000B6F0, symSize: 0x14 }
  - { offsetInCU: 0x36E78, offset: 0x36E78, size: 0x8, addend: 0x0, symName: __ZN9__gnu_cxx13new_allocatorI6PhotonED2Ev, symObjAddr: 0x8174, symBinAddr: 0x10000B704, symSize: 0x14 }
  - { offsetInCU: 0x36F95, offset: 0x36F95, size: 0x8, addend: 0x0, symName: __ZNSt10shared_ptrI5GluonEC1ISaIS0_EJddddb11Colour_listS4_EEESt20_Sp_alloc_shared_tagIT_EDpOT0_, symObjAddr: 0x8088, symBinAddr: 0x10000B618, symSize: 0xD8 }
  - { offsetInCU: 0x36F9D, offset: 0x36F9D, size: 0x8, addend: 0x0, symName: __ZN9__gnu_cxx13new_allocatorI6PhotonEC2Ev, symObjAddr: 0x8160, symBinAddr: 0x10000B6F0, symSize: 0x14 }
  - { offsetInCU: 0x3706D, offset: 0x3706D, size: 0x8, addend: 0x0, symName: __ZN9__gnu_cxx13new_allocatorI5GluonED2Ev, symObjAddr: 0x8074, symBinAddr: 0x10000B604, symSize: 0x14 }
  - { offsetInCU: 0x37075, offset: 0x37075, size: 0x8, addend: 0x0, symName: __ZNSt10shared_ptrI5GluonEC1ISaIS0_EJddddb11Colour_listS4_EEESt20_Sp_alloc_shared_tagIT_EDpOT0_, symObjAddr: 0x8088, symBinAddr: 0x10000B618, symSize: 0xD8 }
  - { offsetInCU: 0x370B4, offset: 0x370B4, size: 0x8, addend: 0x0, symName: __ZN9__gnu_cxx13new_allocatorI5GluonEC2Ev, symObjAddr: 0x8060, symBinAddr: 0x10000B5F0, symSize: 0x14 }
  - { offsetInCU: 0x370BC, offset: 0x370BC, size: 0x8, addend: 0x0, symName: __ZN9__gnu_cxx13new_allocatorI5GluonED2Ev, symObjAddr: 0x8074, symBinAddr: 0x10000B604, symSize: 0x14 }
  - { offsetInCU: 0x371DE, offset: 0x371DE, size: 0x8, addend: 0x0, symName: __ZNSt10shared_ptrI8NeutrinoEC1ISaIS0_EJddddb14Lepton_flavourbEEESt20_Sp_alloc_shared_tagIT_EDpOT0_, symObjAddr: 0x7F88, symBinAddr: 0x10000B518, symSize: 0xD8 }
  - { offsetInCU: 0x371E6, offset: 0x371E6, size: 0x8, addend: 0x0, symName: __ZN9__gnu_cxx13new_allocatorI5GluonEC2Ev, symObjAddr: 0x8060, symBinAddr: 0x10000B5F0, symSize: 0x14 }
  - { offsetInCU: 0x3734D, offset: 0x3734D, size: 0x8, addend: 0x0, symName: __ZNSt10shared_ptrI3TauEC1ISaIS0_EJdiiibEEESt20_Sp_alloc_shared_tagIT_EDpOT0_, symObjAddr: 0x7EE4, symBinAddr: 0x10000B474, symSize: 0xA4 }
  - { offsetInCU: 0x37355, offset: 0x37355, size: 0x8, addend: 0x0, symName: __ZNSt10shared_ptrI8NeutrinoEC1ISaIS0_EJddddb14Lepton_flavourbEEESt20_Sp_alloc_shared_tagIT_EDpOT0_, symObjAddr: 0x7F88, symBinAddr: 0x10000B518, symSize: 0xD8 }
  - { offsetInCU: 0x374EA, offset: 0x374EA, size: 0x8, addend: 0x0, symName: __ZNSt10shared_ptrI5QuarkEC1ISaIS0_EJdiiib13Quark_flavour11Colour_listEEESt20_Sp_alloc_shared_tagIT_EDpOT0_, symObjAddr: 0x7E0C, symBinAddr: 0x10000B39C, symSize: 0xD8 }
  - { offsetInCU: 0x374F2, offset: 0x374F2, size: 0x8, addend: 0x0, symName: __ZNSt10shared_ptrI3TauEC1ISaIS0_EJdiiibEEESt20_Sp_alloc_shared_tagIT_EDpOT0_, symObjAddr: 0x7EE4, symBinAddr: 0x10000B474, symSize: 0xA4 }
  - { offsetInCU: 0x37665, offset: 0x37665, size: 0x8, addend: 0x0, symName: __ZNSt10shared_ptrI4MuonEC1ISaIS0_EJddddbbEEESt20_Sp_alloc_shared_tagIT_EDpOT0_, symObjAddr: 0x7D54, symBinAddr: 0x10000B2E4, symSize: 0xB8 }
  - { offsetInCU: 0x3766D, offset: 0x3766D, size: 0x8, addend: 0x0, symName: __ZNSt10shared_ptrI5QuarkEC1ISaIS0_EJdiiib13Quark_flavour11Colour_listEEESt20_Sp_alloc_shared_tagIT_EDpOT0_, symObjAddr: 0x7E0C, symBinAddr: 0x10000B39C, symSize: 0xD8 }
  - { offsetInCU: 0x37737, offset: 0x37737, size: 0x8, addend: 0x0, symName: __ZN9__gnu_cxx13new_allocatorI4MuonED2Ev, symObjAddr: 0x7D40, symBinAddr: 0x10000B2D0, symSize: 0x14 }
  - { offsetInCU: 0x3773F, offset: 0x3773F, size: 0x8, addend: 0x0, symName: __ZNSt10shared_ptrI4MuonEC1ISaIS0_EJddddbbEEESt20_Sp_alloc_shared_tagIT_EDpOT0_, symObjAddr: 0x7D54, symBinAddr: 0x10000B2E4, symSize: 0xB8 }
  - { offsetInCU: 0x3777E, offset: 0x3777E, size: 0x8, addend: 0x0, symName: __ZN9__gnu_cxx13new_allocatorI4MuonEC2Ev, symObjAddr: 0x7D2C, symBinAddr: 0x10000B2BC, symSize: 0x14 }
  - { offsetInCU: 0x37786, offset: 0x37786, size: 0x8, addend: 0x0, symName: __ZN9__gnu_cxx13new_allocatorI4MuonED2Ev, symObjAddr: 0x7D40, symBinAddr: 0x10000B2D0, symSize: 0x14 }
  - { offsetInCU: 0x37874, offset: 0x37874, size: 0x8, addend: 0x0, symName: __ZNSt10shared_ptrI8ElectronEC1ISaIS0_EJddddbEEESt20_Sp_alloc_shared_tagIT_EDpOT0_, symObjAddr: 0x7C88, symBinAddr: 0x10000B218, symSize: 0xA4 }
  - { offsetInCU: 0x3787C, offset: 0x3787C, size: 0x8, addend: 0x0, symName: __ZN9__gnu_cxx13new_allocatorI4MuonEC2Ev, symObjAddr: 0x7D2C, symBinAddr: 0x10000B2BC, symSize: 0x14 }
  - { offsetInCU: 0x37A0C, offset: 0x37A0C, size: 0x8, addend: 0x0, symName: __ZNSt10shared_ptrI5QuarkEC1ISaIS0_EJddddb13Quark_flavour11Colour_listEEESt20_Sp_alloc_shared_tagIT_EDpOT0_, symObjAddr: 0x7BB0, symBinAddr: 0x10000B140, symSize: 0xD8 }
  - { offsetInCU: 0x37A14, offset: 0x37A14, size: 0x8, addend: 0x0, symName: __ZNSt10shared_ptrI8ElectronEC1ISaIS0_EJddddbEEESt20_Sp_alloc_shared_tagIT_EDpOT0_, symObjAddr: 0x7C88, symBinAddr: 0x10000B218, symSize: 0xA4 }
  - { offsetInCU: 0x37BAD, offset: 0x37BAD, size: 0x8, addend: 0x0, symName: __ZNSt10shared_ptrI8NeutrinoEC1ISaIS0_EJdiiib14Lepton_flavourbEEESt20_Sp_alloc_shared_tagIT_EDpOT0_, symObjAddr: 0x7AD8, symBinAddr: 0x10000B068, symSize: 0xD8 }
  - { offsetInCU: 0x37BB5, offset: 0x37BB5, size: 0x8, addend: 0x0, symName: __ZNSt10shared_ptrI5QuarkEC1ISaIS0_EJddddb13Quark_flavour11Colour_listEEESt20_Sp_alloc_shared_tagIT_EDpOT0_, symObjAddr: 0x7BB0, symBinAddr: 0x10000B140, symSize: 0xD8 }
  - { offsetInCU: 0x37C84, offset: 0x37C84, size: 0x8, addend: 0x0, symName: __ZN9__gnu_cxx13new_allocatorI8NeutrinoED2Ev, symObjAddr: 0x7AC4, symBinAddr: 0x10000B054, symSize: 0x14 }
  - { offsetInCU: 0x37C8C, offset: 0x37C8C, size: 0x8, addend: 0x0, symName: __ZNSt10shared_ptrI8NeutrinoEC1ISaIS0_EJdiiib14Lepton_flavourbEEESt20_Sp_alloc_shared_tagIT_EDpOT0_, symObjAddr: 0x7AD8, symBinAddr: 0x10000B068, symSize: 0xD8 }
  - { offsetInCU: 0x37CCB, offset: 0x37CCB, size: 0x8, addend: 0x0, symName: __ZN9__gnu_cxx13new_allocatorI8NeutrinoEC2Ev, symObjAddr: 0x7AB0, symBinAddr: 0x10000B040, symSize: 0x14 }
  - { offsetInCU: 0x37CD3, offset: 0x37CD3, size: 0x8, addend: 0x0, symName: __ZN9__gnu_cxx13new_allocatorI8NeutrinoED2Ev, symObjAddr: 0x7AC4, symBinAddr: 0x10000B054, symSize: 0x14 }
  - { offsetInCU: 0x37DBD, offset: 0x37DBD, size: 0x8, addend: 0x0, symName: __ZNSt10shared_ptrI8ElectronEC1ISaIS0_EJdiiibEEESt20_Sp_alloc_shared_tagIT_EDpOT0_, symObjAddr: 0x7A0C, symBinAddr: 0x10000AF9C, symSize: 0xA4 }
  - { offsetInCU: 0x37DC5, offset: 0x37DC5, size: 0x8, addend: 0x0, symName: __ZN9__gnu_cxx13new_allocatorI8NeutrinoEC2Ev, symObjAddr: 0x7AB0, symBinAddr: 0x10000B040, symSize: 0x14 }
  - { offsetInCU: 0x37E7B, offset: 0x37E7B, size: 0x8, addend: 0x0, symName: __ZN9__gnu_cxx13new_allocatorI8ElectronED2Ev, symObjAddr: 0x79F8, symBinAddr: 0x10000AF88, symSize: 0x14 }
  - { offsetInCU: 0x37E83, offset: 0x37E83, size: 0x8, addend: 0x0, symName: __ZNSt10shared_ptrI8ElectronEC1ISaIS0_EJdiiibEEESt20_Sp_alloc_shared_tagIT_EDpOT0_, symObjAddr: 0x7A0C, symBinAddr: 0x10000AF9C, symSize: 0xA4 }
  - { offsetInCU: 0x37EC2, offset: 0x37EC2, size: 0x8, addend: 0x0, symName: __ZN9__gnu_cxx13new_allocatorI8ElectronEC2Ev, symObjAddr: 0x79E4, symBinAddr: 0x10000AF74, symSize: 0x14 }
  - { offsetInCU: 0x37ECA, offset: 0x37ECA, size: 0x8, addend: 0x0, symName: __ZN9__gnu_cxx13new_allocatorI8ElectronED2Ev, symObjAddr: 0x79F8, symBinAddr: 0x10000AF88, symSize: 0x14 }
  - { offsetInCU: 0x37EC4, offset: 0x37EC4, size: 0x8, addend: 0x0, symName: __ZNKSt12__shared_ptrI3TauLN9__gnu_cxx12_Lock_policyE2EE3getEv, symObjAddr: 0x79CC, symBinAddr: 0x10000AF5C, symSize: 0x18 }
  - { offsetInCU: 0x37ECC, offset: 0x37ECC, size: 0x8, addend: 0x0, symName: __ZN9__gnu_cxx13new_allocatorI8ElectronEC2Ev, symObjAddr: 0x79E4, symBinAddr: 0x10000AF74, symSize: 0x14 }
  - { offsetInCU: 0x37F5A, offset: 0x37F5A, size: 0x8, addend: 0x0, symName: __ZNSt14__shared_countILN9__gnu_cxx12_Lock_policyE2EEC1ERKS2_, symObjAddr: 0x7984, symBinAddr: 0x10000AF14, symSize: 0x48 }
  - { offsetInCU: 0x37F62, offset: 0x37F62, size: 0x8, addend: 0x0, symName: __ZNKSt12__shared_ptrI3TauLN9__gnu_cxx12_Lock_policyE2EE3getEv, symObjAddr: 0x79CC, symBinAddr: 0x10000AF5C, symSize: 0x18 }
  - { offsetInCU: 0x38042, offset: 0x38042, size: 0x8, addend: 0x0, symName: __ZNSt10shared_ptrI3TauEC1ISaIS0_EJddddbEEESt20_Sp_alloc_shared_tagIT_EDpOT0_, symObjAddr: 0x78E0, symBinAddr: 0x10000AE70, symSize: 0xA4 }
  - { offsetInCU: 0x3804A, offset: 0x3804A, size: 0x8, addend: 0x0, symName: __ZNSt14__shared_countILN9__gnu_cxx12_Lock_policyE2EEC1ERKS2_, symObjAddr: 0x7984, symBinAddr: 0x10000AF14, symSize: 0x48 }
  - { offsetInCU: 0x38100, offset: 0x38100, size: 0x8, addend: 0x0, symName: __ZN9__gnu_cxx13new_allocatorI3TauED2Ev, symObjAddr: 0x78CC, symBinAddr: 0x10000AE5C, symSize: 0x14 }
  - { offsetInCU: 0x38108, offset: 0x38108, size: 0x8, addend: 0x0, symName: __ZNSt10shared_ptrI3TauEC1ISaIS0_EJddddbEEESt20_Sp_alloc_shared_tagIT_EDpOT0_, symObjAddr: 0x78E0, symBinAddr: 0x10000AE70, symSize: 0xA4 }
  - { offsetInCU: 0x38147, offset: 0x38147, size: 0x8, addend: 0x0, symName: __ZN9__gnu_cxx13new_allocatorI3TauEC2Ev, symObjAddr: 0x78B8, symBinAddr: 0x10000AE48, symSize: 0x14 }
  - { offsetInCU: 0x3814F, offset: 0x3814F, size: 0x8, addend: 0x0, symName: __ZN9__gnu_cxx13new_allocatorI3TauED2Ev, symObjAddr: 0x78CC, symBinAddr: 0x10000AE5C, symSize: 0x14 }
  - { offsetInCU: 0x3814E, offset: 0x3814E, size: 0x8, addend: 0x0, symName: __ZNSt14__shared_countILN9__gnu_cxx12_Lock_policyE2EE7_M_swapERS2_, symObjAddr: 0x7878, symBinAddr: 0x10000AE08, symSize: 0x40 }
  - { offsetInCU: 0x38156, offset: 0x38156, size: 0x8, addend: 0x0, symName: __ZN9__gnu_cxx13new_allocatorI3TauEC2Ev, symObjAddr: 0x78B8, symBinAddr: 0x10000AE48, symSize: 0x14 }
  - { offsetInCU: 0x381F7, offset: 0x381F7, size: 0x8, addend: 0x0, symName: __ZNSt14__shared_countILN9__gnu_cxx12_Lock_policyE2EEC1Ev, symObjAddr: 0x785C, symBinAddr: 0x10000ADEC, symSize: 0x1C }
  - { offsetInCU: 0x381FF, offset: 0x381FF, size: 0x8, addend: 0x0, symName: __ZNSt14__shared_countILN9__gnu_cxx12_Lock_policyE2EE7_M_swapERS2_, symObjAddr: 0x7878, symBinAddr: 0x10000AE08, symSize: 0x40 }
  - { offsetInCU: 0x381EC, offset: 0x381EC, size: 0x8, addend: 0x0, symName: __ZNSt16_Sp_counted_baseILN9__gnu_cxx12_Lock_policyE2EE10_M_destroyEv, symObjAddr: 0x7820, symBinAddr: 0x10000ADB0, symSize: 0x3C }
  - { offsetInCU: 0x381F4, offset: 0x381F4, size: 0x8, addend: 0x0, symName: __ZNSt14__shared_countILN9__gnu_cxx12_Lock_policyE2EEC1Ev, symObjAddr: 0x785C, symBinAddr: 0x10000ADEC, symSize: 0x1C }
  - { offsetInCU: 0x38348, offset: 0x38348, size: 0x8, addend: 0x0, symName: __ZNSt10shared_ptrI5QuarkEC1ISaIS0_EJiiiib13Quark_flavour11Colour_listEEESt20_Sp_alloc_shared_tagIT_EDpOT0_, symObjAddr: 0x7748, symBinAddr: 0x10000ACD8, symSize: 0xD8 }
  - { offsetInCU: 0x38350, offset: 0x38350, size: 0x8, addend: 0x0, symName: __ZNSt16_Sp_counted_baseILN9__gnu_cxx12_Lock_policyE2EE10_M_destroyEv, symObjAddr: 0x7820, symBinAddr: 0x10000ADB0, symSize: 0x3C }
  - { offsetInCU: 0x38414, offset: 0x38414, size: 0x8, addend: 0x0, symName: __ZN9__gnu_cxx13new_allocatorI5QuarkED2Ev, symObjAddr: 0x7734, symBinAddr: 0x10000ACC4, symSize: 0x14 }
  - { offsetInCU: 0x3841C, offset: 0x3841C, size: 0x8, addend: 0x0, symName: __ZNSt10shared_ptrI5QuarkEC1ISaIS0_EJiiiib13Quark_flavour11Colour_listEEESt20_Sp_alloc_shared_tagIT_EDpOT0_, symObjAddr: 0x7748, symBinAddr: 0x10000ACD8, symSize: 0xD8 }
  - { offsetInCU: 0x3845B, offset: 0x3845B, size: 0x8, addend: 0x0, symName: __ZN9__gnu_cxx13new_allocatorI5QuarkEC2Ev, symObjAddr: 0x7720, symBinAddr: 0x10000ACB0, symSize: 0x14 }
  - { offsetInCU: 0x38463, offset: 0x38463, size: 0x8, addend: 0x0, symName: __ZN9__gnu_cxx13new_allocatorI5QuarkED2Ev, symObjAddr: 0x7734, symBinAddr: 0x10000ACC4, symSize: 0x14 }
  - { offsetInCU: 0x384C5, offset: 0x384C5, size: 0x8, addend: 0x0, symName: __ZN9__gnu_cxx13new_allocatorISt10_List_nodeISt10shared_ptrI8ParticleEEEC2Ev, symObjAddr: 0x770C, symBinAddr: 0x10000AC9C, symSize: 0x14 }
  - { offsetInCU: 0x384CD, offset: 0x384CD, size: 0x8, addend: 0x0, symName: __ZN9__gnu_cxx13new_allocatorI5QuarkEC2Ev, symObjAddr: 0x7720, symBinAddr: 0x10000ACB0, symSize: 0x14 }
  - { offsetInCU: 0x384A7, offset: 0x384A7, size: 0x8, addend: 0x0, symName: __ZNSt7__cxx1110_List_baseISt10shared_ptrI8ParticleESaIS3_EE11_M_put_nodeEPSt10_List_nodeIS3_E, symObjAddr: 0x76E0, symBinAddr: 0x10000AC70, symSize: 0x2C }
  - { offsetInCU: 0x384AF, offset: 0x384AF, size: 0x8, addend: 0x0, symName: __ZN9__gnu_cxx13new_allocatorISt10_List_nodeISt10shared_ptrI8ParticleEEEC2Ev, symObjAddr: 0x770C, symBinAddr: 0x10000AC9C, symSize: 0x14 }
  - { offsetInCU: 0x384EA, offset: 0x384EA, size: 0x8, addend: 0x0, symName: __ZNSt16allocator_traitsISaISt10_List_nodeISt10shared_ptrI8ParticleEEEE7destroyIS3_EEvRS5_PT_, symObjAddr: 0x76B8, symBinAddr: 0x10000AC48, symSize: 0x28 }
  - { offsetInCU: 0x384F2, offset: 0x384F2, size: 0x8, addend: 0x0, symName: __ZNSt7__cxx1110_List_baseISt10shared_ptrI8ParticleESaIS3_EE11_M_put_nodeEPSt10_List_nodeIS3_E, symObjAddr: 0x76E0, symBinAddr: 0x10000AC70, symSize: 0x2C }
  - { offsetInCU: 0x3853D, offset: 0x3853D, size: 0x8, addend: 0x0, symName: __ZNSt7__cxx1110_List_baseISt10shared_ptrI8ParticleESaIS3_EE21_M_get_Node_allocatorEv, symObjAddr: 0x76A4, symBinAddr: 0x10000AC34, symSize: 0x14 }
  - { offsetInCU: 0x38545, offset: 0x38545, size: 0x8, addend: 0x0, symName: __ZNSt16allocator_traitsISaISt10_List_nodeISt10shared_ptrI8ParticleEEEE7destroyIS3_EEvRS5_PT_, symObjAddr: 0x76B8, symBinAddr: 0x10000AC48, symSize: 0x28 }
  - { offsetInCU: 0x3856C, offset: 0x3856C, size: 0x8, addend: 0x0, symName: __ZNSt10_List_nodeISt10shared_ptrI8ParticleEE9_M_valptrEv, symObjAddr: 0x7684, symBinAddr: 0x10000AC14, symSize: 0x20 }
  - { offsetInCU: 0x38574, offset: 0x38574, size: 0x8, addend: 0x0, symName: __ZNSt7__cxx1110_List_baseISt10shared_ptrI8ParticleESaIS3_EE21_M_get_Node_allocatorEv, symObjAddr: 0x76A4, symBinAddr: 0x10000AC34, symSize: 0x14 }
  - { offsetInCU: 0x3859B, offset: 0x3859B, size: 0x8, addend: 0x0, symName: __ZNSt12_Vector_baseISt10shared_ptrI8ParticleESaIS2_EE13_M_deallocateEPS2_m, symObjAddr: 0x7648, symBinAddr: 0x10000ABD8, symSize: 0x3C }
  - { offsetInCU: 0x385A3, offset: 0x385A3, size: 0x8, addend: 0x0, symName: __ZNSt10_List_nodeISt10shared_ptrI8ParticleEE9_M_valptrEv, symObjAddr: 0x7684, symBinAddr: 0x10000AC14, symSize: 0x20 }
  - { offsetInCU: 0x385F2, offset: 0x385F2, size: 0x8, addend: 0x0, symName: __ZNSt16allocator_traitsISaISt10shared_ptrI8ParticleEEE7destroyIS2_EEvRS3_PT_, symObjAddr: 0x7620, symBinAddr: 0x10000ABB0, symSize: 0x28 }
  - { offsetInCU: 0x385FA, offset: 0x385FA, size: 0x8, addend: 0x0, symName: __ZNSt12_Vector_baseISt10shared_ptrI8ParticleESaIS2_EE13_M_deallocateEPS2_m, symObjAddr: 0x7648, symBinAddr: 0x10000ABD8, symSize: 0x3C }
  - { offsetInCU: 0x38645, offset: 0x38645, size: 0x8, addend: 0x0, symName: __ZNK9__gnu_cxx17__normal_iteratorIPSt10shared_ptrI8ParticleESt6vectorIS3_SaIS3_EEE4baseEv, symObjAddr: 0x760C, symBinAddr: 0x10000AB9C, symSize: 0x14 }
  - { offsetInCU: 0x3864D, offset: 0x3864D, size: 0x8, addend: 0x0, symName: __ZNSt16allocator_traitsISaISt10shared_ptrI8ParticleEEE7destroyIS2_EEvRS3_PT_, symObjAddr: 0x7620, symBinAddr: 0x10000ABB0, symSize: 0x28 }
  - { offsetInCU: 0x38674, offset: 0x38674, size: 0x8, addend: 0x0, symName: __ZNSt6vectorISt10shared_ptrI8ParticleESaIS2_EE11_S_relocateEPS2_S5_S5_RS3_, symObjAddr: 0x75D8, symBinAddr: 0x10000AB68, symSize: 0x34 }
  - { offsetInCU: 0x3867C, offset: 0x3867C, size: 0x8, addend: 0x0, symName: __ZNK9__gnu_cxx17__normal_iteratorIPSt10shared_ptrI8ParticleESt6vectorIS3_SaIS3_EEE4baseEv, symObjAddr: 0x760C, symBinAddr: 0x10000AB9C, symSize: 0x14 }
  - { offsetInCU: 0x386E2, offset: 0x386E2, size: 0x8, addend: 0x0, symName: __ZNSt12_Vector_baseISt10shared_ptrI8ParticleESaIS2_EE11_M_allocateEm, symObjAddr: 0x75A0, symBinAddr: 0x10000AB30, symSize: 0x38 }
  - { offsetInCU: 0x386EA, offset: 0x386EA, size: 0x8, addend: 0x0, symName: __ZNSt6vectorISt10shared_ptrI8ParticleESaIS2_EE11_S_relocateEPS2_S5_S5_RS3_, symObjAddr: 0x75D8, symBinAddr: 0x10000AB68, symSize: 0x34 }
  - { offsetInCU: 0x387F3, offset: 0x387F3, size: 0x8, addend: 0x0, symName: __ZN9__gnu_cxxmiIPSt10shared_ptrI8ParticleESt6vectorIS3_SaIS3_EEEENS_17__normal_iteratorIT_T0_E15difference_typeERKSB_SE_, symObjAddr: 0x7560, symBinAddr: 0x10000AAF0, symSize: 0x40 }
  - { offsetInCU: 0x387FB, offset: 0x387FB, size: 0x8, addend: 0x0, symName: __ZNSt12_Vector_baseISt10shared_ptrI8ParticleESaIS2_EE11_M_allocateEm, symObjAddr: 0x75A0, symBinAddr: 0x10000AB30, symSize: 0x38 }
  - { offsetInCU: 0x3879D, offset: 0x3879D, size: 0x8, addend: 0x0, symName: __ZNSt6vectorISt10shared_ptrI8ParticleESaIS2_EE5beginEv, symObjAddr: 0x753C, symBinAddr: 0x10000AACC, symSize: 0x24 }
  - { offsetInCU: 0x387A5, offset: 0x387A5, size: 0x8, addend: 0x0, symName: __ZN9__gnu_cxxmiIPSt10shared_ptrI8ParticleESt6vectorIS3_SaIS3_EEEENS_17__normal_iteratorIT_T0_E15difference_typeERKSB_SE_, symObjAddr: 0x7560, symBinAddr: 0x10000AAF0, symSize: 0x40 }
  - { offsetInCU: 0x387CC, offset: 0x387CC, size: 0x8, addend: 0x0, symName: __ZNKSt6vectorISt10shared_ptrI8ParticleESaIS2_EE12_M_check_lenEmPKc, symObjAddr: 0x7470, symBinAddr: 0x10000AA00, symSize: 0xCC }
  - { offsetInCU: 0x387D4, offset: 0x387D4, size: 0x8, addend: 0x0, symName: __ZNSt6vectorISt10shared_ptrI8ParticleESaIS2_EE5beginEv, symObjAddr: 0x753C, symBinAddr: 0x10000AACC, symSize: 0x24 }
  - { offsetInCU: 0x388BB, offset: 0x388BB, size: 0x8, addend: 0x0, symName: __ZN9__gnu_cxx17__normal_iteratorIPSt10shared_ptrI8ParticleESt6vectorIS3_SaIS3_EEEC1ERKS4_, symObjAddr: 0x7448, symBinAddr: 0x10000A9D8, symSize: 0x28 }
  - { offsetInCU: 0x388C3, offset: 0x388C3, size: 0x8, addend: 0x0, symName: __ZNKSt6vectorISt10shared_ptrI8ParticleESaIS2_EE12_M_check_lenEmPKc, symObjAddr: 0x7470, symBinAddr: 0x10000AA00, symSize: 0xCC }
  - { offsetInCU: 0x3889B, offset: 0x3889B, size: 0x8, addend: 0x0, symName: __ZN9__gnu_cxx13new_allocatorISt10shared_ptrI8ParticleEE9constructIS3_JRKS3_EEEvPT_DpOT0_, symObjAddr: 0x73FC, symBinAddr: 0x10000A98C, symSize: 0x4C }
  - { offsetInCU: 0x388A3, offset: 0x388A3, size: 0x8, addend: 0x0, symName: __ZN9__gnu_cxx17__normal_iteratorIPSt10shared_ptrI8ParticleESt6vectorIS3_SaIS3_EEEC1ERKS4_, symObjAddr: 0x7448, symBinAddr: 0x10000A9D8, symSize: 0x28 }
  - { offsetInCU: 0x38951, offset: 0x38951, size: 0x8, addend: 0x0, symName: __ZNSt10shared_ptrI8ParticleEC1ERKS1_, symObjAddr: 0x73D4, symBinAddr: 0x10000A964, symSize: 0x28 }
  - { offsetInCU: 0x38959, offset: 0x38959, size: 0x8, addend: 0x0, symName: __ZN9__gnu_cxx13new_allocatorISt10shared_ptrI8ParticleEE9constructIS3_JRKS3_EEEvPT_DpOT0_, symObjAddr: 0x73FC, symBinAddr: 0x10000A98C, symSize: 0x4C }
  - { offsetInCU: 0x389CC, offset: 0x389CC, size: 0x8, addend: 0x0, symName: __ZNSt12__shared_ptrI8ParticleLN9__gnu_cxx12_Lock_policyE2EEC2ERKS3_, symObjAddr: 0x738C, symBinAddr: 0x10000A91C, symSize: 0x48 }
  - { offsetInCU: 0x389D4, offset: 0x389D4, size: 0x8, addend: 0x0, symName: __ZNSt10shared_ptrI8ParticleEC1ERKS1_, symObjAddr: 0x73D4, symBinAddr: 0x10000A964, symSize: 0x28 }
  - { offsetInCU: 0x38A3E, offset: 0x38A3E, size: 0x8, addend: 0x0, symName: __ZSt7forwardIRKSt10shared_ptrI8ParticleEEOT_RNSt16remove_referenceIS5_E4typeE, symObjAddr: 0x7378, symBinAddr: 0x10000A908, symSize: 0x14 }
  - { offsetInCU: 0x38A46, offset: 0x38A46, size: 0x8, addend: 0x0, symName: __ZNSt12__shared_ptrI8ParticleLN9__gnu_cxx12_Lock_policyE2EEC2ERKS3_, symObjAddr: 0x738C, symBinAddr: 0x10000A91C, symSize: 0x48 }
  - { offsetInCU: 0x38A17, offset: 0x38A17, size: 0x8, addend: 0x0, symName: __ZNKSt15__uniq_ptr_implI13Four_momentumSt14default_deleteIS0_EE6_M_ptrEv, symObjAddr: 0x7358, symBinAddr: 0x10000A8E8, symSize: 0x20 }
  - { offsetInCU: 0x38A1F, offset: 0x38A1F, size: 0x8, addend: 0x0, symName: __ZSt7forwardIRKSt10shared_ptrI8ParticleEEOT_RNSt16remove_referenceIS5_E4typeE, symObjAddr: 0x7378, symBinAddr: 0x10000A908, symSize: 0x14 }
  - { offsetInCU: 0x38A46, offset: 0x38A46, size: 0x8, addend: 0x0, symName: __ZNKSt19__shared_ptr_accessI8ParticleLN9__gnu_cxx12_Lock_policyE2ELb0ELb0EE6_M_getEv, symObjAddr: 0x733C, symBinAddr: 0x10000A8CC, symSize: 0x1C }
  - { offsetInCU: 0x38A4E, offset: 0x38A4E, size: 0x8, addend: 0x0, symName: __ZNKSt15__uniq_ptr_implI13Four_momentumSt14default_deleteIS0_EE6_M_ptrEv, symObjAddr: 0x7358, symBinAddr: 0x10000A8E8, symSize: 0x20 }
  - { offsetInCU: 0x38A75, offset: 0x38A75, size: 0x8, addend: 0x0, symName: __ZNKSt10_List_nodeISt10shared_ptrI8ParticleEE9_M_valptrEv, symObjAddr: 0x731C, symBinAddr: 0x10000A8AC, symSize: 0x20 }
  - { offsetInCU: 0x38A7D, offset: 0x38A7D, size: 0x8, addend: 0x0, symName: __ZNKSt19__shared_ptr_accessI8ParticleLN9__gnu_cxx12_Lock_policyE2ELb0ELb0EE6_M_getEv, symObjAddr: 0x733C, symBinAddr: 0x10000A8CC, symSize: 0x1C }
  - { offsetInCU: 0x38B28, offset: 0x38B28, size: 0x8, addend: 0x0, symName: __ZNSt20_List_const_iteratorISt10shared_ptrI8ParticleEEC1EPKNSt8__detail15_List_node_baseE, symObjAddr: 0x72F8, symBinAddr: 0x10000A888, symSize: 0x24 }
  - { offsetInCU: 0x38B30, offset: 0x38B30, size: 0x8, addend: 0x0, symName: __ZNKSt10_List_nodeISt10shared_ptrI8ParticleEE9_M_valptrEv, symObjAddr: 0x731C, symBinAddr: 0x10000A8AC, symSize: 0x20 }
  - { offsetInCU: 0x38B08, offset: 0x38B08, size: 0x8, addend: 0x0, symName: __ZNKSt7__cxx114listISt10shared_ptrI8ParticleESaIS3_EE13_M_node_countEv, symObjAddr: 0x72DC, symBinAddr: 0x10000A86C, symSize: 0x1C }
  - { offsetInCU: 0x38B10, offset: 0x38B10, size: 0x8, addend: 0x0, symName: __ZNSt20_List_const_iteratorISt10shared_ptrI8ParticleEEC1EPKNSt8__detail15_List_node_baseE, symObjAddr: 0x72F8, symBinAddr: 0x10000A888, symSize: 0x24 }
  - { offsetInCU: 0x38B37, offset: 0x38B37, size: 0x8, addend: 0x0, symName: __ZNKSt19__shared_ptr_accessI8ElectronLN9__gnu_cxx12_Lock_policyE2ELb0ELb0EE6_M_getEv, symObjAddr: 0x72C0, symBinAddr: 0x10000A850, symSize: 0x1C }
  - { offsetInCU: 0x38B3F, offset: 0x38B3F, size: 0x8, addend: 0x0, symName: __ZNKSt7__cxx114listISt10shared_ptrI8ParticleESaIS3_EE13_M_node_countEv, symObjAddr: 0x72DC, symBinAddr: 0x10000A86C, symSize: 0x1C }
  - { offsetInCU: 0x38B66, offset: 0x38B66, size: 0x8, addend: 0x0, symName: __ZNSt10_List_nodeISt10shared_ptrI8ElectronEE9_M_valptrEv, symObjAddr: 0x72A0, symBinAddr: 0x10000A830, symSize: 0x20 }
  - { offsetInCU: 0x38B6E, offset: 0x38B6E, size: 0x8, addend: 0x0, symName: __ZNKSt19__shared_ptr_accessI8ElectronLN9__gnu_cxx12_Lock_policyE2ELb0ELb0EE6_M_getEv, symObjAddr: 0x72C0, symBinAddr: 0x10000A850, symSize: 0x1C }
  - { offsetInCU: 0x38C12, offset: 0x38C12, size: 0x8, addend: 0x0, symName: __ZNSt14_List_iteratorISt10shared_ptrI8ElectronEEC1EPNSt8__detail15_List_node_baseE, symObjAddr: 0x727C, symBinAddr: 0x10000A80C, symSize: 0x24 }
  - { offsetInCU: 0x38C1A, offset: 0x38C1A, size: 0x8, addend: 0x0, symName: __ZNSt10_List_nodeISt10shared_ptrI8ElectronEE9_M_valptrEv, symObjAddr: 0x72A0, symBinAddr: 0x10000A830, symSize: 0x20 }
  - { offsetInCU: 0x38BF9, offset: 0x38BF9, size: 0x8, addend: 0x0, symName: __ZNSt7__cxx1110_List_baseISt10shared_ptrI8ElectronESaIS3_EE8_M_clearEv, symObjAddr: 0x7204, symBinAddr: 0x10000A794, symSize: 0x78 }
  - { offsetInCU: 0x38C01, offset: 0x38C01, size: 0x8, addend: 0x0, symName: __ZNSt14_List_iteratorISt10shared_ptrI8ElectronEEC1EPNSt8__detail15_List_node_baseE, symObjAddr: 0x727C, symBinAddr: 0x10000A80C, symSize: 0x24 }
  - { offsetInCU: 0x38C8E, offset: 0x38C8E, size: 0x8, addend: 0x0, symName: __ZNSt7__cxx114listISt10shared_ptrI8ElectronESaIS3_EE9push_backERKS3_, symObjAddr: 0x71D0, symBinAddr: 0x10000A760, symSize: 0x34 }
  - { offsetInCU: 0x38C96, offset: 0x38C96, size: 0x8, addend: 0x0, symName: __ZNSt7__cxx1110_List_baseISt10shared_ptrI8ElectronESaIS3_EE8_M_clearEv, symObjAddr: 0x7204, symBinAddr: 0x10000A794, symSize: 0x78 }
  - { offsetInCU: 0x38CD1, offset: 0x38CD1, size: 0x8, addend: 0x0, symName: __ZNKSt12__shared_ptrI8ElectronLN9__gnu_cxx12_Lock_policyE2EEcvbEv, symObjAddr: 0x71AC, symBinAddr: 0x10000A73C, symSize: 0x24 }
  - { offsetInCU: 0x38CD9, offset: 0x38CD9, size: 0x8, addend: 0x0, symName: __ZNSt7__cxx114listISt10shared_ptrI8ElectronESaIS3_EE9push_backERKS3_, symObjAddr: 0x71D0, symBinAddr: 0x10000A760, symSize: 0x34 }
  - { offsetInCU: 0x38D79, offset: 0x38D79, size: 0x8, addend: 0x0, symName: __ZSt20dynamic_pointer_castI8Electron8ParticleESt10shared_ptrIT_ERKS2_IT0_E, symObjAddr: 0x712C, symBinAddr: 0x10000A6BC, symSize: 0x80 }
  - { offsetInCU: 0x38D81, offset: 0x38D81, size: 0x8, addend: 0x0, symName: __ZNKSt12__shared_ptrI8ElectronLN9__gnu_cxx12_Lock_policyE2EEcvbEv, symObjAddr: 0x71AC, symBinAddr: 0x10000A73C, symSize: 0x24 }
  - { offsetInCU: 0x38DCA, offset: 0x38DCA, size: 0x8, addend: 0x0, symName: __ZStneRKSt20_List_const_iteratorISt10shared_ptrI8ParticleEES5_, symObjAddr: 0x70FC, symBinAddr: 0x10000A68C, symSize: 0x30 }
  - { offsetInCU: 0x38DD2, offset: 0x38DD2, size: 0x8, addend: 0x0, symName: __ZSt20dynamic_pointer_castI8Electron8ParticleESt10shared_ptrIT_ERKS2_IT0_E, symObjAddr: 0x712C, symBinAddr: 0x10000A6BC, symSize: 0x80 }
  - { offsetInCU: 0x38DDF, offset: 0x38DDF, size: 0x8, addend: 0x0, symName: __ZNKSt7__cxx114listISt10shared_ptrI8ParticleESaIS3_EE3endEv, symObjAddr: 0x70D8, symBinAddr: 0x10000A668, symSize: 0x24 }
  - { offsetInCU: 0x38DE7, offset: 0x38DE7, size: 0x8, addend: 0x0, symName: __ZStneRKSt20_List_const_iteratorISt10shared_ptrI8ParticleEES5_, symObjAddr: 0x70FC, symBinAddr: 0x10000A68C, symSize: 0x30 }
  - { offsetInCU: 0x38E6A, offset: 0x38E6A, size: 0x8, addend: 0x0, symName: __ZNSaISt10_List_nodeISt10shared_ptrI8ElectronEEED2Ev, symObjAddr: 0x70B8, symBinAddr: 0x10000A648, symSize: 0x20 }
  - { offsetInCU: 0x38E72, offset: 0x38E72, size: 0x8, addend: 0x0, symName: __ZNKSt7__cxx114listISt10shared_ptrI8ParticleESaIS3_EE3endEv, symObjAddr: 0x70D8, symBinAddr: 0x10000A668, symSize: 0x24 }
  - { offsetInCU: 0x38EC8, offset: 0x38EC8, size: 0x8, addend: 0x0, symName: __ZNSt7__cxx1110_List_baseISt10shared_ptrI8ElectronESaIS3_EE10_List_implC1Ev, symObjAddr: 0x7090, symBinAddr: 0x10000A620, symSize: 0x28 }
  - { offsetInCU: 0x38ED0, offset: 0x38ED0, size: 0x8, addend: 0x0, symName: __ZNSaISt10_List_nodeISt10shared_ptrI8ElectronEEED2Ev, symObjAddr: 0x70B8, symBinAddr: 0x10000A648, symSize: 0x20 }
  - { offsetInCU: 0x38EAA, offset: 0x38EAA, size: 0x8, addend: 0x0, symName: __ZNSt13_Rb_tree_nodeISt4pairIKNSt7__cxx1112basic_stringIcSt11char_traitsIcESaIcEEEiEE9_M_valptrEv, symObjAddr: 0x7070, symBinAddr: 0x10000A600, symSize: 0x20 }
  - { offsetInCU: 0x38EB2, offset: 0x38EB2, size: 0x8, addend: 0x0, symName: __ZNSt7__cxx1110_List_baseISt10shared_ptrI8ElectronESaIS3_EE10_List_implC1Ev, symObjAddr: 0x7090, symBinAddr: 0x10000A620, symSize: 0x28 }
  - { offsetInCU: 0x38ED9, offset: 0x38ED9, size: 0x8, addend: 0x0, symName: __ZNSt8_Rb_treeINSt7__cxx1112basic_stringIcSt11char_traitsIcESaIcEEESt4pairIKS5_iESt10_Select1stIS8_ESt4lessIS5_ESaIS8_EE3endEv, symObjAddr: 0x7048, symBinAddr: 0x10000A5D8, symSize: 0x28 }
  - { offsetInCU: 0x38EE1, offset: 0x38EE1, size: 0x8, addend: 0x0, symName: __ZNSt13_Rb_tree_nodeISt4pairIKNSt7__cxx1112basic_stringIcSt11char_traitsIcESaIcEEEiEE9_M_valptrEv, symObjAddr: 0x7070, symBinAddr: 0x10000A600, symSize: 0x20 }
  - { offsetInCU: 0x38F08, offset: 0x38F08, size: 0x8, addend: 0x0, symName: __ZNSt8_Rb_treeINSt7__cxx1112basic_stringIcSt11char_traitsIcESaIcEEESt4pairIKS5_iESt10_Select1stIS8_ESt4lessIS5_ESaIS8_EE5beginEv, symObjAddr: 0x7020, symBinAddr: 0x10000A5B0, symSize: 0x28 }
  - { offsetInCU: 0x38F10, offset: 0x38F10, size: 0x8, addend: 0x0, symName: __ZNSt8_Rb_treeINSt7__cxx1112basic_stringIcSt11char_traitsIcESaIcEEESt4pairIKS5_iESt10_Select1stIS8_ESt4lessIS5_ESaIS8_EE3endEv, symObjAddr: 0x7048, symBinAddr: 0x10000A5D8, symSize: 0x28 }
  - { offsetInCU: 0x38F37, offset: 0x38F37, size: 0x8, addend: 0x0, symName: __ZNSt8_Rb_treeINSt7__cxx1112basic_stringIcSt11char_traitsIcESaIcEEESt4pairIKS5_iESt10_Select1stIS8_ESt4lessIS5_ESaIS8_EE8_M_beginEv, symObjAddr: 0x7004, symBinAddr: 0x10000A594, symSize: 0x1C }
  - { offsetInCU: 0x38F3F, offset: 0x38F3F, size: 0x8, addend: 0x0, symName: __ZNSt8_Rb_treeINSt7__cxx1112basic_stringIcSt11char_traitsIcESaIcEEESt4pairIKS5_iESt10_Select1stIS8_ESt4lessIS5_ESaIS8_EE5beginEv, symObjAddr: 0x7020, symBinAddr: 0x10000A5B0, symSize: 0x28 }
  - { offsetInCU: 0x38F66, offset: 0x38F66, size: 0x8, addend: 0x0, symName: __ZNSt8_Rb_treeINSt7__cxx1112basic_stringIcSt11char_traitsIcESaIcEEESt4pairIKS5_iESt10_Select1stIS8_ESt4lessIS5_ESaIS8_EE8_M_eraseEPSt13_Rb_tree_nodeIS8_E, symObjAddr: 0x6FA0, symBinAddr: 0x10000A530, symSize: 0x64 }
  - { offsetInCU: 0x38F6E, offset: 0x38F6E, size: 0x8, addend: 0x0, symName: __ZNSt8_Rb_treeINSt7__cxx1112basic_stringIcSt11char_traitsIcESaIcEEESt4pairIKS5_iESt10_Select1stIS8_ESt4lessIS5_ESaIS8_EE8_M_beginEv, symObjAddr: 0x7004, symBinAddr: 0x10000A594, symSize: 0x1C }
  - { offsetInCU: 0x39055, offset: 0x39055, size: 0x8, addend: 0x0, symName: __ZNSaISt13_Rb_tree_nodeISt4pairIKNSt7__cxx1112basic_stringIcSt11char_traitsIcESaIcEEEiEEED2Ev, symObjAddr: 0x6F80, symBinAddr: 0x10000A510, symSize: 0x20 }
  - { offsetInCU: 0x3905D, offset: 0x3905D, size: 0x8, addend: 0x0, symName: __ZNSt8_Rb_treeINSt7__cxx1112basic_stringIcSt11char_traitsIcESaIcEEESt4pairIKS5_iESt10_Select1stIS8_ESt4lessIS5_ESaIS8_EE8_M_eraseEPSt13_Rb_tree_nodeIS8_E, symObjAddr: 0x6FA0, symBinAddr: 0x10000A530, symSize: 0x64 }
  - { offsetInCU: 0x390B3, offset: 0x390B3, size: 0x8, addend: 0x0, symName: __ZNSt12__shared_ptrI8ParticleLN9__gnu_cxx12_Lock_policyE2EEC2I7W_BosonvEEOS_IT_LS2_2EE, symObjAddr: 0x6F24, symBinAddr: 0x10000A4B4, symSize: 0x5C }
  - { offsetInCU: 0x390BB, offset: 0x390BB, size: 0x8, addend: 0x0, symName: __ZNSaISt13_Rb_tree_nodeISt4pairIKNSt7__cxx1112basic_stringIcSt11char_traitsIcESaIcEEEiEEED2Ev, symObjAddr: 0x6F80, symBinAddr: 0x10000A510, symSize: 0x20 }
  - { offsetInCU: 0x39110, offset: 0x39110, size: 0x8, addend: 0x0, symName: __ZSt4moveIRSt10shared_ptrI7W_BosonEEONSt16remove_referenceIT_E4typeEOS5_, symObjAddr: 0x6F10, symBinAddr: 0x10000A4A0, symSize: 0x14 }
  - { offsetInCU: 0x39118, offset: 0x39118, size: 0x8, addend: 0x0, symName: __ZNSt12__shared_ptrI8ParticleLN9__gnu_cxx12_Lock_policyE2EEC2I7W_BosonvEEOS_IT_LS2_2EE, symObjAddr: 0x6F24, symBinAddr: 0x10000A4B4, symSize: 0x5C }
  - { offsetInCU: 0x39197, offset: 0x39197, size: 0x8, addend: 0x0, symName: __ZSt15allocate_sharedI7W_BosonSaIS0_EJdiiibEESt10shared_ptrIT_ERKT0_DpOT1_, symObjAddr: 0x6E6C, symBinAddr: 0x10000A3FC, symSize: 0xA4 }
  - { offsetInCU: 0x3919F, offset: 0x3919F, size: 0x8, addend: 0x0, symName: __ZSt4moveIRSt10shared_ptrI7W_BosonEEONSt16remove_referenceIT_E4typeEOS5_, symObjAddr: 0x6F10, symBinAddr: 0x10000A4A0, symSize: 0x14 }
  - { offsetInCU: 0x39256, offset: 0x39256, size: 0x8, addend: 0x0, symName: __ZNSt12__shared_ptrI8ParticleLN9__gnu_cxx12_Lock_policyE2EEC2I7Z_BosonvEEOS_IT_LS2_2EE, symObjAddr: 0x6E10, symBinAddr: 0x10000A3A0, symSize: 0x5C }
  - { offsetInCU: 0x3925E, offset: 0x3925E, size: 0x8, addend: 0x0, symName: __ZSt15allocate_sharedI7W_BosonSaIS0_EJdiiibEESt10shared_ptrIT_ERKT0_DpOT1_, symObjAddr: 0x6E6C, symBinAddr: 0x10000A3FC, symSize: 0xA4 }
  - { offsetInCU: 0x392B3, offset: 0x392B3, size: 0x8, addend: 0x0, symName: __ZSt4moveIRSt10shared_ptrI7Z_BosonEEONSt16remove_referenceIT_E4typeEOS5_, symObjAddr: 0x6DFC, symBinAddr: 0x10000A38C, symSize: 0x14 }
  - { offsetInCU: 0x392BB, offset: 0x392BB, size: 0x8, addend: 0x0, symName: __ZNSt12__shared_ptrI8ParticleLN9__gnu_cxx12_Lock_policyE2EEC2I7Z_BosonvEEOS_IT_LS2_2EE, symObjAddr: 0x6E10, symBinAddr: 0x10000A3A0, symSize: 0x5C }
  - { offsetInCU: 0x39333, offset: 0x39333, size: 0x8, addend: 0x0, symName: __ZSt15allocate_sharedI7Z_BosonSaIS0_EJdiiiEESt10shared_ptrIT_ERKT0_DpOT1_, symObjAddr: 0x6D6C, symBinAddr: 0x10000A2FC, symSize: 0x90 }
  - { offsetInCU: 0x3933B, offset: 0x3933B, size: 0x8, addend: 0x0, symName: __ZSt4moveIRSt10shared_ptrI7Z_BosonEEONSt16remove_referenceIT_E4typeEOS5_, symObjAddr: 0x6DFC, symBinAddr: 0x10000A38C, symSize: 0x14 }
  - { offsetInCU: 0x39356, offset: 0x39356, size: 0x8, addend: 0x0, symName: __ZNKSt19__shared_ptr_accessI5HiggsLN9__gnu_cxx12_Lock_policyE2ELb0ELb0EE6_M_getEv, symObjAddr: 0x6D50, symBinAddr: 0x10000A2E0, symSize: 0x1C }
  - { offsetInCU: 0x3935E, offset: 0x3935E, size: 0x8, addend: 0x0, symName: __ZSt15allocate_sharedI7Z_BosonSaIS0_EJdiiiEESt10shared_ptrIT_ERKT0_DpOT1_, symObjAddr: 0x6D6C, symBinAddr: 0x10000A2FC, symSize: 0x90 }
  - { offsetInCU: 0x39412, offset: 0x39412, size: 0x8, addend: 0x0, symName: __ZNSt12__shared_ptrI8ParticleLN9__gnu_cxx12_Lock_policyE2EEC2I5HiggsvEERKS_IT_LS2_2EE, symObjAddr: 0x6D08, symBinAddr: 0x10000A298, symSize: 0x48 }
  - { offsetInCU: 0x3941A, offset: 0x3941A, size: 0x8, addend: 0x0, symName: __ZNKSt19__shared_ptr_accessI5HiggsLN9__gnu_cxx12_Lock_policyE2ELb0ELb0EE6_M_getEv, symObjAddr: 0x6D50, symBinAddr: 0x10000A2E0, symSize: 0x1C }
  - { offsetInCU: 0x3949E, offset: 0x3949E, size: 0x8, addend: 0x0, symName: __ZSt15allocate_sharedI5HiggsSaIS0_EJddddEESt10shared_ptrIT_ERKT0_DpOT1_, symObjAddr: 0x6C78, symBinAddr: 0x10000A208, symSize: 0x90 }
  - { offsetInCU: 0x394A6, offset: 0x394A6, size: 0x8, addend: 0x0, symName: __ZNSt12__shared_ptrI8ParticleLN9__gnu_cxx12_Lock_policyE2EEC2I5HiggsvEERKS_IT_LS2_2EE, symObjAddr: 0x6D08, symBinAddr: 0x10000A298, symSize: 0x48 }
  - { offsetInCU: 0x394F7, offset: 0x394F7, size: 0x8, addend: 0x0, symName: __ZNSaI5HiggsED1Ev, symObjAddr: 0x6C58, symBinAddr: 0x10000A1E8, symSize: 0x20 }
  - { offsetInCU: 0x394FF, offset: 0x394FF, size: 0x8, addend: 0x0, symName: __ZSt15allocate_sharedI5HiggsSaIS0_EJddddEESt10shared_ptrIT_ERKT0_DpOT1_, symObjAddr: 0x6C78, symBinAddr: 0x10000A208, symSize: 0x90 }
  - { offsetInCU: 0x39525, offset: 0x39525, size: 0x8, addend: 0x0, symName: __ZNSaI5HiggsED2Ev, symObjAddr: 0x6C38, symBinAddr: 0x10000A1C8, symSize: 0x20 }
  - { offsetInCU: 0x3952D, offset: 0x3952D, size: 0x8, addend: 0x0, symName: __ZNSaI5HiggsED1Ev, symObjAddr: 0x6C58, symBinAddr: 0x10000A1E8, symSize: 0x20 }
  - { offsetInCU: 0x3956C, offset: 0x3956C, size: 0x8, addend: 0x0, symName: __ZNSaI5HiggsEC1Ev, symObjAddr: 0x6C18, symBinAddr: 0x10000A1A8, symSize: 0x20 }
  - { offsetInCU: 0x39574, offset: 0x39574, size: 0x8, addend: 0x0, symName: __ZNSaI5HiggsED2Ev, symObjAddr: 0x6C38, symBinAddr: 0x10000A1C8, symSize: 0x20 }
  - { offsetInCU: 0x39588, offset: 0x39588, size: 0x8, addend: 0x0, symName: __ZNKSt19__shared_ptr_accessI7W_BosonLN9__gnu_cxx12_Lock_policyE2ELb0ELb0EE6_M_getEv, symObjAddr: 0x6BFC, symBinAddr: 0x10000A18C, symSize: 0x1C }
  - { offsetInCU: 0x39590, offset: 0x39590, size: 0x8, addend: 0x0, symName: __ZNSaI5HiggsEC1Ev, symObjAddr: 0x6C18, symBinAddr: 0x10000A1A8, symSize: 0x20 }
  - { offsetInCU: 0x39646, offset: 0x39646, size: 0x8, addend: 0x0, symName: __ZNSt12__shared_ptrI8ParticleLN9__gnu_cxx12_Lock_policyE2EEC2I7W_BosonvEERKS_IT_LS2_2EE, symObjAddr: 0x6BB4, symBinAddr: 0x10000A144, symSize: 0x48 }
  - { offsetInCU: 0x3964E, offset: 0x3964E, size: 0x8, addend: 0x0, symName: __ZNKSt19__shared_ptr_accessI7W_BosonLN9__gnu_cxx12_Lock_policyE2ELb0ELb0EE6_M_getEv, symObjAddr: 0x6BFC, symBinAddr: 0x10000A18C, symSize: 0x1C }
  - { offsetInCU: 0x396DD, offset: 0x396DD, size: 0x8, addend: 0x0, symName: __ZSt15allocate_sharedI7W_BosonSaIS0_EJddddbEESt10shared_ptrIT_ERKT0_DpOT1_, symObjAddr: 0x6B10, symBinAddr: 0x10000A0A0, symSize: 0xA4 }
  - { offsetInCU: 0x396E5, offset: 0x396E5, size: 0x8, addend: 0x0, symName: __ZNSt12__shared_ptrI8ParticleLN9__gnu_cxx12_Lock_policyE2EEC2I7W_BosonvEERKS_IT_LS2_2EE, symObjAddr: 0x6BB4, symBinAddr: 0x10000A144, symSize: 0x48 }
  - { offsetInCU: 0x39740, offset: 0x39740, size: 0x8, addend: 0x0, symName: __ZNSaI7W_BosonED1Ev, symObjAddr: 0x6AF0, symBinAddr: 0x10000A080, symSize: 0x20 }
  - { offsetInCU: 0x39748, offset: 0x39748, size: 0x8, addend: 0x0, symName: __ZSt15allocate_sharedI7W_BosonSaIS0_EJddddbEESt10shared_ptrIT_ERKT0_DpOT1_, symObjAddr: 0x6B10, symBinAddr: 0x10000A0A0, symSize: 0xA4 }
  - { offsetInCU: 0x3976E, offset: 0x3976E, size: 0x8, addend: 0x0, symName: __ZNSaI7W_BosonED2Ev, symObjAddr: 0x6AD0, symBinAddr: 0x10000A060, symSize: 0x20 }
  - { offsetInCU: 0x39776, offset: 0x39776, size: 0x8, addend: 0x0, symName: __ZNSaI7W_BosonED1Ev, symObjAddr: 0x6AF0, symBinAddr: 0x10000A080, symSize: 0x20 }
  - { offsetInCU: 0x397B5, offset: 0x397B5, size: 0x8, addend: 0x0, symName: __ZNSaI7W_BosonEC1Ev, symObjAddr: 0x6AB0, symBinAddr: 0x10000A040, symSize: 0x20 }
  - { offsetInCU: 0x397BD, offset: 0x397BD, size: 0x8, addend: 0x0, symName: __ZNSaI7W_BosonED2Ev, symObjAddr: 0x6AD0, symBinAddr: 0x10000A060, symSize: 0x20 }
  - { offsetInCU: 0x397CF, offset: 0x397CF, size: 0x8, addend: 0x0, symName: __ZNKSt19__shared_ptr_accessI7Z_BosonLN9__gnu_cxx12_Lock_policyE2ELb0ELb0EE6_M_getEv, symObjAddr: 0x6A94, symBinAddr: 0x10000A024, symSize: 0x1C }
  - { offsetInCU: 0x397D7, offset: 0x397D7, size: 0x8, addend: 0x0, symName: __ZNSaI7W_BosonEC1Ev, symObjAddr: 0x6AB0, symBinAddr: 0x10000A040, symSize: 0x20 }
  - { offsetInCU: 0x3988D, offset: 0x3988D, size: 0x8, addend: 0x0, symName: __ZNSt12__shared_ptrI8ParticleLN9__gnu_cxx12_Lock_policyE2EEC2I7Z_BosonvEERKS_IT_LS2_2EE, symObjAddr: 0x6A4C, symBinAddr: 0x100009FDC, symSize: 0x48 }
  - { offsetInCU: 0x39895, offset: 0x39895, size: 0x8, addend: 0x0, symName: __ZNKSt19__shared_ptr_accessI7Z_BosonLN9__gnu_cxx12_Lock_policyE2ELb0ELb0EE6_M_getEv, symObjAddr: 0x6A94, symBinAddr: 0x10000A024, symSize: 0x1C }
  - { offsetInCU: 0x3991D, offset: 0x3991D, size: 0x8, addend: 0x0, symName: __ZSt15allocate_sharedI7Z_BosonSaIS0_EJddddEESt10shared_ptrIT_ERKT0_DpOT1_, symObjAddr: 0x69BC, symBinAddr: 0x100009F4C, symSize: 0x90 }
  - { offsetInCU: 0x39925, offset: 0x39925, size: 0x8, addend: 0x0, symName: __ZNSt12__shared_ptrI8ParticleLN9__gnu_cxx12_Lock_policyE2EEC2I7Z_BosonvEERKS_IT_LS2_2EE, symObjAddr: 0x6A4C, symBinAddr: 0x100009FDC, symSize: 0x48 }
  - { offsetInCU: 0x39972, offset: 0x39972, size: 0x8, addend: 0x0, symName: __ZNSaI7Z_BosonED1Ev, symObjAddr: 0x699C, symBinAddr: 0x100009F2C, symSize: 0x20 }
  - { offsetInCU: 0x3997A, offset: 0x3997A, size: 0x8, addend: 0x0, symName: __ZSt15allocate_sharedI7Z_BosonSaIS0_EJddddEESt10shared_ptrIT_ERKT0_DpOT1_, symObjAddr: 0x69BC, symBinAddr: 0x100009F4C, symSize: 0x90 }
  - { offsetInCU: 0x399A0, offset: 0x399A0, size: 0x8, addend: 0x0, symName: __ZNSaI7Z_BosonED2Ev, symObjAddr: 0x697C, symBinAddr: 0x100009F0C, symSize: 0x20 }
  - { offsetInCU: 0x399A8, offset: 0x399A8, size: 0x8, addend: 0x0, symName: __ZNSaI7Z_BosonED1Ev, symObjAddr: 0x699C, symBinAddr: 0x100009F2C, symSize: 0x20 }
  - { offsetInCU: 0x399E7, offset: 0x399E7, size: 0x8, addend: 0x0, symName: __ZNSaI7Z_BosonEC1Ev, symObjAddr: 0x695C, symBinAddr: 0x100009EEC, symSize: 0x20 }
  - { offsetInCU: 0x399EF, offset: 0x399EF, size: 0x8, addend: 0x0, symName: __ZNSaI7Z_BosonED2Ev, symObjAddr: 0x697C, symBinAddr: 0x100009F0C, symSize: 0x20 }
  - { offsetInCU: 0x39A8E, offset: 0x39A8E, size: 0x8, addend: 0x0, symName: __ZNSt12__shared_ptrI8ParticleLN9__gnu_cxx12_Lock_policyE2EEC2I6PhotonvEEOS_IT_LS2_2EE, symObjAddr: 0x6900, symBinAddr: 0x100009E90, symSize: 0x5C }
  - { offsetInCU: 0x39A96, offset: 0x39A96, size: 0x8, addend: 0x0, symName: __ZNSaI7Z_BosonEC1Ev, symObjAddr: 0x695C, symBinAddr: 0x100009EEC, symSize: 0x20 }
  - { offsetInCU: 0x39AEA, offset: 0x39AEA, size: 0x8, addend: 0x0, symName: __ZSt4moveIRSt10shared_ptrI6PhotonEEONSt16remove_referenceIT_E4typeEOS5_, symObjAddr: 0x68EC, symBinAddr: 0x100009E7C, symSize: 0x14 }
  - { offsetInCU: 0x39AF2, offset: 0x39AF2, size: 0x8, addend: 0x0, symName: __ZNSt12__shared_ptrI8ParticleLN9__gnu_cxx12_Lock_policyE2EEC2I6PhotonvEEOS_IT_LS2_2EE, symObjAddr: 0x6900, symBinAddr: 0x100009E90, symSize: 0x5C }
  - { offsetInCU: 0x39B66, offset: 0x39B66, size: 0x8, addend: 0x0, symName: __ZSt15allocate_sharedI6PhotonSaIS0_EJiiiiEESt10shared_ptrIT_ERKT0_DpOT1_, symObjAddr: 0x685C, symBinAddr: 0x100009DEC, symSize: 0x90 }
  - { offsetInCU: 0x39B6E, offset: 0x39B6E, size: 0x8, addend: 0x0, symName: __ZSt4moveIRSt10shared_ptrI6PhotonEEONSt16remove_referenceIT_E4typeEOS5_, symObjAddr: 0x68EC, symBinAddr: 0x100009E7C, symSize: 0x14 }
  - { offsetInCU: 0x39BC9, offset: 0x39BC9, size: 0x8, addend: 0x0, symName: __ZNSaI6PhotonED1Ev, symObjAddr: 0x683C, symBinAddr: 0x100009DCC, symSize: 0x20 }
  - { offsetInCU: 0x39BD1, offset: 0x39BD1, size: 0x8, addend: 0x0, symName: __ZSt15allocate_sharedI6PhotonSaIS0_EJiiiiEESt10shared_ptrIT_ERKT0_DpOT1_, symObjAddr: 0x685C, symBinAddr: 0x100009DEC, symSize: 0x90 }
  - { offsetInCU: 0x39BF7, offset: 0x39BF7, size: 0x8, addend: 0x0, symName: __ZNSaI6PhotonED2Ev, symObjAddr: 0x681C, symBinAddr: 0x100009DAC, symSize: 0x20 }
  - { offsetInCU: 0x39BFF, offset: 0x39BFF, size: 0x8, addend: 0x0, symName: __ZNSaI6PhotonED1Ev, symObjAddr: 0x683C, symBinAddr: 0x100009DCC, symSize: 0x20 }
  - { offsetInCU: 0x39C3E, offset: 0x39C3E, size: 0x8, addend: 0x0, symName: __ZNSaI6PhotonEC1Ev, symObjAddr: 0x67FC, symBinAddr: 0x100009D8C, symSize: 0x20 }
  - { offsetInCU: 0x39C46, offset: 0x39C46, size: 0x8, addend: 0x0, symName: __ZNSaI6PhotonED2Ev, symObjAddr: 0x681C, symBinAddr: 0x100009DAC, symSize: 0x20 }
  - { offsetInCU: 0x39CE5, offset: 0x39CE5, size: 0x8, addend: 0x0, symName: __ZNSt12__shared_ptrI8ParticleLN9__gnu_cxx12_Lock_policyE2EEC2I5GluonvEEOS_IT_LS2_2EE, symObjAddr: 0x67A0, symBinAddr: 0x100009D30, symSize: 0x5C }
  - { offsetInCU: 0x39CED, offset: 0x39CED, size: 0x8, addend: 0x0, symName: __ZNSaI6PhotonEC1Ev, symObjAddr: 0x67FC, symBinAddr: 0x100009D8C, symSize: 0x20 }
  - { offsetInCU: 0x39D40, offset: 0x39D40, size: 0x8, addend: 0x0, symName: __ZSt4moveIRSt10shared_ptrI5GluonEEONSt16remove_referenceIT_E4typeEOS5_, symObjAddr: 0x678C, symBinAddr: 0x100009D1C, symSize: 0x14 }
  - { offsetInCU: 0x39D48, offset: 0x39D48, size: 0x8, addend: 0x0, symName: __ZNSt12__shared_ptrI8ParticleLN9__gnu_cxx12_Lock_policyE2EEC2I5GluonvEEOS_IT_LS2_2EE, symObjAddr: 0x67A0, symBinAddr: 0x100009D30, symSize: 0x5C }
  - { offsetInCU: 0x39DF8, offset: 0x39DF8, size: 0x8, addend: 0x0, symName: __ZSt15allocate_sharedI5GluonSaIS0_EJddddb11Colour_listS2_EESt10shared_ptrIT_ERKT0_DpOT1_, symObjAddr: 0x66B0, symBinAddr: 0x100009C40, symSize: 0xDC }
  - { offsetInCU: 0x39E00, offset: 0x39E00, size: 0x8, addend: 0x0, symName: __ZSt4moveIRSt10shared_ptrI5GluonEEONSt16remove_referenceIT_E4typeEOS5_, symObjAddr: 0x678C, symBinAddr: 0x100009D1C, symSize: 0x14 }
  - { offsetInCU: 0x39E5F, offset: 0x39E5F, size: 0x8, addend: 0x0, symName: __ZNSaI5GluonED1Ev, symObjAddr: 0x6690, symBinAddr: 0x100009C20, symSize: 0x20 }
  - { offsetInCU: 0x39E67, offset: 0x39E67, size: 0x8, addend: 0x0, symName: __ZSt15allocate_sharedI5GluonSaIS0_EJddddb11Colour_listS2_EESt10shared_ptrIT_ERKT0_DpOT1_, symObjAddr: 0x66B0, symBinAddr: 0x100009C40, symSize: 0xDC }
  - { offsetInCU: 0x39E8D, offset: 0x39E8D, size: 0x8, addend: 0x0, symName: __ZNSaI5GluonED2Ev, symObjAddr: 0x6670, symBinAddr: 0x100009C00, symSize: 0x20 }
  - { offsetInCU: 0x39E95, offset: 0x39E95, size: 0x8, addend: 0x0, symName: __ZNSaI5GluonED1Ev, symObjAddr: 0x6690, symBinAddr: 0x100009C20, symSize: 0x20 }
  - { offsetInCU: 0x39ED4, offset: 0x39ED4, size: 0x8, addend: 0x0, symName: __ZNSaI5GluonEC1Ev, symObjAddr: 0x6650, symBinAddr: 0x100009BE0, symSize: 0x20 }
  - { offsetInCU: 0x39EDC, offset: 0x39EDC, size: 0x8, addend: 0x0, symName: __ZNSaI5GluonED2Ev, symObjAddr: 0x6670, symBinAddr: 0x100009C00, symSize: 0x20 }
  - { offsetInCU: 0x39FC2, offset: 0x39FC2, size: 0x8, addend: 0x0, symName: __ZSt15allocate_sharedI8NeutrinoSaIS0_EJddddb14Lepton_flavourbEESt10shared_ptrIT_ERKT0_DpOT1_, symObjAddr: 0x6574, symBinAddr: 0x100009B04, symSize: 0xDC }
  - { offsetInCU: 0x39FCA, offset: 0x39FCA, size: 0x8, addend: 0x0, symName: __ZNSaI5GluonEC1Ev, symObjAddr: 0x6650, symBinAddr: 0x100009BE0, symSize: 0x20 }
  - { offsetInCU: 0x3A074, offset: 0x3A074, size: 0x8, addend: 0x0, symName: __ZNSt12__shared_ptrI8ParticleLN9__gnu_cxx12_Lock_policyE2EEC2I3TauvEEOS_IT_LS2_2EE, symObjAddr: 0x6518, symBinAddr: 0x100009AA8, symSize: 0x5C }
  - { offsetInCU: 0x3A07C, offset: 0x3A07C, size: 0x8, addend: 0x0, symName: __ZSt15allocate_sharedI8NeutrinoSaIS0_EJddddb14Lepton_flavourbEESt10shared_ptrIT_ERKT0_DpOT1_, symObjAddr: 0x6574, symBinAddr: 0x100009B04, symSize: 0xDC }
  - { offsetInCU: 0x3A0CD, offset: 0x3A0CD, size: 0x8, addend: 0x0, symName: __ZSt4moveIRSt10shared_ptrI3TauEEONSt16remove_referenceIT_E4typeEOS5_, symObjAddr: 0x6504, symBinAddr: 0x100009A94, symSize: 0x14 }
  - { offsetInCU: 0x3A0D5, offset: 0x3A0D5, size: 0x8, addend: 0x0, symName: __ZNSt12__shared_ptrI8ParticleLN9__gnu_cxx12_Lock_policyE2EEC2I3TauvEEOS_IT_LS2_2EE, symObjAddr: 0x6518, symBinAddr: 0x100009AA8, symSize: 0x5C }
  - { offsetInCU: 0x3A150, offset: 0x3A150, size: 0x8, addend: 0x0, symName: __ZSt15allocate_sharedI3TauSaIS0_EJdiiibEESt10shared_ptrIT_ERKT0_DpOT1_, symObjAddr: 0x6460, symBinAddr: 0x1000099F0, symSize: 0xA4 }
  - { offsetInCU: 0x3A158, offset: 0x3A158, size: 0x8, addend: 0x0, symName: __ZSt4moveIRSt10shared_ptrI3TauEEONSt16remove_referenceIT_E4typeEOS5_, symObjAddr: 0x6504, symBinAddr: 0x100009A94, symSize: 0x14 }
  - { offsetInCU: 0x3A25E, offset: 0x3A25E, size: 0x8, addend: 0x0, symName: __ZSt15allocate_sharedI5QuarkSaIS0_EJdiiib13Quark_flavour11Colour_listEESt10shared_ptrIT_ERKT0_DpOT1_, symObjAddr: 0x6384, symBinAddr: 0x100009914, symSize: 0xDC }
  - { offsetInCU: 0x3A266, offset: 0x3A266, size: 0x8, addend: 0x0, symName: __ZSt15allocate_sharedI3TauSaIS0_EJdiiibEESt10shared_ptrIT_ERKT0_DpOT1_, symObjAddr: 0x6460, symBinAddr: 0x1000099F0, symSize: 0xA4 }
  - { offsetInCU: 0x3A312, offset: 0x3A312, size: 0x8, addend: 0x0, symName: __ZNSt12__shared_ptrI8ParticleLN9__gnu_cxx12_Lock_policyE2EEC2I4MuonvEEOS_IT_LS2_2EE, symObjAddr: 0x6328, symBinAddr: 0x1000098B8, symSize: 0x5C }
  - { offsetInCU: 0x3A31A, offset: 0x3A31A, size: 0x8, addend: 0x0, symName: __ZSt15allocate_sharedI5QuarkSaIS0_EJdiiib13Quark_flavour11Colour_listEESt10shared_ptrIT_ERKT0_DpOT1_, symObjAddr: 0x6384, symBinAddr: 0x100009914, symSize: 0xDC }
  - { offsetInCU: 0x3A36C, offset: 0x3A36C, size: 0x8, addend: 0x0, symName: __ZSt4moveIRSt10shared_ptrI4MuonEEONSt16remove_referenceIT_E4typeEOS5_, symObjAddr: 0x6314, symBinAddr: 0x1000098A4, symSize: 0x14 }
  - { offsetInCU: 0x3A374, offset: 0x3A374, size: 0x8, addend: 0x0, symName: __ZNSt12__shared_ptrI8ParticleLN9__gnu_cxx12_Lock_policyE2EEC2I4MuonvEEOS_IT_LS2_2EE, symObjAddr: 0x6328, symBinAddr: 0x1000098B8, symSize: 0x5C }
  - { offsetInCU: 0x3A400, offset: 0x3A400, size: 0x8, addend: 0x0, symName: __ZSt15allocate_sharedI4MuonSaIS0_EJddddbbEESt10shared_ptrIT_ERKT0_DpOT1_, symObjAddr: 0x6254, symBinAddr: 0x1000097E4, symSize: 0xC0 }
  - { offsetInCU: 0x3A408, offset: 0x3A408, size: 0x8, addend: 0x0, symName: __ZSt4moveIRSt10shared_ptrI4MuonEEONSt16remove_referenceIT_E4typeEOS5_, symObjAddr: 0x6314, symBinAddr: 0x1000098A4, symSize: 0x14 }
  - { offsetInCU: 0x3A477, offset: 0x3A477, size: 0x8, addend: 0x0, symName: __ZNSaI4MuonED1Ev, symObjAddr: 0x6234, symBinAddr: 0x1000097C4, symSize: 0x20 }
  - { offsetInCU: 0x3A47F, offset: 0x3A47F, size: 0x8, addend: 0x0, symName: __ZSt15allocate_sharedI4MuonSaIS0_EJddddbbEESt10shared_ptrIT_ERKT0_DpOT1_, symObjAddr: 0x6254, symBinAddr: 0x1000097E4, symSize: 0xC0 }
  - { offsetInCU: 0x3A4A5, offset: 0x3A4A5, size: 0x8, addend: 0x0, symName: __ZNSaI4MuonED2Ev, symObjAddr: 0x6214, symBinAddr: 0x1000097A4, symSize: 0x20 }
  - { offsetInCU: 0x3A4AD, offset: 0x3A4AD, size: 0x8, addend: 0x0, symName: __ZNSaI4MuonED1Ev, symObjAddr: 0x6234, symBinAddr: 0x1000097C4, symSize: 0x20 }
  - { offsetInCU: 0x3A4EC, offset: 0x3A4EC, size: 0x8, addend: 0x0, symName: __ZNSaI4MuonEC1Ev, symObjAddr: 0x61F4, symBinAddr: 0x100009784, symSize: 0x20 }
  - { offsetInCU: 0x3A4F4, offset: 0x3A4F4, size: 0x8, addend: 0x0, symName: __ZNSaI4MuonED2Ev, symObjAddr: 0x6214, symBinAddr: 0x1000097A4, symSize: 0x20 }
  - { offsetInCU: 0x3A5B4, offset: 0x3A5B4, size: 0x8, addend: 0x0, symName: __ZSt15allocate_sharedI8ElectronSaIS0_EJddddbEESt10shared_ptrIT_ERKT0_DpOT1_, symObjAddr: 0x6150, symBinAddr: 0x1000096E0, symSize: 0xA4 }
  - { offsetInCU: 0x3A5BC, offset: 0x3A5BC, size: 0x8, addend: 0x0, symName: __ZNSaI4MuonEC1Ev, symObjAddr: 0x61F4, symBinAddr: 0x100009784, symSize: 0x20 }
  - { offsetInCU: 0x3A6B3, offset: 0x3A6B3, size: 0x8, addend: 0x0, symName: __ZSt15allocate_sharedI5QuarkSaIS0_EJddddb13Quark_flavour11Colour_listEESt10shared_ptrIT_ERKT0_DpOT1_, symObjAddr: 0x6074, symBinAddr: 0x100009604, symSize: 0xDC }
  - { offsetInCU: 0x3A6BB, offset: 0x3A6BB, size: 0x8, addend: 0x0, symName: __ZSt15allocate_sharedI8ElectronSaIS0_EJddddbEESt10shared_ptrIT_ERKT0_DpOT1_, symObjAddr: 0x6150, symBinAddr: 0x1000096E0, symSize: 0xA4 }
  - { offsetInCU: 0x3A762, offset: 0x3A762, size: 0x8, addend: 0x0, symName: __ZNSt12__shared_ptrI8ParticleLN9__gnu_cxx12_Lock_policyE2EEC2I8NeutrinovEEOS_IT_LS2_2EE, symObjAddr: 0x6018, symBinAddr: 0x1000095A8, symSize: 0x5C }
  - { offsetInCU: 0x3A76A, offset: 0x3A76A, size: 0x8, addend: 0x0, symName: __ZSt15allocate_sharedI5QuarkSaIS0_EJddddb13Quark_flavour11Colour_listEESt10shared_ptrIT_ERKT0_DpOT1_, symObjAddr: 0x6074, symBinAddr: 0x100009604, symSize: 0xDC }
  - { offsetInCU: 0x3A7C0, offset: 0x3A7C0, size: 0x8, addend: 0x0, symName: __ZSt4moveIRSt10shared_ptrI8NeutrinoEEONSt16remove_referenceIT_E4typeEOS5_, symObjAddr: 0x6004, symBinAddr: 0x100009594, symSize: 0x14 }
  - { offsetInCU: 0x3A7C8, offset: 0x3A7C8, size: 0x8, addend: 0x0, symName: __ZNSt12__shared_ptrI8ParticleLN9__gnu_cxx12_Lock_policyE2EEC2I8NeutrinovEEOS_IT_LS2_2EE, symObjAddr: 0x6018, symBinAddr: 0x1000095A8, symSize: 0x5C }
  - { offsetInCU: 0x3A86F, offset: 0x3A86F, size: 0x8, addend: 0x0, symName: __ZSt15allocate_sharedI8NeutrinoSaIS0_EJdiiib14Lepton_flavourbEESt10shared_ptrIT_ERKT0_DpOT1_, symObjAddr: 0x5F28, symBinAddr: 0x1000094B8, symSize: 0xDC }
  - { offsetInCU: 0x3A877, offset: 0x3A877, size: 0x8, addend: 0x0, symName: __ZSt4moveIRSt10shared_ptrI8NeutrinoEEONSt16remove_referenceIT_E4typeEOS5_, symObjAddr: 0x6004, symBinAddr: 0x100009594, symSize: 0x14 }
  - { offsetInCU: 0x3A8FF, offset: 0x3A8FF, size: 0x8, addend: 0x0, symName: __ZSt7forwardI14Lepton_flavourEOT_RNSt16remove_referenceIS1_E4typeE, symObjAddr: 0x5F14, symBinAddr: 0x1000094A4, symSize: 0x14 }
  - { offsetInCU: 0x3A907, offset: 0x3A907, size: 0x8, addend: 0x0, symName: __ZSt15allocate_sharedI8NeutrinoSaIS0_EJdiiib14Lepton_flavourbEESt10shared_ptrIT_ERKT0_DpOT1_, symObjAddr: 0x5F28, symBinAddr: 0x1000094B8, symSize: 0xDC }
  - { offsetInCU: 0x3A931, offset: 0x3A931, size: 0x8, addend: 0x0, symName: __ZNSaI8NeutrinoED1Ev, symObjAddr: 0x5EF4, symBinAddr: 0x100009484, symSize: 0x20 }
  - { offsetInCU: 0x3A939, offset: 0x3A939, size: 0x8, addend: 0x0, symName: __ZSt7forwardI14Lepton_flavourEOT_RNSt16remove_referenceIS1_E4typeE, symObjAddr: 0x5F14, symBinAddr: 0x1000094A4, symSize: 0x14 }
  - { offsetInCU: 0x3A95F, offset: 0x3A95F, size: 0x8, addend: 0x0, symName: __ZNSaI8NeutrinoED2Ev, symObjAddr: 0x5ED4, symBinAddr: 0x100009464, symSize: 0x20 }
  - { offsetInCU: 0x3A967, offset: 0x3A967, size: 0x8, addend: 0x0, symName: __ZNSaI8NeutrinoED1Ev, symObjAddr: 0x5EF4, symBinAddr: 0x100009484, symSize: 0x20 }
  - { offsetInCU: 0x3A9A6, offset: 0x3A9A6, size: 0x8, addend: 0x0, symName: __ZNSaI8NeutrinoEC1Ev, symObjAddr: 0x5EB4, symBinAddr: 0x100009444, symSize: 0x20 }
  - { offsetInCU: 0x3A9AE, offset: 0x3A9AE, size: 0x8, addend: 0x0, symName: __ZNSaI8NeutrinoED2Ev, symObjAddr: 0x5ED4, symBinAddr: 0x100009464, symSize: 0x20 }
  - { offsetInCU: 0x3AA4E, offset: 0x3AA4E, size: 0x8, addend: 0x0, symName: __ZNSt12__shared_ptrI8ParticleLN9__gnu_cxx12_Lock_policyE2EEC2I8ElectronvEEOS_IT_LS2_2EE, symObjAddr: 0x5E58, symBinAddr: 0x1000093E8, symSize: 0x5C }
  - { offsetInCU: 0x3AA56, offset: 0x3AA56, size: 0x8, addend: 0x0, symName: __ZNSaI8NeutrinoEC1Ev, symObjAddr: 0x5EB4, symBinAddr: 0x100009444, symSize: 0x20 }
  - { offsetInCU: 0x3AAAC, offset: 0x3AAAC, size: 0x8, addend: 0x0, symName: __ZSt4moveIRSt10shared_ptrI8ElectronEEONSt16remove_referenceIT_E4typeEOS5_, symObjAddr: 0x5E44, symBinAddr: 0x1000093D4, symSize: 0x14 }
  - { offsetInCU: 0x3AAB4, offset: 0x3AAB4, size: 0x8, addend: 0x0, symName: __ZNSt12__shared_ptrI8ParticleLN9__gnu_cxx12_Lock_policyE2EEC2I8ElectronvEEOS_IT_LS2_2EE, symObjAddr: 0x5E58, symBinAddr: 0x1000093E8, symSize: 0x5C }
  - { offsetInCU: 0x3AB34, offset: 0x3AB34, size: 0x8, addend: 0x0, symName: __ZSt15allocate_sharedI8ElectronSaIS0_EJdiiibEESt10shared_ptrIT_ERKT0_DpOT1_, symObjAddr: 0x5DA0, symBinAddr: 0x100009330, symSize: 0xA4 }
  - { offsetInCU: 0x3AB3C, offset: 0x3AB3C, size: 0x8, addend: 0x0, symName: __ZSt4moveIRSt10shared_ptrI8ElectronEEONSt16remove_referenceIT_E4typeEOS5_, symObjAddr: 0x5E44, symBinAddr: 0x1000093D4, symSize: 0x14 }
  - { offsetInCU: 0x3AB9E, offset: 0x3AB9E, size: 0x8, addend: 0x0, symName: __ZNSaI8ElectronED1Ev, symObjAddr: 0x5D80, symBinAddr: 0x100009310, symSize: 0x20 }
  - { offsetInCU: 0x3ABA6, offset: 0x3ABA6, size: 0x8, addend: 0x0, symName: __ZSt15allocate_sharedI8ElectronSaIS0_EJdiiibEESt10shared_ptrIT_ERKT0_DpOT1_, symObjAddr: 0x5DA0, symBinAddr: 0x100009330, symSize: 0xA4 }
  - { offsetInCU: 0x3ABCC, offset: 0x3ABCC, size: 0x8, addend: 0x0, symName: __ZNSaI8ElectronED2Ev, symObjAddr: 0x5D60, symBinAddr: 0x1000092F0, symSize: 0x20 }
  - { offsetInCU: 0x3ABD4, offset: 0x3ABD4, size: 0x8, addend: 0x0, symName: __ZNSaI8ElectronED1Ev, symObjAddr: 0x5D80, symBinAddr: 0x100009310, symSize: 0x20 }
  - { offsetInCU: 0x3AC13, offset: 0x3AC13, size: 0x8, addend: 0x0, symName: __ZNSaI8ElectronEC1Ev, symObjAddr: 0x5D40, symBinAddr: 0x1000092D0, symSize: 0x20 }
  - { offsetInCU: 0x3AC1B, offset: 0x3AC1B, size: 0x8, addend: 0x0, symName: __ZNSaI8ElectronED2Ev, symObjAddr: 0x5D60, symBinAddr: 0x1000092F0, symSize: 0x20 }
  - { offsetInCU: 0x3AC2C, offset: 0x3AC2C, size: 0x8, addend: 0x0, symName: __ZNKSt19__shared_ptr_accessI3TauLN9__gnu_cxx12_Lock_policyE2ELb0ELb0EE6_M_getEv, symObjAddr: 0x5D24, symBinAddr: 0x1000092B4, symSize: 0x1C }
  - { offsetInCU: 0x3AC34, offset: 0x3AC34, size: 0x8, addend: 0x0, symName: __ZNSaI8ElectronEC1Ev, symObjAddr: 0x5D40, symBinAddr: 0x1000092D0, symSize: 0x20 }
  - { offsetInCU: 0x3ACE6, offset: 0x3ACE6, size: 0x8, addend: 0x0, symName: __ZNSt12__shared_ptrI8ParticleLN9__gnu_cxx12_Lock_policyE2EEC2I3TauvEERKS_IT_LS2_2EE, symObjAddr: 0x5CDC, symBinAddr: 0x10000926C, symSize: 0x48 }
  - { offsetInCU: 0x3ACEE, offset: 0x3ACEE, size: 0x8, addend: 0x0, symName: __ZNKSt19__shared_ptr_accessI3TauLN9__gnu_cxx12_Lock_policyE2ELb0ELb0EE6_M_getEv, symObjAddr: 0x5D24, symBinAddr: 0x1000092B4, symSize: 0x1C }
  - { offsetInCU: 0x3AD75, offset: 0x3AD75, size: 0x8, addend: 0x0, symName: __ZSt15allocate_sharedI3TauSaIS0_EJddddbEESt10shared_ptrIT_ERKT0_DpOT1_, symObjAddr: 0x5C38, symBinAddr: 0x1000091C8, symSize: 0xA4 }
  - { offsetInCU: 0x3AD7D, offset: 0x3AD7D, size: 0x8, addend: 0x0, symName: __ZNSt12__shared_ptrI8ParticleLN9__gnu_cxx12_Lock_policyE2EEC2I3TauvEERKS_IT_LS2_2EE, symObjAddr: 0x5CDC, symBinAddr: 0x10000926C, symSize: 0x48 }
  - { offsetInCU: 0x3ADF1, offset: 0x3ADF1, size: 0x8, addend: 0x0, symName: __ZSt7forwardIdEOT_RNSt16remove_referenceIS0_E4typeE, symObjAddr: 0x5C24, symBinAddr: 0x1000091B4, symSize: 0x14 }
  - { offsetInCU: 0x3ADF9, offset: 0x3ADF9, size: 0x8, addend: 0x0, symName: __ZSt15allocate_sharedI3TauSaIS0_EJddddbEESt10shared_ptrIT_ERKT0_DpOT1_, symObjAddr: 0x5C38, symBinAddr: 0x1000091C8, symSize: 0xA4 }
  - { offsetInCU: 0x3AE35, offset: 0x3AE35, size: 0x8, addend: 0x0, symName: __ZNSaI3TauED1Ev, symObjAddr: 0x5C04, symBinAddr: 0x100009194, symSize: 0x20 }
  - { offsetInCU: 0x3AE3D, offset: 0x3AE3D, size: 0x8, addend: 0x0, symName: __ZSt7forwardIdEOT_RNSt16remove_referenceIS0_E4typeE, symObjAddr: 0x5C24, symBinAddr: 0x1000091B4, symSize: 0x14 }
  - { offsetInCU: 0x3AE63, offset: 0x3AE63, size: 0x8, addend: 0x0, symName: __ZNSaI3TauED2Ev, symObjAddr: 0x5BE4, symBinAddr: 0x100009174, symSize: 0x20 }
  - { offsetInCU: 0x3AE6B, offset: 0x3AE6B, size: 0x8, addend: 0x0, symName: __ZNSaI3TauED1Ev, symObjAddr: 0x5C04, symBinAddr: 0x100009194, symSize: 0x20 }
  - { offsetInCU: 0x3AEAA, offset: 0x3AEAA, size: 0x8, addend: 0x0, symName: __ZNSaI3TauEC1Ev, symObjAddr: 0x5BC4, symBinAddr: 0x100009154, symSize: 0x20 }
  - { offsetInCU: 0x3AEB2, offset: 0x3AEB2, size: 0x8, addend: 0x0, symName: __ZNSaI3TauED2Ev, symObjAddr: 0x5BE4, symBinAddr: 0x100009174, symSize: 0x20 }
  - { offsetInCU: 0x3AF54, offset: 0x3AF54, size: 0x8, addend: 0x0, symName: __ZNSt12__shared_ptrI8ParticleLN9__gnu_cxx12_Lock_policyE2EEC2I5QuarkvEEOS_IT_LS2_2EE, symObjAddr: 0x5B68, symBinAddr: 0x1000090F8, symSize: 0x5C }
  - { offsetInCU: 0x3AF5C, offset: 0x3AF5C, size: 0x8, addend: 0x0, symName: __ZNSaI3TauEC1Ev, symObjAddr: 0x5BC4, symBinAddr: 0x100009154, symSize: 0x20 }
  - { offsetInCU: 0x3AFAF, offset: 0x3AFAF, size: 0x8, addend: 0x0, symName: __ZSt4moveIRSt10shared_ptrI5QuarkEEONSt16remove_referenceIT_E4typeEOS5_, symObjAddr: 0x5B54, symBinAddr: 0x1000090E4, symSize: 0x14 }
  - { offsetInCU: 0x3AFB7, offset: 0x3AFB7, size: 0x8, addend: 0x0, symName: __ZNSt12__shared_ptrI8ParticleLN9__gnu_cxx12_Lock_policyE2EEC2I5QuarkvEEOS_IT_LS2_2EE, symObjAddr: 0x5B68, symBinAddr: 0x1000090F8, symSize: 0x5C }
  - { offsetInCU: 0x3AF9B, offset: 0x3AF9B, size: 0x8, addend: 0x0, symName: __ZNSt16_Sp_counted_baseILN9__gnu_cxx12_Lock_policyE2EE10_M_releaseEv, symObjAddr: 0x59D4, symBinAddr: 0x100008F64, symSize: 0x180 }
  - { offsetInCU: 0x3AFA3, offset: 0x3AFA3, size: 0x8, addend: 0x0, symName: __ZSt4moveIRSt10shared_ptrI5QuarkEEONSt16remove_referenceIT_E4typeEOS5_, symObjAddr: 0x5B54, symBinAddr: 0x1000090E4, symSize: 0x14 }
  - { offsetInCU: 0x3B21E, offset: 0x3B21E, size: 0x8, addend: 0x0, symName: __ZSt15allocate_sharedI5QuarkSaIS0_EJiiiib13Quark_flavour11Colour_listEESt10shared_ptrIT_ERKT0_DpOT1_, symObjAddr: 0x58F8, symBinAddr: 0x100008E88, symSize: 0xDC }
  - { offsetInCU: 0x3B226, offset: 0x3B226, size: 0x8, addend: 0x0, symName: __ZNSt16_Sp_counted_baseILN9__gnu_cxx12_Lock_policyE2EE10_M_releaseEv, symObjAddr: 0x59D4, symBinAddr: 0x100008F64, symSize: 0x180 }
  - { offsetInCU: 0x3B2A3, offset: 0x3B2A3, size: 0x8, addend: 0x0, symName: __ZSt7forwardI11Colour_listEOT_RNSt16remove_referenceIS1_E4typeE, symObjAddr: 0x58E4, symBinAddr: 0x100008E74, symSize: 0x14 }
  - { offsetInCU: 0x3B2AB, offset: 0x3B2AB, size: 0x8, addend: 0x0, symName: __ZSt15allocate_sharedI5QuarkSaIS0_EJiiiib13Quark_flavour11Colour_listEESt10shared_ptrIT_ERKT0_DpOT1_, symObjAddr: 0x58F8, symBinAddr: 0x100008E88, symSize: 0xDC }
  - { offsetInCU: 0x3B2FC, offset: 0x3B2FC, size: 0x8, addend: 0x0, symName: __ZSt7forwardI13Quark_flavourEOT_RNSt16remove_referenceIS1_E4typeE, symObjAddr: 0x58D0, symBinAddr: 0x100008E60, symSize: 0x14 }
  - { offsetInCU: 0x3B304, offset: 0x3B304, size: 0x8, addend: 0x0, symName: __ZSt7forwardI11Colour_listEOT_RNSt16remove_referenceIS1_E4typeE, symObjAddr: 0x58E4, symBinAddr: 0x100008E74, symSize: 0x14 }
  - { offsetInCU: 0x3B32D, offset: 0x3B32D, size: 0x8, addend: 0x0, symName: __ZNSaI5QuarkED1Ev, symObjAddr: 0x58B0, symBinAddr: 0x100008E40, symSize: 0x20 }
  - { offsetInCU: 0x3B335, offset: 0x3B335, size: 0x8, addend: 0x0, symName: __ZSt7forwardI13Quark_flavourEOT_RNSt16remove_referenceIS1_E4typeE, symObjAddr: 0x58D0, symBinAddr: 0x100008E60, symSize: 0x14 }
  - { offsetInCU: 0x3B35B, offset: 0x3B35B, size: 0x8, addend: 0x0, symName: __ZNSaI5QuarkED2Ev, symObjAddr: 0x5890, symBinAddr: 0x100008E20, symSize: 0x20 }
  - { offsetInCU: 0x3B363, offset: 0x3B363, size: 0x8, addend: 0x0, symName: __ZNSaI5QuarkED1Ev, symObjAddr: 0x58B0, symBinAddr: 0x100008E40, symSize: 0x20 }
  - { offsetInCU: 0x3B3A2, offset: 0x3B3A2, size: 0x8, addend: 0x0, symName: __ZNSaI5QuarkEC1Ev, symObjAddr: 0x5870, symBinAddr: 0x100008E00, symSize: 0x20 }
  - { offsetInCU: 0x3B3AA, offset: 0x3B3AA, size: 0x8, addend: 0x0, symName: __ZNSaI5QuarkED2Ev, symObjAddr: 0x5890, symBinAddr: 0x100008E20, symSize: 0x20 }
  - { offsetInCU: 0x3B431, offset: 0x3B431, size: 0x8, addend: 0x0, symName: __ZN9__gnu_cxx13new_allocatorISt10_List_nodeISt10shared_ptrI8ParticleEEED2Ev, symObjAddr: 0x585C, symBinAddr: 0x100008DEC, symSize: 0x14 }
  - { offsetInCU: 0x3B439, offset: 0x3B439, size: 0x8, addend: 0x0, symName: __ZNSaI5QuarkEC1Ev, symObjAddr: 0x5870, symBinAddr: 0x100008E00, symSize: 0x20 }
  - { offsetInCU: 0x3B461, offset: 0x3B461, size: 0x8, addend: 0x0, symName: __ZNSaISt10_List_nodeISt10shared_ptrI8ParticleEEEC2Ev, symObjAddr: 0x583C, symBinAddr: 0x100008DCC, symSize: 0x20 }
  - { offsetInCU: 0x3B469, offset: 0x3B469, size: 0x8, addend: 0x0, symName: __ZN9__gnu_cxx13new_allocatorISt10_List_nodeISt10shared_ptrI8ParticleEEED2Ev, symObjAddr: 0x585C, symBinAddr: 0x100008DEC, symSize: 0x14 }
  - { offsetInCU: 0x3B45A, offset: 0x3B45A, size: 0x8, addend: 0x0, symName: __ZNSt12_Vector_baseISt10shared_ptrI8ParticleESaIS2_EE19_M_get_Tp_allocatorEv, symObjAddr: 0x5828, symBinAddr: 0x100008DB8, symSize: 0x14 }
  - { offsetInCU: 0x3B462, offset: 0x3B462, size: 0x8, addend: 0x0, symName: __ZNSaISt10_List_nodeISt10shared_ptrI8ParticleEEEC2Ev, symObjAddr: 0x583C, symBinAddr: 0x100008DCC, symSize: 0x20 }
  - { offsetInCU: 0x3B489, offset: 0x3B489, size: 0x8, addend: 0x0, symName: __ZNSt7__cxx1110_List_baseISt10shared_ptrI8ParticleESaIS3_EE7_M_initEv, symObjAddr: 0x5808, symBinAddr: 0x100008D98, symSize: 0x20 }
  - { offsetInCU: 0x3B491, offset: 0x3B491, size: 0x8, addend: 0x0, symName: __ZNSt12_Vector_baseISt10shared_ptrI8ParticleESaIS2_EE19_M_get_Tp_allocatorEv, symObjAddr: 0x5828, symBinAddr: 0x100008DB8, symSize: 0x14 }
  - { offsetInCU: 0x3B4B8, offset: 0x3B4B8, size: 0x8, addend: 0x0, symName: __ZNSt7__cxx1110_List_baseISt10shared_ptrI8ParticleESaIS3_EE8_M_clearEv, symObjAddr: 0x5790, symBinAddr: 0x100008D20, symSize: 0x78 }
  - { offsetInCU: 0x3B4C0, offset: 0x3B4C0, size: 0x8, addend: 0x0, symName: __ZNSt7__cxx1110_List_baseISt10shared_ptrI8ParticleESaIS3_EE7_M_initEv, symObjAddr: 0x5808, symBinAddr: 0x100008D98, symSize: 0x20 }
  - { offsetInCU: 0x3B54D, offset: 0x3B54D, size: 0x8, addend: 0x0, symName: __ZNSt6vectorISt10shared_ptrI8ParticleESaIS2_EE17_M_realloc_insertIJRKS2_EEEvN9__gnu_cxx17__normal_iteratorIPS2_S4_EEDpOT_, symObjAddr: 0x5618, symBinAddr: 0x100008BA8, symSize: 0x178 }
  - { offsetInCU: 0x3B555, offset: 0x3B555, size: 0x8, addend: 0x0, symName: __ZNSt7__cxx1110_List_baseISt10shared_ptrI8ParticleESaIS3_EE8_M_clearEv, symObjAddr: 0x5790, symBinAddr: 0x100008D20, symSize: 0x78 }
  - { offsetInCU: 0x3B62D, offset: 0x3B62D, size: 0x8, addend: 0x0, symName: __ZNSt6vectorISt10shared_ptrI8ParticleESaIS2_EE3endEv, symObjAddr: 0x55F0, symBinAddr: 0x100008B80, symSize: 0x28 }
  - { offsetInCU: 0x3B635, offset: 0x3B635, size: 0x8, addend: 0x0, symName: __ZNSt6vectorISt10shared_ptrI8ParticleESaIS2_EE17_M_realloc_insertIJRKS2_EEEvN9__gnu_cxx17__normal_iteratorIPS2_S4_EEDpOT_, symObjAddr: 0x5618, symBinAddr: 0x100008BA8, symSize: 0x178 }
  - { offsetInCU: 0x3B65C, offset: 0x3B65C, size: 0x8, addend: 0x0, symName: __ZNSt16allocator_traitsISaISt10shared_ptrI8ParticleEEE9constructIS2_JRKS2_EEEvRS3_PT_DpOT0_, symObjAddr: 0x55B8, symBinAddr: 0x100008B48, symSize: 0x38 }
  - { offsetInCU: 0x3B664, offset: 0x3B664, size: 0x8, addend: 0x0, symName: __ZNSt6vectorISt10shared_ptrI8ParticleESaIS2_EE3endEv, symObjAddr: 0x55F0, symBinAddr: 0x100008B80, symSize: 0x28 }
  - { offsetInCU: 0x3B6D1, offset: 0x3B6D1, size: 0x8, addend: 0x0, symName: __ZNKSt10unique_ptrI13Four_momentumSt14default_deleteIS0_EE3getEv, symObjAddr: 0x559C, symBinAddr: 0x100008B2C, symSize: 0x1C }
  - { offsetInCU: 0x3B6D9, offset: 0x3B6D9, size: 0x8, addend: 0x0, symName: __ZNSt16allocator_traitsISaISt10shared_ptrI8ParticleEEE9constructIS2_JRKS2_EEEvRS3_PT_DpOT0_, symObjAddr: 0x55B8, symBinAddr: 0x100008B48, symSize: 0x38 }
  - { offsetInCU: 0x3B746, offset: 0x3B746, size: 0x8, addend: 0x0, symName: __ZSt7forwardIbEOT_RNSt16remove_referenceIS0_E4typeE, symObjAddr: 0x5588, symBinAddr: 0x100008B18, symSize: 0x14 }
  - { offsetInCU: 0x3B74E, offset: 0x3B74E, size: 0x8, addend: 0x0, symName: __ZNKSt10unique_ptrI13Four_momentumSt14default_deleteIS0_EE3getEv, symObjAddr: 0x559C, symBinAddr: 0x100008B2C, symSize: 0x1C }
  - { offsetInCU: 0x3B755, offset: 0x3B755, size: 0x8, addend: 0x0, symName: __ZNKSt19__shared_ptr_accessI8ParticleLN9__gnu_cxx12_Lock_policyE2ELb0ELb0EEptEv, symObjAddr: 0x556C, symBinAddr: 0x100008AFC, symSize: 0x1C }
  - { offsetInCU: 0x3B75D, offset: 0x3B75D, size: 0x8, addend: 0x0, symName: __ZSt7forwardIbEOT_RNSt16remove_referenceIS0_E4typeE, symObjAddr: 0x5588, symBinAddr: 0x100008B18, symSize: 0x14 }
  - { offsetInCU: 0x3B784, offset: 0x3B784, size: 0x8, addend: 0x0, symName: __ZNSt20_List_const_iteratorISt10shared_ptrI8ParticleEEppEv, symObjAddr: 0x5544, symBinAddr: 0x100008AD4, symSize: 0x28 }
  - { offsetInCU: 0x3B78C, offset: 0x3B78C, size: 0x8, addend: 0x0, symName: __ZNKSt19__shared_ptr_accessI8ParticleLN9__gnu_cxx12_Lock_policyE2ELb0ELb0EEptEv, symObjAddr: 0x556C, symBinAddr: 0x100008AFC, symSize: 0x1C }
  - { offsetInCU: 0x3B7B3, offset: 0x3B7B3, size: 0x8, addend: 0x0, symName: __ZNKSt20_List_const_iteratorISt10shared_ptrI8ParticleEEdeEv, symObjAddr: 0x5524, symBinAddr: 0x100008AB4, symSize: 0x20 }
  - { offsetInCU: 0x3B7BB, offset: 0x3B7BB, size: 0x8, addend: 0x0, symName: __ZNSt20_List_const_iteratorISt10shared_ptrI8ParticleEEppEv, symObjAddr: 0x5544, symBinAddr: 0x100008AD4, symSize: 0x28 }
  - { offsetInCU: 0x3B7E2, offset: 0x3B7E2, size: 0x8, addend: 0x0, symName: __ZNKSt7__cxx114listISt10shared_ptrI8ParticleESaIS3_EE5beginEv, symObjAddr: 0x54FC, symBinAddr: 0x100008A8C, symSize: 0x28 }
  - { offsetInCU: 0x3B7EA, offset: 0x3B7EA, size: 0x8, addend: 0x0, symName: __ZNKSt20_List_const_iteratorISt10shared_ptrI8ParticleEEdeEv, symObjAddr: 0x5524, symBinAddr: 0x100008AB4, symSize: 0x20 }
  - { offsetInCU: 0x3B811, offset: 0x3B811, size: 0x8, addend: 0x0, symName: __ZNKSt7__cxx114listISt10shared_ptrI8ParticleESaIS3_EE4sizeEv, symObjAddr: 0x54E0, symBinAddr: 0x100008A70, symSize: 0x1C }
  - { offsetInCU: 0x3B819, offset: 0x3B819, size: 0x8, addend: 0x0, symName: __ZNKSt7__cxx114listISt10shared_ptrI8ParticleESaIS3_EE5beginEv, symObjAddr: 0x54FC, symBinAddr: 0x100008A8C, symSize: 0x28 }
  - { offsetInCU: 0x3B840, offset: 0x3B840, size: 0x8, addend: 0x0, symName: __ZNKSt19__shared_ptr_accessI8ElectronLN9__gnu_cxx12_Lock_policyE2ELb0ELb0EEptEv, symObjAddr: 0x54C4, symBinAddr: 0x100008A54, symSize: 0x1C }
  - { offsetInCU: 0x3B848, offset: 0x3B848, size: 0x8, addend: 0x0, symName: __ZNKSt7__cxx114listISt10shared_ptrI8ParticleESaIS3_EE4sizeEv, symObjAddr: 0x54E0, symBinAddr: 0x100008A70, symSize: 0x1C }
  - { offsetInCU: 0x3B86F, offset: 0x3B86F, size: 0x8, addend: 0x0, symName: __ZNKSt14_List_iteratorISt10shared_ptrI8ElectronEEdeEv, symObjAddr: 0x54A4, symBinAddr: 0x100008A34, symSize: 0x20 }
  - { offsetInCU: 0x3B877, offset: 0x3B877, size: 0x8, addend: 0x0, symName: __ZNKSt19__shared_ptr_accessI8ElectronLN9__gnu_cxx12_Lock_policyE2ELb0ELb0EEptEv, symObjAddr: 0x54C4, symBinAddr: 0x100008A54, symSize: 0x1C }
  - { offsetInCU: 0x3B89E, offset: 0x3B89E, size: 0x8, addend: 0x0, symName: __ZNSt14_List_iteratorISt10shared_ptrI8ElectronEEppEv, symObjAddr: 0x547C, symBinAddr: 0x100008A0C, symSize: 0x28 }
  - { offsetInCU: 0x3B8A6, offset: 0x3B8A6, size: 0x8, addend: 0x0, symName: __ZNKSt14_List_iteratorISt10shared_ptrI8ElectronEEdeEv, symObjAddr: 0x54A4, symBinAddr: 0x100008A34, symSize: 0x20 }
  - { offsetInCU: 0x3B90F, offset: 0x3B90F, size: 0x8, addend: 0x0, symName: __ZStneRKSt14_List_iteratorISt10shared_ptrI8ElectronEES5_, symObjAddr: 0x544C, symBinAddr: 0x1000089DC, symSize: 0x30 }
  - { offsetInCU: 0x3B917, offset: 0x3B917, size: 0x8, addend: 0x0, symName: __ZNSt14_List_iteratorISt10shared_ptrI8ElectronEEppEv, symObjAddr: 0x547C, symBinAddr: 0x100008A0C, symSize: 0x28 }
  - { offsetInCU: 0x3B928, offset: 0x3B928, size: 0x8, addend: 0x0, symName: __ZNSt7__cxx114listISt10shared_ptrI8ElectronESaIS3_EE3endEv, symObjAddr: 0x5428, symBinAddr: 0x1000089B8, symSize: 0x24 }
  - { offsetInCU: 0x3B930, offset: 0x3B930, size: 0x8, addend: 0x0, symName: __ZStneRKSt14_List_iteratorISt10shared_ptrI8ElectronEES5_, symObjAddr: 0x544C, symBinAddr: 0x1000089DC, symSize: 0x30 }
  - { offsetInCU: 0x3B957, offset: 0x3B957, size: 0x8, addend: 0x0, symName: __ZNSt7__cxx114listISt10shared_ptrI8ElectronESaIS3_EE5beginEv, symObjAddr: 0x5400, symBinAddr: 0x100008990, symSize: 0x28 }
  - { offsetInCU: 0x3B95F, offset: 0x3B95F, size: 0x8, addend: 0x0, symName: __ZNSt7__cxx114listISt10shared_ptrI8ElectronESaIS3_EE3endEv, symObjAddr: 0x5428, symBinAddr: 0x1000089B8, symSize: 0x24 }
  - { offsetInCU: 0x3B9ED, offset: 0x3B9ED, size: 0x8, addend: 0x0, symName: __ZNSt7__cxx1110_List_baseISt10shared_ptrI8ElectronESaIS3_EED2Ev, symObjAddr: 0x53D8, symBinAddr: 0x100008968, symSize: 0x28 }
  - { offsetInCU: 0x3B9F5, offset: 0x3B9F5, size: 0x8, addend: 0x0, symName: __ZNSt7__cxx114listISt10shared_ptrI8ElectronESaIS3_EE5beginEv, symObjAddr: 0x5400, symBinAddr: 0x100008990, symSize: 0x28 }
  - { offsetInCU: 0x3B9DB, offset: 0x3B9DB, size: 0x8, addend: 0x0, symName: __ZNK18Particle_container21get_particles_of_typeI8ElectronEENSt7__cxx114listISt10shared_ptrIT_ESaIS6_EEEv, symObjAddr: 0x5300, symBinAddr: 0x100008890, symSize: 0xD8 }
  - { offsetInCU: 0x3B9E3, offset: 0x3B9E3, size: 0x8, addend: 0x0, symName: __ZNSt7__cxx1110_List_baseISt10shared_ptrI8ElectronESaIS3_EED2Ev, symObjAddr: 0x53D8, symBinAddr: 0x100008968, symSize: 0x28 }
  - { offsetInCU: 0x3BAFE, offset: 0x3BAFE, size: 0x8, addend: 0x0, symName: __ZNSt7__cxx114listISt10shared_ptrI8ElectronESaIS3_EEC1Ev, symObjAddr: 0x52E0, symBinAddr: 0x100008870, symSize: 0x20 }
  - { offsetInCU: 0x3BB06, offset: 0x3BB06, size: 0x8, addend: 0x0, symName: __ZNK18Particle_container21get_particles_of_typeI8ElectronEENSt7__cxx114listISt10shared_ptrIT_ESaIS6_EEEv, symObjAddr: 0x5300, symBinAddr: 0x100008890, symSize: 0xD8 }
  - { offsetInCU: 0x3BB4C, offset: 0x3BB4C, size: 0x8, addend: 0x0, symName: __ZNSt7__cxx1110_List_baseISt10shared_ptrI8ElectronESaIS3_EEC2Ev, symObjAddr: 0x52C0, symBinAddr: 0x100008850, symSize: 0x20 }
  - { offsetInCU: 0x3BB54, offset: 0x3BB54, size: 0x8, addend: 0x0, symName: __ZNSt7__cxx114listISt10shared_ptrI8ElectronESaIS3_EEC1Ev, symObjAddr: 0x52E0, symBinAddr: 0x100008870, symSize: 0x20 }
  - { offsetInCU: 0x3BBB2, offset: 0x3BBB2, size: 0x8, addend: 0x0, symName: __ZNSt7__cxx1110_List_baseISt10shared_ptrI8ElectronESaIS3_EE10_List_implD1Ev, symObjAddr: 0x52A0, symBinAddr: 0x100008830, symSize: 0x20 }
  - { offsetInCU: 0x3BBBA, offset: 0x3BBBA, size: 0x8, addend: 0x0, symName: __ZNSt7__cxx1110_List_baseISt10shared_ptrI8ElectronESaIS3_EEC2Ev, symObjAddr: 0x52C0, symBinAddr: 0x100008850, symSize: 0x20 }
  - { offsetInCU: 0x3BB94, offset: 0x3BB94, size: 0x8, addend: 0x0, symName: __ZNSt10__pair_getILm1EE11__const_getIKNSt7__cxx1112basic_stringIcSt11char_traitsIcESaIcEEEiEERKT0_RKSt4pairIT_S9_E, symObjAddr: 0x5288, symBinAddr: 0x100008818, symSize: 0x18 }
  - { offsetInCU: 0x3BB9C, offset: 0x3BB9C, size: 0x8, addend: 0x0, symName: __ZNSt7__cxx1110_List_baseISt10shared_ptrI8ElectronESaIS3_EE10_List_implD1Ev, symObjAddr: 0x52A0, symBinAddr: 0x100008830, symSize: 0x20 }
  - { offsetInCU: 0x3BBDF, offset: 0x3BBDF, size: 0x8, addend: 0x0, symName: __ZNSt10__pair_getILm0EE11__const_getIKNSt7__cxx1112basic_stringIcSt11char_traitsIcESaIcEEEiEERKT_RKSt4pairIS9_T0_E, symObjAddr: 0x5274, symBinAddr: 0x100008804, symSize: 0x14 }
  - { offsetInCU: 0x3BBE7, offset: 0x3BBE7, size: 0x8, addend: 0x0, symName: __ZNSt10__pair_getILm1EE11__const_getIKNSt7__cxx1112basic_stringIcSt11char_traitsIcESaIcEEEiEERKT0_RKSt4pairIT_S9_E, symObjAddr: 0x5288, symBinAddr: 0x100008818, symSize: 0x18 }
  - { offsetInCU: 0x3BC2A, offset: 0x3BC2A, size: 0x8, addend: 0x0, symName: __ZNKSt17_Rb_tree_iteratorISt4pairIKNSt7__cxx1112basic_stringIcSt11char_traitsIcESaIcEEEiEEdeEv, symObjAddr: 0x5254, symBinAddr: 0x1000087E4, symSize: 0x20 }
  - { offsetInCU: 0x3BC32, offset: 0x3BC32, size: 0x8, addend: 0x0, symName: __ZNSt10__pair_getILm0EE11__const_getIKNSt7__cxx1112basic_stringIcSt11char_traitsIcESaIcEEEiEERKT_RKSt4pairIS9_T0_E, symObjAddr: 0x5274, symBinAddr: 0x100008804, symSize: 0x14 }
  - { offsetInCU: 0x3BC59, offset: 0x3BC59, size: 0x8, addend: 0x0, symName: __ZNSt17_Rb_tree_iteratorISt4pairIKNSt7__cxx1112basic_stringIcSt11char_traitsIcESaIcEEEiEEppEv, symObjAddr: 0x5224, symBinAddr: 0x1000087B4, symSize: 0x30 }
  - { offsetInCU: 0x3BC61, offset: 0x3BC61, size: 0x8, addend: 0x0, symName: __ZNKSt17_Rb_tree_iteratorISt4pairIKNSt7__cxx1112basic_stringIcSt11char_traitsIcESaIcEEEiEEdeEv, symObjAddr: 0x5254, symBinAddr: 0x1000087E4, symSize: 0x20 }
  - { offsetInCU: 0x3BCF4, offset: 0x3BCF4, size: 0x8, addend: 0x0, symName: __ZStneRKSt17_Rb_tree_iteratorISt4pairIKNSt7__cxx1112basic_stringIcSt11char_traitsIcESaIcEEEiEESB_, symObjAddr: 0x51F4, symBinAddr: 0x100008784, symSize: 0x30 }
  - { offsetInCU: 0x3BCFC, offset: 0x3BCFC, size: 0x8, addend: 0x0, symName: __ZNSt17_Rb_tree_iteratorISt4pairIKNSt7__cxx1112basic_stringIcSt11char_traitsIcESaIcEEEiEEppEv, symObjAddr: 0x5224, symBinAddr: 0x1000087B4, symSize: 0x30 }
  - { offsetInCU: 0x3BCE6, offset: 0x3BCE6, size: 0x8, addend: 0x0, symName: __ZNSt3mapINSt7__cxx1112basic_stringIcSt11char_traitsIcESaIcEEEiSt4lessIS5_ESaISt4pairIKS5_iEEE3endEv, symObjAddr: 0x51D8, symBinAddr: 0x100008768, symSize: 0x1C }
  - { offsetInCU: 0x3BCEE, offset: 0x3BCEE, size: 0x8, addend: 0x0, symName: __ZStneRKSt17_Rb_tree_iteratorISt4pairIKNSt7__cxx1112basic_stringIcSt11char_traitsIcESaIcEEEiEESB_, symObjAddr: 0x51F4, symBinAddr: 0x100008784, symSize: 0x30 }
  - { offsetInCU: 0x3BD15, offset: 0x3BD15, size: 0x8, addend: 0x0, symName: __ZNSt3mapINSt7__cxx1112basic_stringIcSt11char_traitsIcESaIcEEEiSt4lessIS5_ESaISt4pairIKS5_iEEE5beginEv, symObjAddr: 0x51BC, symBinAddr: 0x10000874C, symSize: 0x1C }
  - { offsetInCU: 0x3BD1D, offset: 0x3BD1D, size: 0x8, addend: 0x0, symName: __ZNSt3mapINSt7__cxx1112basic_stringIcSt11char_traitsIcESaIcEEEiSt4lessIS5_ESaISt4pairIKS5_iEEE3endEv, symObjAddr: 0x51D8, symBinAddr: 0x100008768, symSize: 0x1C }
  - { offsetInCU: 0x3BDE8, offset: 0x3BDE8, size: 0x8, addend: 0x0, symName: __ZNSt8_Rb_treeINSt7__cxx1112basic_stringIcSt11char_traitsIcESaIcEEESt4pairIKS5_iESt10_Select1stIS8_ESt4lessIS5_ESaIS8_EED1Ev, symObjAddr: 0x5188, symBinAddr: 0x100008718, symSize: 0x34 }
  - { offsetInCU: 0x3BDF0, offset: 0x3BDF0, size: 0x8, addend: 0x0, symName: __ZNSt3mapINSt7__cxx1112basic_stringIcSt11char_traitsIcESaIcEEEiSt4lessIS5_ESaISt4pairIKS5_iEEE5beginEv, symObjAddr: 0x51BC, symBinAddr: 0x10000874C, symSize: 0x1C }
  - { offsetInCU: 0x3BE5A, offset: 0x3BE5A, size: 0x8, addend: 0x0, symName: __ZNSt8_Rb_treeINSt7__cxx1112basic_stringIcSt11char_traitsIcESaIcEEESt4pairIKS5_iESt10_Select1stIS8_ESt4lessIS5_ESaIS8_EE13_Rb_tree_implISC_Lb1EED1Ev, symObjAddr: 0x5168, symBinAddr: 0x1000086F8, symSize: 0x20 }
  - { offsetInCU: 0x3BE62, offset: 0x3BE62, size: 0x8, addend: 0x0, symName: __ZNSt8_Rb_treeINSt7__cxx1112basic_stringIcSt11char_traitsIcESaIcEEESt4pairIKS5_iESt10_Select1stIS8_ESt4lessIS5_ESaIS8_EED1Ev, symObjAddr: 0x5188, symBinAddr: 0x100008718, symSize: 0x34 }
  - { offsetInCU: 0x3BE5C, offset: 0x3BE5C, size: 0x8, addend: 0x0, symName: __ZNSt10shared_ptrI8ParticleEC1I7W_BosonvEEOS_IT_E, symObjAddr: 0x512C, symBinAddr: 0x1000086BC, symSize: 0x3C }
  - { offsetInCU: 0x3BE64, offset: 0x3BE64, size: 0x8, addend: 0x0, symName: __ZNSt8_Rb_treeINSt7__cxx1112basic_stringIcSt11char_traitsIcESaIcEEESt4pairIKS5_iESt10_Select1stIS8_ESt4lessIS5_ESaIS8_EE13_Rb_tree_implISC_Lb1EED1Ev, symObjAddr: 0x5168, symBinAddr: 0x1000086F8, symSize: 0x20 }
  - { offsetInCU: 0x3BEE3, offset: 0x3BEE3, size: 0x8, addend: 0x0, symName: __ZSt11make_sharedI7W_BosonJdiiibEESt10shared_ptrIT_EDpOT0_, symObjAddr: 0x5060, symBinAddr: 0x1000085F0, symSize: 0xCC }
  - { offsetInCU: 0x3BEEB, offset: 0x3BEEB, size: 0x8, addend: 0x0, symName: __ZNSt10shared_ptrI8ParticleEC1I7W_BosonvEEOS_IT_E, symObjAddr: 0x512C, symBinAddr: 0x1000086BC, symSize: 0x3C }
  - { offsetInCU: 0x3BF89, offset: 0x3BF89, size: 0x8, addend: 0x0, symName: __ZNSt10shared_ptrI8ParticleEC1I7Z_BosonvEEOS_IT_E, symObjAddr: 0x5024, symBinAddr: 0x1000085B4, symSize: 0x3C }
  - { offsetInCU: 0x3BF91, offset: 0x3BF91, size: 0x8, addend: 0x0, symName: __ZSt11make_sharedI7W_BosonJdiiibEESt10shared_ptrIT_EDpOT0_, symObjAddr: 0x5060, symBinAddr: 0x1000085F0, symSize: 0xCC }
  - { offsetInCU: 0x3C009, offset: 0x3C009, size: 0x8, addend: 0x0, symName: __ZSt11make_sharedI7Z_BosonJdiiiEESt10shared_ptrIT_EDpOT0_, symObjAddr: 0x4F74, symBinAddr: 0x100008504, symSize: 0xB0 }
  - { offsetInCU: 0x3C011, offset: 0x3C011, size: 0x8, addend: 0x0, symName: __ZNSt10shared_ptrI8ParticleEC1I7Z_BosonvEEOS_IT_E, symObjAddr: 0x5024, symBinAddr: 0x1000085B4, symSize: 0x3C }
  - { offsetInCU: 0x3C038, offset: 0x3C038, size: 0x8, addend: 0x0, symName: __ZNKSt19__shared_ptr_accessI5HiggsLN9__gnu_cxx12_Lock_policyE2ELb0ELb0EEptEv, symObjAddr: 0x4F58, symBinAddr: 0x1000084E8, symSize: 0x1C }
  - { offsetInCU: 0x3C040, offset: 0x3C040, size: 0x8, addend: 0x0, symName: __ZSt11make_sharedI7Z_BosonJdiiiEESt10shared_ptrIT_EDpOT0_, symObjAddr: 0x4F74, symBinAddr: 0x100008504, symSize: 0xB0 }
  - { offsetInCU: 0x3C0CF, offset: 0x3C0CF, size: 0x8, addend: 0x0, symName: __ZNSt10shared_ptrI8ParticleEC1I5HiggsvEERKS_IT_E, symObjAddr: 0x4F30, symBinAddr: 0x1000084C0, symSize: 0x28 }
  - { offsetInCU: 0x3C0D7, offset: 0x3C0D7, size: 0x8, addend: 0x0, symName: __ZNKSt19__shared_ptr_accessI5HiggsLN9__gnu_cxx12_Lock_policyE2ELb0ELb0EEptEv, symObjAddr: 0x4F58, symBinAddr: 0x1000084E8, symSize: 0x1C }
  - { offsetInCU: 0x3C155, offset: 0x3C155, size: 0x8, addend: 0x0, symName: __ZSt11make_sharedI5HiggsJddddEESt10shared_ptrIT_EDpOT0_, symObjAddr: 0x4E80, symBinAddr: 0x100008410, symSize: 0xB0 }
  - { offsetInCU: 0x3C15D, offset: 0x3C15D, size: 0x8, addend: 0x0, symName: __ZNSt10shared_ptrI8ParticleEC1I5HiggsvEERKS_IT_E, symObjAddr: 0x4F30, symBinAddr: 0x1000084C0, symSize: 0x28 }
  - { offsetInCU: 0x3C17F, offset: 0x3C17F, size: 0x8, addend: 0x0, symName: __ZNKSt19__shared_ptr_accessI7W_BosonLN9__gnu_cxx12_Lock_policyE2ELb0ELb0EEptEv, symObjAddr: 0x4E64, symBinAddr: 0x1000083F4, symSize: 0x1C }
  - { offsetInCU: 0x3C187, offset: 0x3C187, size: 0x8, addend: 0x0, symName: __ZSt11make_sharedI5HiggsJddddEESt10shared_ptrIT_EDpOT0_, symObjAddr: 0x4E80, symBinAddr: 0x100008410, symSize: 0xB0 }
  - { offsetInCU: 0x3C218, offset: 0x3C218, size: 0x8, addend: 0x0, symName: __ZNSt10shared_ptrI8ParticleEC1I7W_BosonvEERKS_IT_E, symObjAddr: 0x4E3C, symBinAddr: 0x1000083CC, symSize: 0x28 }
  - { offsetInCU: 0x3C220, offset: 0x3C220, size: 0x8, addend: 0x0, symName: __ZNKSt19__shared_ptr_accessI7W_BosonLN9__gnu_cxx12_Lock_policyE2ELb0ELb0EEptEv, symObjAddr: 0x4E64, symBinAddr: 0x1000083F4, symSize: 0x1C }
  - { offsetInCU: 0x3C2A7, offset: 0x3C2A7, size: 0x8, addend: 0x0, symName: __ZSt11make_sharedI7W_BosonJddddbEESt10shared_ptrIT_EDpOT0_, symObjAddr: 0x4D70, symBinAddr: 0x100008300, symSize: 0xCC }
  - { offsetInCU: 0x3C2AF, offset: 0x3C2AF, size: 0x8, addend: 0x0, symName: __ZNSt10shared_ptrI8ParticleEC1I7W_BosonvEERKS_IT_E, symObjAddr: 0x4E3C, symBinAddr: 0x1000083CC, symSize: 0x28 }
  - { offsetInCU: 0x3C2DB, offset: 0x3C2DB, size: 0x8, addend: 0x0, symName: __ZNKSt19__shared_ptr_accessI7Z_BosonLN9__gnu_cxx12_Lock_policyE2ELb0ELb0EEptEv, symObjAddr: 0x4D54, symBinAddr: 0x1000082E4, symSize: 0x1C }
  - { offsetInCU: 0x3C2E3, offset: 0x3C2E3, size: 0x8, addend: 0x0, symName: __ZSt11make_sharedI7W_BosonJddddbEESt10shared_ptrIT_EDpOT0_, symObjAddr: 0x4D70, symBinAddr: 0x100008300, symSize: 0xCC }
  - { offsetInCU: 0x3C374, offset: 0x3C374, size: 0x8, addend: 0x0, symName: __ZNSt10shared_ptrI8ParticleEC1I7Z_BosonvEERKS_IT_E, symObjAddr: 0x4D2C, symBinAddr: 0x1000082BC, symSize: 0x28 }
  - { offsetInCU: 0x3C37C, offset: 0x3C37C, size: 0x8, addend: 0x0, symName: __ZNKSt19__shared_ptr_accessI7Z_BosonLN9__gnu_cxx12_Lock_policyE2ELb0ELb0EEptEv, symObjAddr: 0x4D54, symBinAddr: 0x1000082E4, symSize: 0x1C }
  - { offsetInCU: 0x3C3FC, offset: 0x3C3FC, size: 0x8, addend: 0x0, symName: __ZSt11make_sharedI7Z_BosonJddddEESt10shared_ptrIT_EDpOT0_, symObjAddr: 0x4C7C, symBinAddr: 0x10000820C, symSize: 0xB0 }
  - { offsetInCU: 0x3C404, offset: 0x3C404, size: 0x8, addend: 0x0, symName: __ZNSt10shared_ptrI8ParticleEC1I7Z_BosonvEERKS_IT_E, symObjAddr: 0x4D2C, symBinAddr: 0x1000082BC, symSize: 0x28 }
  - { offsetInCU: 0x3C48A, offset: 0x3C48A, size: 0x8, addend: 0x0, symName: __ZNSt10shared_ptrI8ParticleEC1I6PhotonvEEOS_IT_E, symObjAddr: 0x4C40, symBinAddr: 0x1000081D0, symSize: 0x3C }
  - { offsetInCU: 0x3C492, offset: 0x3C492, size: 0x8, addend: 0x0, symName: __ZSt11make_sharedI7Z_BosonJddddEESt10shared_ptrIT_EDpOT0_, symObjAddr: 0x4C7C, symBinAddr: 0x10000820C, symSize: 0xB0 }
  - { offsetInCU: 0x3C506, offset: 0x3C506, size: 0x8, addend: 0x0, symName: __ZSt11make_sharedI6PhotonJiiiiEESt10shared_ptrIT_EDpOT0_, symObjAddr: 0x4B90, symBinAddr: 0x100008120, symSize: 0xB0 }
  - { offsetInCU: 0x3C50E, offset: 0x3C50E, size: 0x8, addend: 0x0, symName: __ZNSt10shared_ptrI8ParticleEC1I6PhotonvEEOS_IT_E, symObjAddr: 0x4C40, symBinAddr: 0x1000081D0, symSize: 0x3C }
  - { offsetInCU: 0x3C5A1, offset: 0x3C5A1, size: 0x8, addend: 0x0, symName: __ZNSt10shared_ptrI8ParticleEC1I5GluonvEEOS_IT_E, symObjAddr: 0x4B54, symBinAddr: 0x1000080E4, symSize: 0x3C }
  - { offsetInCU: 0x3C5A9, offset: 0x3C5A9, size: 0x8, addend: 0x0, symName: __ZSt11make_sharedI6PhotonJiiiiEESt10shared_ptrIT_EDpOT0_, symObjAddr: 0x4B90, symBinAddr: 0x100008120, symSize: 0xB0 }
  - { offsetInCU: 0x3C659, offset: 0x3C659, size: 0x8, addend: 0x0, symName: __ZSt11make_sharedI5GluonJddddb11Colour_listS1_EESt10shared_ptrIT_EDpOT0_, symObjAddr: 0x4A58, symBinAddr: 0x100007FE8, symSize: 0xFC }
  - { offsetInCU: 0x3C661, offset: 0x3C661, size: 0x8, addend: 0x0, symName: __ZNSt10shared_ptrI8ParticleEC1I5GluonvEEOS_IT_E, symObjAddr: 0x4B54, symBinAddr: 0x1000080E4, symSize: 0x3C }
  - { offsetInCU: 0x3C736, offset: 0x3C736, size: 0x8, addend: 0x0, symName: __ZSt11make_sharedI8NeutrinoJddddb14Lepton_flavourbEESt10shared_ptrIT_EDpOT0_, symObjAddr: 0x495C, symBinAddr: 0x100007EEC, symSize: 0xFC }
  - { offsetInCU: 0x3C73E, offset: 0x3C73E, size: 0x8, addend: 0x0, symName: __ZSt11make_sharedI5GluonJddddb11Colour_listS1_EESt10shared_ptrIT_EDpOT0_, symObjAddr: 0x4A58, symBinAddr: 0x100007FE8, symSize: 0xFC }
  - { offsetInCU: 0x3C7D1, offset: 0x3C7D1, size: 0x8, addend: 0x0, symName: __ZNSt10shared_ptrI8ParticleEC1I3TauvEEOS_IT_E, symObjAddr: 0x4920, symBinAddr: 0x100007EB0, symSize: 0x3C }
  - { offsetInCU: 0x3C7D9, offset: 0x3C7D9, size: 0x8, addend: 0x0, symName: __ZSt11make_sharedI8NeutrinoJddddb14Lepton_flavourbEESt10shared_ptrIT_EDpOT0_, symObjAddr: 0x495C, symBinAddr: 0x100007EEC, symSize: 0xFC }
  - { offsetInCU: 0x3C854, offset: 0x3C854, size: 0x8, addend: 0x0, symName: __ZSt11make_sharedI3TauJdiiibEESt10shared_ptrIT_EDpOT0_, symObjAddr: 0x4854, symBinAddr: 0x100007DE4, symSize: 0xCC }
  - { offsetInCU: 0x3C85C, offset: 0x3C85C, size: 0x8, addend: 0x0, symName: __ZNSt10shared_ptrI8ParticleEC1I3TauvEEOS_IT_E, symObjAddr: 0x4920, symBinAddr: 0x100007EB0, symSize: 0x3C }
  - { offsetInCU: 0x3C93F, offset: 0x3C93F, size: 0x8, addend: 0x0, symName: __ZSt11make_sharedI5QuarkJdiiib13Quark_flavour11Colour_listEESt10shared_ptrIT_EDpOT0_, symObjAddr: 0x4758, symBinAddr: 0x100007CE8, symSize: 0xFC }
  - { offsetInCU: 0x3C947, offset: 0x3C947, size: 0x8, addend: 0x0, symName: __ZSt11make_sharedI3TauJdiiibEESt10shared_ptrIT_EDpOT0_, symObjAddr: 0x4854, symBinAddr: 0x100007DE4, symSize: 0xCC }
  - { offsetInCU: 0x3C9D9, offset: 0x3C9D9, size: 0x8, addend: 0x0, symName: __ZNSt10shared_ptrI8ParticleEC1I4MuonvEEOS_IT_E, symObjAddr: 0x471C, symBinAddr: 0x100007CAC, symSize: 0x3C }
  - { offsetInCU: 0x3C9E1, offset: 0x3C9E1, size: 0x8, addend: 0x0, symName: __ZSt11make_sharedI5QuarkJdiiib13Quark_flavour11Colour_listEESt10shared_ptrIT_EDpOT0_, symObjAddr: 0x4758, symBinAddr: 0x100007CE8, symSize: 0xFC }
  - { offsetInCU: 0x3CA6D, offset: 0x3CA6D, size: 0x8, addend: 0x0, symName: __ZSt11make_sharedI4MuonJddddbbEESt10shared_ptrIT_EDpOT0_, symObjAddr: 0x463C, symBinAddr: 0x100007BCC, symSize: 0xE0 }
  - { offsetInCU: 0x3CA75, offset: 0x3CA75, size: 0x8, addend: 0x0, symName: __ZNSt10shared_ptrI8ParticleEC1I4MuonvEEOS_IT_E, symObjAddr: 0x471C, symBinAddr: 0x100007CAC, symSize: 0x3C }
  - { offsetInCU: 0x3CB32, offset: 0x3CB32, size: 0x8, addend: 0x0, symName: __ZSt11make_sharedI8ElectronJddddbEESt10shared_ptrIT_EDpOT0_, symObjAddr: 0x4570, symBinAddr: 0x100007B00, symSize: 0xCC }
  - { offsetInCU: 0x3CB3A, offset: 0x3CB3A, size: 0x8, addend: 0x0, symName: __ZSt11make_sharedI4MuonJddddbbEESt10shared_ptrIT_EDpOT0_, symObjAddr: 0x463C, symBinAddr: 0x100007BCC, symSize: 0xE0 }
  - { offsetInCU: 0x3CC13, offset: 0x3CC13, size: 0x8, addend: 0x0, symName: __ZSt11make_sharedI5QuarkJddddb13Quark_flavour11Colour_listEESt10shared_ptrIT_EDpOT0_, symObjAddr: 0x4474, symBinAddr: 0x100007A04, symSize: 0xFC }
  - { offsetInCU: 0x3CC1B, offset: 0x3CC1B, size: 0x8, addend: 0x0, symName: __ZSt11make_sharedI8ElectronJddddbEESt10shared_ptrIT_EDpOT0_, symObjAddr: 0x4570, symBinAddr: 0x100007B00, symSize: 0xCC }
  - { offsetInCU: 0x3CCA8, offset: 0x3CCA8, size: 0x8, addend: 0x0, symName: __ZNSt10shared_ptrI8ParticleEC1I8NeutrinovEEOS_IT_E, symObjAddr: 0x4438, symBinAddr: 0x1000079C8, symSize: 0x3C }
  - { offsetInCU: 0x3CCB0, offset: 0x3CCB0, size: 0x8, addend: 0x0, symName: __ZSt11make_sharedI5QuarkJddddb13Quark_flavour11Colour_listEESt10shared_ptrIT_EDpOT0_, symObjAddr: 0x4474, symBinAddr: 0x100007A04, symSize: 0xFC }
  - { offsetInCU: 0x3CD57, offset: 0x3CD57, size: 0x8, addend: 0x0, symName: __ZSt11make_sharedI8NeutrinoJdiiib14Lepton_flavourbEESt10shared_ptrIT_EDpOT0_, symObjAddr: 0x433C, symBinAddr: 0x1000078CC, symSize: 0xFC }
  - { offsetInCU: 0x3CD5F, offset: 0x3CD5F, size: 0x8, addend: 0x0, symName: __ZNSt10shared_ptrI8ParticleEC1I8NeutrinovEEOS_IT_E, symObjAddr: 0x4438, symBinAddr: 0x1000079C8, symSize: 0x3C }
  - { offsetInCU: 0x3CE00, offset: 0x3CE00, size: 0x8, addend: 0x0, symName: __ZNSt10shared_ptrI8ParticleEC1I8ElectronvEEOS_IT_E, symObjAddr: 0x4300, symBinAddr: 0x100007890, symSize: 0x3C }
  - { offsetInCU: 0x3CE08, offset: 0x3CE08, size: 0x8, addend: 0x0, symName: __ZSt11make_sharedI8NeutrinoJdiiib14Lepton_flavourbEESt10shared_ptrIT_EDpOT0_, symObjAddr: 0x433C, symBinAddr: 0x1000078CC, symSize: 0xFC }
  - { offsetInCU: 0x3CE88, offset: 0x3CE88, size: 0x8, addend: 0x0, symName: __ZSt11make_sharedI8ElectronJdiiibEESt10shared_ptrIT_EDpOT0_, symObjAddr: 0x4234, symBinAddr: 0x1000077C4, symSize: 0xCC }
  - { offsetInCU: 0x3CE90, offset: 0x3CE90, size: 0x8, addend: 0x0, symName: __ZNSt10shared_ptrI8ParticleEC1I8ElectronvEEOS_IT_E, symObjAddr: 0x4300, symBinAddr: 0x100007890, symSize: 0x3C }
  - { offsetInCU: 0x3CEC3, offset: 0x3CEC3, size: 0x8, addend: 0x0, symName: __ZNKSt19__shared_ptr_accessI3TauLN9__gnu_cxx12_Lock_policyE2ELb0ELb0EEptEv, symObjAddr: 0x4218, symBinAddr: 0x1000077A8, symSize: 0x1C }
  - { offsetInCU: 0x3CECB, offset: 0x3CECB, size: 0x8, addend: 0x0, symName: __ZSt11make_sharedI8ElectronJdiiibEESt10shared_ptrIT_EDpOT0_, symObjAddr: 0x4234, symBinAddr: 0x1000077C4, symSize: 0xCC }
  - { offsetInCU: 0x3CF58, offset: 0x3CF58, size: 0x8, addend: 0x0, symName: __ZNSt10shared_ptrI8ParticleEC1I3TauvEERKS_IT_E, symObjAddr: 0x41F0, symBinAddr: 0x100007780, symSize: 0x28 }
  - { offsetInCU: 0x3CF60, offset: 0x3CF60, size: 0x8, addend: 0x0, symName: __ZNKSt19__shared_ptr_accessI3TauLN9__gnu_cxx12_Lock_policyE2ELb0ELb0EEptEv, symObjAddr: 0x4218, symBinAddr: 0x1000077A8, symSize: 0x1C }
  - { offsetInCU: 0x3CFE3, offset: 0x3CFE3, size: 0x8, addend: 0x0, symName: __ZSt11make_sharedI3TauJddddbEESt10shared_ptrIT_EDpOT0_, symObjAddr: 0x4124, symBinAddr: 0x1000076B4, symSize: 0xCC }
  - { offsetInCU: 0x3CFEB, offset: 0x3CFEB, size: 0x8, addend: 0x0, symName: __ZNSt10shared_ptrI8ParticleEC1I3TauvEERKS_IT_E, symObjAddr: 0x41F0, symBinAddr: 0x100007780, symSize: 0x28 }
  - { offsetInCU: 0x3D086, offset: 0x3D086, size: 0x8, addend: 0x0, symName: __ZNSt10shared_ptrI8ParticleEC1I5QuarkvEEOS_IT_E, symObjAddr: 0x40E8, symBinAddr: 0x100007678, symSize: 0x3C }
  - { offsetInCU: 0x3D08E, offset: 0x3D08E, size: 0x8, addend: 0x0, symName: __ZSt11make_sharedI3TauJddddbEESt10shared_ptrIT_EDpOT0_, symObjAddr: 0x4124, symBinAddr: 0x1000076B4, symSize: 0xCC }
  - { offsetInCU: 0x3D0FD, offset: 0x3D0FD, size: 0x8, addend: 0x0, symName: __ZNSt14__shared_countILN9__gnu_cxx12_Lock_policyE2EED1Ev, symObjAddr: 0x40B4, symBinAddr: 0x100007644, symSize: 0x34 }
  - { offsetInCU: 0x3D105, offset: 0x3D105, size: 0x8, addend: 0x0, symName: __ZNSt10shared_ptrI8ParticleEC1I5QuarkvEEOS_IT_E, symObjAddr: 0x40E8, symBinAddr: 0x100007678, symSize: 0x3C }
  - { offsetInCU: 0x3D195, offset: 0x3D195, size: 0x8, addend: 0x0, symName: __ZSt11make_sharedI5QuarkJiiiib13Quark_flavour11Colour_listEESt10shared_ptrIT_EDpOT0_, symObjAddr: 0x3FB8, symBinAddr: 0x100007548, symSize: 0xFC }
  - { offsetInCU: 0x3D19D, offset: 0x3D19D, size: 0x8, addend: 0x0, symName: __ZNSt14__shared_countILN9__gnu_cxx12_Lock_policyE2EED1Ev, symObjAddr: 0x40B4, symBinAddr: 0x100007644, symSize: 0x34 }
  - { offsetInCU: 0x3D233, offset: 0x3D233, size: 0x8, addend: 0x0, symName: __ZNSt7__cxx1110_List_baseISt10shared_ptrI8ParticleESaIS3_EED2Ev, symObjAddr: 0x3F90, symBinAddr: 0x100007520, symSize: 0x28 }
  - { offsetInCU: 0x3D23B, offset: 0x3D23B, size: 0x8, addend: 0x0, symName: __ZSt11make_sharedI5QuarkJiiiib13Quark_flavour11Colour_listEESt10shared_ptrIT_EDpOT0_, symObjAddr: 0x3FB8, symBinAddr: 0x100007548, symSize: 0xFC }
  - { offsetInCU: 0x3D27D, offset: 0x3D27D, size: 0x8, addend: 0x0, symName: __ZNSaISt10_List_nodeISt10shared_ptrI8ParticleEEED2Ev, symObjAddr: 0x3F70, symBinAddr: 0x100007500, symSize: 0x20 }
  - { offsetInCU: 0x3D285, offset: 0x3D285, size: 0x8, addend: 0x0, symName: __ZNSt7__cxx1110_List_baseISt10shared_ptrI8ParticleESaIS3_EED2Ev, symObjAddr: 0x3F90, symBinAddr: 0x100007520, symSize: 0x28 }
  - { offsetInCU: 0x3D2DB, offset: 0x3D2DB, size: 0x8, addend: 0x0, symName: __ZNSt7__cxx1110_List_baseISt10shared_ptrI8ParticleESaIS3_EE10_List_implC1Ev, symObjAddr: 0x3F48, symBinAddr: 0x1000074D8, symSize: 0x28 }
  - { offsetInCU: 0x3D2E3, offset: 0x3D2E3, size: 0x8, addend: 0x0, symName: __ZNSaISt10_List_nodeISt10shared_ptrI8ParticleEEED2Ev, symObjAddr: 0x3F70, symBinAddr: 0x100007500, symSize: 0x20 }
  - { offsetInCU: 0x3D2BD, offset: 0x3D2BD, size: 0x8, addend: 0x0, symName: __ZNSt7__cxx114listISt10shared_ptrI8ParticleESaIS3_EE5clearEv, symObjAddr: 0x3F20, symBinAddr: 0x1000074B0, symSize: 0x28 }
  - { offsetInCU: 0x3D2C5, offset: 0x3D2C5, size: 0x8, addend: 0x0, symName: __ZNSt7__cxx1110_List_baseISt10shared_ptrI8ParticleESaIS3_EE10_List_implC1Ev, symObjAddr: 0x3F48, symBinAddr: 0x1000074D8, symSize: 0x28 }
  - { offsetInCU: 0x3D2EC, offset: 0x3D2EC, size: 0x8, addend: 0x0, symName: __ZNSt6vectorISt10shared_ptrI8ParticleESaIS2_EE9push_backERKS2_, symObjAddr: 0x3EA0, symBinAddr: 0x100007430, symSize: 0x80 }
  - { offsetInCU: 0x3D2F4, offset: 0x3D2F4, size: 0x8, addend: 0x0, symName: __ZNSt7__cxx114listISt10shared_ptrI8ParticleESaIS3_EE5clearEv, symObjAddr: 0x3F20, symBinAddr: 0x1000074B0, symSize: 0x28 }
  - { offsetInCU: 0x3D32F, offset: 0x3D32F, size: 0x8, addend: 0x0, symName: __ZNKSt10unique_ptrI13Four_momentumSt14default_deleteIS0_EEdeEv, symObjAddr: 0x3E7C, symBinAddr: 0x10000740C, symSize: 0x24 }
  - { offsetInCU: 0x3D337, offset: 0x3D337, size: 0x8, addend: 0x0, symName: __ZNSt6vectorISt10shared_ptrI8ParticleESaIS2_EE9push_backERKS2_, symObjAddr: 0x3EA0, symBinAddr: 0x100007430, symSize: 0x80 }
  - { offsetInCU: 0x3D3A3, offset: 0x3D3A3, size: 0x8, addend: 0x0, symName: __ZSt7forwardIiEOT_RNSt16remove_referenceIS0_E4typeE, symObjAddr: 0x3E68, symBinAddr: 0x1000073F8, symSize: 0x14 }
  - { offsetInCU: 0x3D3AB, offset: 0x3D3AB, size: 0x8, addend: 0x0, symName: __ZNKSt10unique_ptrI13Four_momentumSt14default_deleteIS0_EEdeEv, symObjAddr: 0x3E7C, symBinAddr: 0x10000740C, symSize: 0x24 }
  - { offsetInCU: 0x3D3E4, offset: 0x3D3E4, size: 0x8, addend: 0x0, symName: __ZSt3maxImERKT_S2_S2_, symObjAddr: 0x3E30, symBinAddr: 0x1000073C0, symSize: 0x38 }
  - { offsetInCU: 0x3D3EC, offset: 0x3D3EC, size: 0x8, addend: 0x0, symName: __ZSt7forwardIiEOT_RNSt16remove_referenceIS0_E4typeE, symObjAddr: 0x3E68, symBinAddr: 0x1000073F8, symSize: 0x14 }
  - { offsetInCU: 0x3D41B, offset: 0x3D41B, size: 0x8, addend: 0x0, symName: _main, symObjAddr: 0x7B4, symBinAddr: 0x100003D44, symSize: 0x367C }
  - { offsetInCU: 0x3D423, offset: 0x3D423, size: 0x8, addend: 0x0, symName: __ZSt3maxImERKT_S2_S2_, symObjAddr: 0x3E30, symBinAddr: 0x1000073C0, symSize: 0x38 }
  - { offsetInCU: 0x3D78E, offset: 0x3D78E, size: 0x8, addend: 0x0, symName: __ZNSt7__cxx114listISt10shared_ptrI8ElectronESaIS3_EED1Ev, symObjAddr: 0x794, symBinAddr: 0x100003D24, symSize: 0x20 }
  - { offsetInCU: 0x3D796, offset: 0x3D796, size: 0x8, addend: 0x0, symName: _main, symObjAddr: 0x7B4, symBinAddr: 0x100003D44, symSize: 0x367C }
  - { offsetInCU: 0x3D834, offset: 0x3D834, size: 0x8, addend: 0x0, symName: __ZSt3getILm1EKNSt7__cxx1112basic_stringIcSt11char_traitsIcESaIcEEEiERKNSt13tuple_elementIXT_ESt4pairIT0_T1_EE4typeERKSB_, symObjAddr: 0x778, symBinAddr: 0x100003D08, symSize: 0x1C }
  - { offsetInCU: 0x3D83C, offset: 0x3D83C, size: 0x8, addend: 0x0, symName: __ZNSt7__cxx114listISt10shared_ptrI8ElectronESaIS3_EED1Ev, symObjAddr: 0x794, symBinAddr: 0x100003D24, symSize: 0x20 }
  - { offsetInCU: 0x3D8A4, offset: 0x3D8A4, size: 0x8, addend: 0x0, symName: __ZSt3getILm0EKNSt7__cxx1112basic_stringIcSt11char_traitsIcESaIcEEEiERKNSt13tuple_elementIXT_ESt4pairIT0_T1_EE4typeERKSB_, symObjAddr: 0x75C, symBinAddr: 0x100003CEC, symSize: 0x1C }
  - { offsetInCU: 0x3D8AC, offset: 0x3D8AC, size: 0x8, addend: 0x0, symName: __ZSt3getILm1EKNSt7__cxx1112basic_stringIcSt11char_traitsIcESaIcEEEiERKNSt13tuple_elementIXT_ESt4pairIT0_T1_EE4typeERKSB_, symObjAddr: 0x778, symBinAddr: 0x100003D08, symSize: 0x1C }
  - { offsetInCU: 0x3D8ED, offset: 0x3D8ED, size: 0x8, addend: 0x0, symName: __ZNSt3mapINSt7__cxx1112basic_stringIcSt11char_traitsIcESaIcEEEiSt4lessIS5_ESaISt4pairIKS5_iEEED1Ev, symObjAddr: 0x73C, symBinAddr: 0x100003CCC, symSize: 0x20 }
  - { offsetInCU: 0x3D8F5, offset: 0x3D8F5, size: 0x8, addend: 0x0, symName: __ZSt3getILm0EKNSt7__cxx1112basic_stringIcSt11char_traitsIcESaIcEEEiERKNSt13tuple_elementIXT_ESt4pairIT0_T1_EE4typeERKSB_, symObjAddr: 0x75C, symBinAddr: 0x100003CEC, symSize: 0x1C }
  - { offsetInCU: 0x3D901, offset: 0x3D901, size: 0x8, addend: 0x0, symName: __ZNSt10shared_ptrI5HiggsED1Ev, symObjAddr: 0x71C, symBinAddr: 0x100003CAC, symSize: 0x20 }
  - { offsetInCU: 0x3D909, offset: 0x3D909, size: 0x8, addend: 0x0, symName: __ZNSt3mapINSt7__cxx1112basic_stringIcSt11char_traitsIcESaIcEEEiSt4lessIS5_ESaISt4pairIKS5_iEEED1Ev, symObjAddr: 0x73C, symBinAddr: 0x100003CCC, symSize: 0x20 }
  - { offsetInCU: 0x3D975, offset: 0x3D975, size: 0x8, addend: 0x0, symName: __ZNSt12__shared_ptrI5HiggsLN9__gnu_cxx12_Lock_policyE2EED2Ev, symObjAddr: 0x6F8, symBinAddr: 0x100003C88, symSize: 0x24 }
  - { offsetInCU: 0x3D97D, offset: 0x3D97D, size: 0x8, addend: 0x0, symName: __ZNSt10shared_ptrI5HiggsED1Ev, symObjAddr: 0x71C, symBinAddr: 0x100003CAC, symSize: 0x20 }
  - { offsetInCU: 0x3D9B1, offset: 0x3D9B1, size: 0x8, addend: 0x0, symName: __ZNSt10shared_ptrI7W_BosonED1Ev, symObjAddr: 0x6D8, symBinAddr: 0x100003C68, symSize: 0x20 }
  - { offsetInCU: 0x3D9B9, offset: 0x3D9B9, size: 0x8, addend: 0x0, symName: __ZNSt12__shared_ptrI5HiggsLN9__gnu_cxx12_Lock_policyE2EED2Ev, symObjAddr: 0x6F8, symBinAddr: 0x100003C88, symSize: 0x24 }
  - { offsetInCU: 0x3DA25, offset: 0x3DA25, size: 0x8, addend: 0x0, symName: __ZNSt12__shared_ptrI7W_BosonLN9__gnu_cxx12_Lock_policyE2EED2Ev, symObjAddr: 0x6B4, symBinAddr: 0x100003C44, symSize: 0x24 }
  - { offsetInCU: 0x3DA2D, offset: 0x3DA2D, size: 0x8, addend: 0x0, symName: __ZNSt10shared_ptrI7W_BosonED1Ev, symObjAddr: 0x6D8, symBinAddr: 0x100003C68, symSize: 0x20 }
  - { offsetInCU: 0x3DA5F, offset: 0x3DA5F, size: 0x8, addend: 0x0, symName: __ZNSt10shared_ptrI7Z_BosonED1Ev, symObjAddr: 0x694, symBinAddr: 0x100003C24, symSize: 0x20 }
  - { offsetInCU: 0x3DA67, offset: 0x3DA67, size: 0x8, addend: 0x0, symName: __ZNSt12__shared_ptrI7W_BosonLN9__gnu_cxx12_Lock_policyE2EED2Ev, symObjAddr: 0x6B4, symBinAddr: 0x100003C44, symSize: 0x24 }
  - { offsetInCU: 0x3DAD3, offset: 0x3DAD3, size: 0x8, addend: 0x0, symName: __ZNSt12__shared_ptrI7Z_BosonLN9__gnu_cxx12_Lock_policyE2EED2Ev, symObjAddr: 0x670, symBinAddr: 0x100003C00, symSize: 0x24 }
  - { offsetInCU: 0x3DADB, offset: 0x3DADB, size: 0x8, addend: 0x0, symName: __ZNSt10shared_ptrI7Z_BosonED1Ev, symObjAddr: 0x694, symBinAddr: 0x100003C24, symSize: 0x20 }
  - { offsetInCU: 0x3DB0C, offset: 0x3DB0C, size: 0x8, addend: 0x0, symName: __ZNSt10shared_ptrI6PhotonED1Ev, symObjAddr: 0x650, symBinAddr: 0x100003BE0, symSize: 0x20 }
  - { offsetInCU: 0x3DB14, offset: 0x3DB14, size: 0x8, addend: 0x0, symName: __ZNSt12__shared_ptrI7Z_BosonLN9__gnu_cxx12_Lock_policyE2EED2Ev, symObjAddr: 0x670, symBinAddr: 0x100003C00, symSize: 0x24 }
  - { offsetInCU: 0x3DB80, offset: 0x3DB80, size: 0x8, addend: 0x0, symName: __ZNSt12__shared_ptrI6PhotonLN9__gnu_cxx12_Lock_policyE2EED2Ev, symObjAddr: 0x62C, symBinAddr: 0x100003BBC, symSize: 0x24 }
  - { offsetInCU: 0x3DB88, offset: 0x3DB88, size: 0x8, addend: 0x0, symName: __ZNSt10shared_ptrI6PhotonED1Ev, symObjAddr: 0x650, symBinAddr: 0x100003BE0, symSize: 0x20 }
  - { offsetInCU: 0x3DBB9, offset: 0x3DBB9, size: 0x8, addend: 0x0, symName: __ZNSt10shared_ptrI5GluonED1Ev, symObjAddr: 0x60C, symBinAddr: 0x100003B9C, symSize: 0x20 }
  - { offsetInCU: 0x3DBC1, offset: 0x3DBC1, size: 0x8, addend: 0x0, symName: __ZNSt12__shared_ptrI6PhotonLN9__gnu_cxx12_Lock_policyE2EED2Ev, symObjAddr: 0x62C, symBinAddr: 0x100003BBC, symSize: 0x24 }
  - { offsetInCU: 0x3DC2D, offset: 0x3DC2D, size: 0x8, addend: 0x0, symName: __ZNSt12__shared_ptrI5GluonLN9__gnu_cxx12_Lock_policyE2EED2Ev, symObjAddr: 0x5E8, symBinAddr: 0x100003B78, symSize: 0x24 }
  - { offsetInCU: 0x3DC35, offset: 0x3DC35, size: 0x8, addend: 0x0, symName: __ZNSt10shared_ptrI5GluonED1Ev, symObjAddr: 0x60C, symBinAddr: 0x100003B9C, symSize: 0x20 }
  - { offsetInCU: 0x3DC66, offset: 0x3DC66, size: 0x8, addend: 0x0, symName: __ZNSt10shared_ptrI4MuonED1Ev, symObjAddr: 0x5C8, symBinAddr: 0x100003B58, symSize: 0x20 }
  - { offsetInCU: 0x3DC6E, offset: 0x3DC6E, size: 0x8, addend: 0x0, symName: __ZNSt12__shared_ptrI5GluonLN9__gnu_cxx12_Lock_policyE2EED2Ev, symObjAddr: 0x5E8, symBinAddr: 0x100003B78, symSize: 0x24 }
  - { offsetInCU: 0x3DCDA, offset: 0x3DCDA, size: 0x8, addend: 0x0, symName: __ZNSt12__shared_ptrI4MuonLN9__gnu_cxx12_Lock_policyE2EED2Ev, symObjAddr: 0x5A4, symBinAddr: 0x100003B34, symSize: 0x24 }
  - { offsetInCU: 0x3DCE2, offset: 0x3DCE2, size: 0x8, addend: 0x0, symName: __ZNSt10shared_ptrI4MuonED1Ev, symObjAddr: 0x5C8, symBinAddr: 0x100003B58, symSize: 0x20 }
  - { offsetInCU: 0x3DD18, offset: 0x3DD18, size: 0x8, addend: 0x0, symName: __ZNSt10shared_ptrI8NeutrinoED1Ev, symObjAddr: 0x584, symBinAddr: 0x100003B14, symSize: 0x20 }
  - { offsetInCU: 0x3DD20, offset: 0x3DD20, size: 0x8, addend: 0x0, symName: __ZNSt12__shared_ptrI4MuonLN9__gnu_cxx12_Lock_policyE2EED2Ev, symObjAddr: 0x5A4, symBinAddr: 0x100003B34, symSize: 0x24 }
  - { offsetInCU: 0x3DD8C, offset: 0x3DD8C, size: 0x8, addend: 0x0, symName: __ZNSt12__shared_ptrI8NeutrinoLN9__gnu_cxx12_Lock_policyE2EED2Ev, symObjAddr: 0x560, symBinAddr: 0x100003AF0, symSize: 0x24 }
  - { offsetInCU: 0x3DD94, offset: 0x3DD94, size: 0x8, addend: 0x0, symName: __ZNSt10shared_ptrI8NeutrinoED1Ev, symObjAddr: 0x584, symBinAddr: 0x100003B14, symSize: 0x20 }
  - { offsetInCU: 0x3DDC6, offset: 0x3DDC6, size: 0x8, addend: 0x0, symName: __ZNSt10shared_ptrI8ElectronED1Ev, symObjAddr: 0x540, symBinAddr: 0x100003AD0, symSize: 0x20 }
  - { offsetInCU: 0x3DDCE, offset: 0x3DDCE, size: 0x8, addend: 0x0, symName: __ZNSt12__shared_ptrI8NeutrinoLN9__gnu_cxx12_Lock_policyE2EED2Ev, symObjAddr: 0x560, symBinAddr: 0x100003AF0, symSize: 0x24 }
  - { offsetInCU: 0x3DE3A, offset: 0x3DE3A, size: 0x8, addend: 0x0, symName: __ZNSt12__shared_ptrI8ElectronLN9__gnu_cxx12_Lock_policyE2EED2Ev, symObjAddr: 0x51C, symBinAddr: 0x100003AAC, symSize: 0x24 }
  - { offsetInCU: 0x3DE42, offset: 0x3DE42, size: 0x8, addend: 0x0, symName: __ZNSt10shared_ptrI8ElectronED1Ev, symObjAddr: 0x540, symBinAddr: 0x100003AD0, symSize: 0x20 }
  - { offsetInCU: 0x3DE6F, offset: 0x3DE6F, size: 0x8, addend: 0x0, symName: __ZNSt10shared_ptrI3TauED1Ev, symObjAddr: 0x4FC, symBinAddr: 0x100003A8C, symSize: 0x20 }
  - { offsetInCU: 0x3DE77, offset: 0x3DE77, size: 0x8, addend: 0x0, symName: __ZNSt12__shared_ptrI8ElectronLN9__gnu_cxx12_Lock_policyE2EED2Ev, symObjAddr: 0x51C, symBinAddr: 0x100003AAC, symSize: 0x24 }
  - { offsetInCU: 0x3DEE3, offset: 0x3DEE3, size: 0x8, addend: 0x0, symName: __ZNSt12__shared_ptrI3TauLN9__gnu_cxx12_Lock_policyE2EED2Ev, symObjAddr: 0x4D8, symBinAddr: 0x100003A68, symSize: 0x24 }
  - { offsetInCU: 0x3DEEB, offset: 0x3DEEB, size: 0x8, addend: 0x0, symName: __ZNSt10shared_ptrI3TauED1Ev, symObjAddr: 0x4FC, symBinAddr: 0x100003A8C, symSize: 0x20 }
  - { offsetInCU: 0x3DF22, offset: 0x3DF22, size: 0x8, addend: 0x0, symName: __ZNSt10shared_ptrI8ParticleED1Ev, symObjAddr: 0x4B8, symBinAddr: 0x100003A48, symSize: 0x20 }
  - { offsetInCU: 0x3DF2A, offset: 0x3DF2A, size: 0x8, addend: 0x0, symName: __ZNSt12__shared_ptrI3TauLN9__gnu_cxx12_Lock_policyE2EED2Ev, symObjAddr: 0x4D8, symBinAddr: 0x100003A68, symSize: 0x24 }
  - { offsetInCU: 0x3DF96, offset: 0x3DF96, size: 0x8, addend: 0x0, symName: __ZNSt12__shared_ptrI8ParticleLN9__gnu_cxx12_Lock_policyE2EED2Ev, symObjAddr: 0x494, symBinAddr: 0x100003A24, symSize: 0x24 }
  - { offsetInCU: 0x3DF9E, offset: 0x3DF9E, size: 0x8, addend: 0x0, symName: __ZNSt10shared_ptrI8ParticleED1Ev, symObjAddr: 0x4B8, symBinAddr: 0x100003A48, symSize: 0x20 }
  - { offsetInCU: 0x3DFCD, offset: 0x3DFCD, size: 0x8, addend: 0x0, symName: __ZNSt10shared_ptrI5QuarkED1Ev, symObjAddr: 0x474, symBinAddr: 0x100003A04, symSize: 0x20 }
  - { offsetInCU: 0x3DFD5, offset: 0x3DFD5, size: 0x8, addend: 0x0, symName: __ZNSt12__shared_ptrI8ParticleLN9__gnu_cxx12_Lock_policyE2EED2Ev, symObjAddr: 0x494, symBinAddr: 0x100003A24, symSize: 0x24 }
  - { offsetInCU: 0x3E041, offset: 0x3E041, size: 0x8, addend: 0x0, symName: __ZNSt12__shared_ptrI5QuarkLN9__gnu_cxx12_Lock_policyE2EED2Ev, symObjAddr: 0x450, symBinAddr: 0x1000039E0, symSize: 0x24 }
  - { offsetInCU: 0x3E049, offset: 0x3E049, size: 0x8, addend: 0x0, symName: __ZNSt10shared_ptrI5QuarkED1Ev, symObjAddr: 0x474, symBinAddr: 0x100003A04, symSize: 0x20 }
  - { offsetInCU: 0x3E079, offset: 0x3E079, size: 0x8, addend: 0x0, symName: __ZN18Particle_containerD1Ev, symObjAddr: 0x430, symBinAddr: 0x1000039C0, symSize: 0x20 }
  - { offsetInCU: 0x3E081, offset: 0x3E081, size: 0x8, addend: 0x0, symName: __ZNSt12__shared_ptrI5QuarkLN9__gnu_cxx12_Lock_policyE2EED2Ev, symObjAddr: 0x450, symBinAddr: 0x1000039E0, symSize: 0x24 }
  - { offsetInCU: 0x3E0C4, offset: 0x3E0C4, size: 0x8, addend: 0x0, symName: __ZN18Particle_containerC1Ev, symObjAddr: 0x410, symBinAddr: 0x1000039A0, symSize: 0x20 }
  - { offsetInCU: 0x3E0CC, offset: 0x3E0CC, size: 0x8, addend: 0x0, symName: __ZN18Particle_containerD1Ev, symObjAddr: 0x430, symBinAddr: 0x1000039C0, symSize: 0x20 }
  - { offsetInCU: 0x3E136, offset: 0x3E136, size: 0x8, addend: 0x0, symName: __ZNSt7__cxx114listISt10shared_ptrI8ParticleESaIS3_EED1Ev, symObjAddr: 0x3F0, symBinAddr: 0x100003980, symSize: 0x20 }
  - { offsetInCU: 0x3E13E, offset: 0x3E13E, size: 0x8, addend: 0x0, symName: __ZN18Particle_containerC1Ev, symObjAddr: 0x410, symBinAddr: 0x1000039A0, symSize: 0x20 }
  - { offsetInCU: 0x3E17D, offset: 0x3E17D, size: 0x8, addend: 0x0, symName: __ZNSt7__cxx114listISt10shared_ptrI8ParticleESaIS3_EEC1Ev, symObjAddr: 0x3D0, symBinAddr: 0x100003960, symSize: 0x20 }
  - { offsetInCU: 0x3E185, offset: 0x3E185, size: 0x8, addend: 0x0, symName: __ZNSt7__cxx114listISt10shared_ptrI8ParticleESaIS3_EED1Ev, symObjAddr: 0x3F0, symBinAddr: 0x100003980, symSize: 0x20 }
  - { offsetInCU: 0x3E1CB, offset: 0x3E1CB, size: 0x8, addend: 0x0, symName: __ZNSt7__cxx1110_List_baseISt10shared_ptrI8ParticleESaIS3_EEC2Ev, symObjAddr: 0x3B0, symBinAddr: 0x100003940, symSize: 0x20 }
  - { offsetInCU: 0x3E1D3, offset: 0x3E1D3, size: 0x8, addend: 0x0, symName: __ZNSt7__cxx114listISt10shared_ptrI8ParticleESaIS3_EEC1Ev, symObjAddr: 0x3D0, symBinAddr: 0x100003960, symSize: 0x20 }
  - { offsetInCU: 0x3E231, offset: 0x3E231, size: 0x8, addend: 0x0, symName: __ZNSt7__cxx1110_List_baseISt10shared_ptrI8ParticleESaIS3_EE10_List_implD1Ev, symObjAddr: 0x390, symBinAddr: 0x100003920, symSize: 0x20 }
  - { offsetInCU: 0x3E239, offset: 0x3E239, size: 0x8, addend: 0x0, symName: __ZNSt7__cxx1110_List_baseISt10shared_ptrI8ParticleESaIS3_EEC2Ev, symObjAddr: 0x3B0, symBinAddr: 0x100003940, symSize: 0x20 }
  - { offsetInCU: 0x3E213, offset: 0x3E213, size: 0x8, addend: 0x0, symName: __ZN18Particle_container15clear_containerEv, symObjAddr: 0x370, symBinAddr: 0x100003900, symSize: 0x20 }
  - { offsetInCU: 0x3E21B, offset: 0x3E21B, size: 0x8, addend: 0x0, symName: __ZNSt7__cxx1110_List_baseISt10shared_ptrI8ParticleESaIS3_EE10_List_implD1Ev, symObjAddr: 0x390, symBinAddr: 0x100003920, symSize: 0x20 }
  - { offsetInCU: 0x3E242, offset: 0x3E242, size: 0x8, addend: 0x0, symName: __ZNK18Particle_container17get_all_particlesB5cxx11Ev, symObjAddr: 0x35C, symBinAddr: 0x1000038EC, symSize: 0x14 }
  - { offsetInCU: 0x3E24A, offset: 0x3E24A, size: 0x8, addend: 0x0, symName: __ZN18Particle_container15clear_containerEv, symObjAddr: 0x370, symBinAddr: 0x100003900, symSize: 0x20 }
  - { offsetInCU: 0x3E272, offset: 0x3E272, size: 0x8, addend: 0x0, symName: __ZN8Particle15print_separatorEv, symObjAddr: 0x320, symBinAddr: 0x1000038B0, symSize: 0x3C }
  - { offsetInCU: 0x3E27A, offset: 0x3E27A, size: 0x8, addend: 0x0, symName: __ZNK18Particle_container17get_all_particlesB5cxx11Ev, symObjAddr: 0x35C, symBinAddr: 0x1000038EC, symSize: 0x14 }
  - { offsetInCU: 0x3E28F, offset: 0x3E28F, size: 0x8, addend: 0x0, symName: __ZN8Particle17add_decay_productESt10shared_ptrIS_E, symObjAddr: 0x2F4, symBinAddr: 0x100003884, symSize: 0x2C }
  - { offsetInCU: 0x3E297, offset: 0x3E297, size: 0x8, addend: 0x0, symName: __ZN8Particle15print_separatorEv, symObjAddr: 0x320, symBinAddr: 0x1000038B0, symSize: 0x3C }
  - { offsetInCU: 0x3E2D2, offset: 0x3E2D2, size: 0x8, addend: 0x0, symName: __ZNK8Particle17get_four_momentumEv, symObjAddr: 0x2D4, symBinAddr: 0x100003864, symSize: 0x20 }
  - { offsetInCU: 0x3E2DA, offset: 0x3E2DA, size: 0x8, addend: 0x0, symName: __ZN8Particle17add_decay_productESt10shared_ptrIS_E, symObjAddr: 0x2F4, symBinAddr: 0x100003884, symSize: 0x2C }
  - { offsetInCU: 0x3E332, offset: 0x3E332, size: 0x8, addend: 0x0, symName: __ZSt3minImERKT_S2_S2_, symObjAddr: 0x29C, symBinAddr: 0x10000382C, symSize: 0x38 }
  - { offsetInCU: 0x3E33A, offset: 0x3E33A, size: 0x8, addend: 0x0, symName: __ZNK8Particle17get_four_momentumEv, symObjAddr: 0x2D4, symBinAddr: 0x100003864, symSize: 0x20 }
  - { offsetInCU: 0x3E360, offset: 0x3E360, size: 0x8, addend: 0x0, symName: __ZNSt19_Sp_make_shared_tag5_S_tiEv, symObjAddr: 0x290, symBinAddr: 0x100003820, symSize: 0xC }
  - { offsetInCU: 0x3E368, offset: 0x3E368, size: 0x8, addend: 0x0, symName: __ZSt3minImERKT_S2_S2_, symObjAddr: 0x29C, symBinAddr: 0x10000382C, symSize: 0x38 }
  - { offsetInCU: 0x3E3B3, offset: 0x3E3B3, size: 0x8, addend: 0x0, symName: __ZZNSt19_Sp_make_shared_tag5_S_tiEvE5__tag, symObjAddr: 0x129B8, symBinAddr: 0x100026AA8, symSize: 0x0 }
  - { offsetInCU: 0x3E3BB, offset: 0x3E3BB, size: 0x8, addend: 0x0, symName: __ZNSt8__detail17_List_node_header7_M_initEv, symObjAddr: 0x258, symBinAddr: 0x1000037E8, symSize: 0x38 }
  - { offsetInCU: 0x3E3C3, offset: 0x3E3C3, size: 0x8, addend: 0x0, symName: __ZNSt19_Sp_make_shared_tag5_S_tiEv, symObjAddr: 0x290, symBinAddr: 0x100003820, symSize: 0xC }
  - { offsetInCU: 0x3E429, offset: 0x3E429, size: 0x8, addend: 0x0, symName: __ZNSt8__detail17_List_node_headerC1Ev, symObjAddr: 0x238, symBinAddr: 0x1000037C8, symSize: 0x20 }
  - { offsetInCU: 0x3E431, offset: 0x3E431, size: 0x8, addend: 0x0, symName: __ZNSt8__detail17_List_node_header7_M_initEv, symObjAddr: 0x258, symBinAddr: 0x1000037E8, symSize: 0x38 }
  - { offsetInCU: 0x3E445, offset: 0x3E445, size: 0x8, addend: 0x0, symName: __ZSt4setwi, symObjAddr: 0x224, symBinAddr: 0x1000037B4, symSize: 0x14 }
  - { offsetInCU: 0x3E44D, offset: 0x3E44D, size: 0x8, addend: 0x0, symName: __ZNSt8__detail17_List_node_headerC1Ev, symObjAddr: 0x238, symBinAddr: 0x1000037C8, symSize: 0x20 }
  - { offsetInCU: 0x3E49C, offset: 0x3E49C, size: 0x8, addend: 0x0, symName: __ZSt10scientificRSt8ios_base, symObjAddr: 0x1FC, symBinAddr: 0x10000378C, symSize: 0x28 }
  - { offsetInCU: 0x3E4A4, offset: 0x3E4A4, size: 0x8, addend: 0x0, symName: __ZSt4setwi, symObjAddr: 0x224, symBinAddr: 0x1000037B4, symSize: 0x14 }
  - { offsetInCU: 0x3E4CF, offset: 0x3E4CF, size: 0x8, addend: 0x0, symName: __ZSt4leftRSt8ios_base, symObjAddr: 0x1D4, symBinAddr: 0x100003764, symSize: 0x28 }
  - { offsetInCU: 0x3E4D7, offset: 0x3E4D7, size: 0x8, addend: 0x0, symName: __ZSt10scientificRSt8ios_base, symObjAddr: 0x1FC, symBinAddr: 0x10000378C, symSize: 0x28 }
  - { offsetInCU: 0x3E502, offset: 0x3E502, size: 0x8, addend: 0x0, symName: __ZNSt8ios_base4setfESt13_Ios_FmtflagsS0_, symObjAddr: 0x174, symBinAddr: 0x100003704, symSize: 0x60 }
  - { offsetInCU: 0x3E50A, offset: 0x3E50A, size: 0x8, addend: 0x0, symName: __ZSt4leftRSt8ios_base, symObjAddr: 0x1D4, symBinAddr: 0x100003764, symSize: 0x28 }
  - { offsetInCU: 0x3E597, offset: 0x3E597, size: 0x8, addend: 0x0, symName: __ZStaNRSt13_Ios_FmtflagsS_, symObjAddr: 0x13C, symBinAddr: 0x1000036CC, symSize: 0x38 }
  - { offsetInCU: 0x3E59F, offset: 0x3E59F, size: 0x8, addend: 0x0, symName: __ZNSt8ios_base4setfESt13_Ios_FmtflagsS0_, symObjAddr: 0x174, symBinAddr: 0x100003704, symSize: 0x60 }
  - { offsetInCU: 0x3E5FC, offset: 0x3E5FC, size: 0x8, addend: 0x0, symName: __ZStoRRSt13_Ios_FmtflagsS_, symObjAddr: 0x104, symBinAddr: 0x100003694, symSize: 0x38 }
  - { offsetInCU: 0x3E604, offset: 0x3E604, size: 0x8, addend: 0x0, symName: __ZStaNRSt13_Ios_FmtflagsS_, symObjAddr: 0x13C, symBinAddr: 0x1000036CC, symSize: 0x38 }
  - { offsetInCU: 0x3E649, offset: 0x3E649, size: 0x8, addend: 0x0, symName: __ZStcoSt13_Ios_Fmtflags, symObjAddr: 0xEC, symBinAddr: 0x10000367C, symSize: 0x18 }
  - { offsetInCU: 0x3E651, offset: 0x3E651, size: 0x8, addend: 0x0, symName: __ZStoRRSt13_Ios_FmtflagsS_, symObjAddr: 0x104, symBinAddr: 0x100003694, symSize: 0x38 }
  - { offsetInCU: 0x3E689, offset: 0x3E689, size: 0x8, addend: 0x0, symName: __ZStorSt13_Ios_FmtflagsS_, symObjAddr: 0xCC, symBinAddr: 0x10000365C, symSize: 0x20 }
  - { offsetInCU: 0x3E691, offset: 0x3E691, size: 0x8, addend: 0x0, symName: __ZStcoSt13_Ios_Fmtflags, symObjAddr: 0xEC, symBinAddr: 0x10000367C, symSize: 0x18 }
  - { offsetInCU: 0x3E6DA, offset: 0x3E6DA, size: 0x8, addend: 0x0, symName: __ZStanSt13_Ios_FmtflagsS_, symObjAddr: 0xAC, symBinAddr: 0x10000363C, symSize: 0x20 }
  - { offsetInCU: 0x3E6E2, offset: 0x3E6E2, size: 0x8, addend: 0x0, symName: __ZStorSt13_Ios_FmtflagsS_, symObjAddr: 0xCC, symBinAddr: 0x10000365C, symSize: 0x20 }
  - { offsetInCU: 0x3E89B, offset: 0x3E89B, size: 0x8, addend: 0x0, symName: __ZL18__gthread_active_pv, symObjAddr: 0xA4, symBinAddr: 0x100003634, symSize: 0x8 }
  - { offsetInCU: 0x3E8A3, offset: 0x3E8A3, size: 0x8, addend: 0x0, symName: __ZStanSt13_Ios_FmtflagsS_, symObjAddr: 0xAC, symBinAddr: 0x10000363C, symSize: 0x20 }
  - { offsetInCU: 0x3E8B6, offset: 0x3E8B6, size: 0x8, addend: 0x0, symName: __ZdlPvS_, symObjAddr: 0x8C, symBinAddr: 0x10000361C, symSize: 0x18 }
  - { offsetInCU: 0x3E8BE, offset: 0x3E8BE, size: 0x8, addend: 0x0, symName: __ZL18__gthread_active_pv, symObjAddr: 0xA4, symBinAddr: 0x100003634, symSize: 0x8 }
  - { offsetInCU: 0x3E8F4, offset: 0x3E8F4, size: 0x8, addend: 0x0, symName: __ZnwmPv, symObjAddr: 0x74, symBinAddr: 0x100003604, symSize: 0x18 }
  - { offsetInCU: 0x3E8FC, offset: 0x3E8FC, size: 0x8, addend: 0x0, symName: __ZdlPvS_, symObjAddr: 0x8C, symBinAddr: 0x10000361C, symSize: 0x18 }
  - { offsetInCU: 0x3E92D, offset: 0x3E92D, size: 0x8, addend: 0x0, symName: __ZNKSt9type_infoeqERKS_, symObjAddr: 0x0, symBinAddr: 0x100003590, symSize: 0x74 }
  - { offsetInCU: 0x3E935, offset: 0x3E935, size: 0x8, addend: 0x0, symName: __ZnwmPv, symObjAddr: 0x74, symBinAddr: 0x100003604, symSize: 0x18 }
  - { offsetInCU: 0xCA, offset: 0x3EA3B, size: 0x8, addend: 0x0, symName: __ZL18__gthread_active_pv, symObjAddr: 0x0, symBinAddr: 0x100015F3C, symSize: 0x8 }
  - { offsetInCU: 0xD2, offset: 0x3EA43, size: 0x8, addend: 0x0, symName: __ZN9__gnu_cxxL21__default_lock_policyE, symObjAddr: 0x1838, symBinAddr: 0x100027180, symSize: 0x0 }
  - { offsetInCU: 0x51C4, offset: 0x43B35, size: 0x8, addend: 0x0, symName: __ZStL8__ioinit, symObjAddr: 0x448C8, symBinAddr: 0x1000410B1, symSize: 0x0 }
  - { offsetInCU: 0x545F, offset: 0x43DD0, size: 0x8, addend: 0x0, symName: __ZN9__gnu_cxxL21__default_lock_policyE, symObjAddr: 0x1838, symBinAddr: 0x100027180, symSize: 0x0 }
  - { offsetInCU: 0x54C7, offset: 0x43E38, size: 0x8, addend: 0x0, symName: __ZN6__pstl9execution2v1L3seqE, symObjAddr: 0x183C, symBinAddr: 0x100027184, symSize: 0x0 }
  - { offsetInCU: 0x54E1, offset: 0x43E52, size: 0x8, addend: 0x0, symName: __ZN6__pstl9execution2v1L3parE, symObjAddr: 0x183D, symBinAddr: 0x100027185, symSize: 0x0 }
  - { offsetInCU: 0x5501, offset: 0x43E72, size: 0x8, addend: 0x0, symName: __ZN6__pstl9execution2v1L9par_unseqE, symObjAddr: 0x183E, symBinAddr: 0x100027186, symSize: 0x0 }
  - { offsetInCU: 0x5517, offset: 0x43E88, size: 0x8, addend: 0x0, symName: __ZN6__pstl9execution2v1L5unseqE, symObjAddr: 0x183F, symBinAddr: 0x100027187, symSize: 0x0 }
  - { offsetInCU: 0x9845, offset: 0x481B6, size: 0x8, addend: 0x0, symName: __GLOBAL__sub_I_particle.cpp, symObjAddr: 0x181C, symBinAddr: 0x1000171BC, symSize: 0x1C }
  - { offsetInCU: 0x984D, offset: 0x481BE, size: 0x8, addend: 0x0, symName: __ZN9__gnu_cxxL21__default_lock_policyE, symObjAddr: 0x1838, symBinAddr: 0x100027180, symSize: 0x0 }
  - { offsetInCU: 0x986D, offset: 0x481DE, size: 0x8, addend: 0x0, symName: __Z41__static_initialization_and_destruction_0ii, symObjAddr: 0x17BC, symBinAddr: 0x10001715C, symSize: 0x60 }
  - { offsetInCU: 0x9875, offset: 0x481E6, size: 0x8, addend: 0x0, symName: __GLOBAL__sub_I_particle.cpp, symObjAddr: 0x181C, symBinAddr: 0x1000171BC, symSize: 0x1C }
  - { offsetInCU: 0x9886, offset: 0x481F7, size: 0x8, addend: 0x0, symName: __ZNSt10_Head_baseILm1ESt14default_deleteI13Four_momentumELb1EE7_M_headERS3_, symObjAddr: 0x17A8, symBinAddr: 0x100017148, symSize: 0x14 }
  - { offsetInCU: 0x988E, offset: 0x481FF, size: 0x8, addend: 0x0, symName: __Z41__static_initialization_and_destruction_0ii, symObjAddr: 0x17BC, symBinAddr: 0x10001715C, symSize: 0x60 }
  - { offsetInCU: 0x9913, offset: 0x48284, size: 0x8, addend: 0x0, symName: __ZNSt10_Head_baseILm1ESt14default_deleteI13Four_momentumELb1EEC2Ev, symObjAddr: 0x1794, symBinAddr: 0x100017134, symSize: 0x14 }
  - { offsetInCU: 0x991B, offset: 0x4828C, size: 0x8, addend: 0x0, symName: __ZNSt10_Head_baseILm1ESt14default_deleteI13Four_momentumELb1EE7_M_headERS3_, symObjAddr: 0x17A8, symBinAddr: 0x100017148, symSize: 0x14 }
  - { offsetInCU: 0x98FE, offset: 0x4826F, size: 0x8, addend: 0x0, symName: __ZNSt11_Tuple_implILm1EJSt14default_deleteI13Four_momentumEEE7_M_headERS3_, symObjAddr: 0x1764, symBinAddr: 0x100017118, symSize: 0x1C }
  - { offsetInCU: 0x9930, offset: 0x482A1, size: 0x8, addend: 0x0, symName: __ZNSt10_Head_baseILm0EP13Four_momentumLb0EE7_M_headERS2_, symObjAddr: 0x1750, symBinAddr: 0x100017104, symSize: 0x14 }
  - { offsetInCU: 0x9938, offset: 0x482A9, size: 0x8, addend: 0x0, symName: __ZNSt11_Tuple_implILm1EJSt14default_deleteI13Four_momentumEEE7_M_headERS3_, symObjAddr: 0x1764, symBinAddr: 0x100017118, symSize: 0x1C }
  - { offsetInCU: 0x99AA, offset: 0x4831B, size: 0x8, addend: 0x0, symName: __ZNSt10_Head_baseILm0EP13Four_momentumLb0EEC2Ev, symObjAddr: 0x1734, symBinAddr: 0x1000170E8, symSize: 0x1C }
  - { offsetInCU: 0x99B2, offset: 0x48323, size: 0x8, addend: 0x0, symName: __ZNSt10_Head_baseILm0EP13Four_momentumLb0EE7_M_headERS2_, symObjAddr: 0x1750, symBinAddr: 0x100017104, symSize: 0x14 }
  - { offsetInCU: 0x9A03, offset: 0x48374, size: 0x8, addend: 0x0, symName: __ZNSt11_Tuple_implILm1EJSt14default_deleteI13Four_momentumEEEC2Ev, symObjAddr: 0x1714, symBinAddr: 0x1000170C8, symSize: 0x20 }
  - { offsetInCU: 0x9A0B, offset: 0x4837C, size: 0x8, addend: 0x0, symName: __ZNSt10_Head_baseILm0EP13Four_momentumLb0EEC2Ev, symObjAddr: 0x1734, symBinAddr: 0x1000170E8, symSize: 0x1C }
  - { offsetInCU: 0x9A42, offset: 0x483B3, size: 0x8, addend: 0x0, symName: __ZSt8_DestroyISt10shared_ptrI8ParticleEEvPT_, symObjAddr: 0x16D8, symBinAddr: 0x1000170A8, symSize: 0x20 }
  - { offsetInCU: 0x9ACE, offset: 0x4843F, size: 0x8, addend: 0x0, symName: __ZSt12__get_helperILm1ESt14default_deleteI13Four_momentumEJEERT0_RSt11_Tuple_implIXT_EJS3_DpT1_EE, symObjAddr: 0x16A8, symBinAddr: 0x10001708C, symSize: 0x1C }
  - { offsetInCU: 0x9A93, offset: 0x48404, size: 0x8, addend: 0x0, symName: __ZNSt11_Tuple_implILm0EJP13Four_momentumSt14default_deleteIS0_EEE7_M_headERS4_, symObjAddr: 0x168C, symBinAddr: 0x100017070, symSize: 0x1C }
  - { offsetInCU: 0x9A9B, offset: 0x4840C, size: 0x8, addend: 0x0, symName: __ZSt12__get_helperILm1ESt14default_deleteI13Four_momentumEJEERT0_RSt11_Tuple_implIXT_EJS3_DpT1_EE, symObjAddr: 0x16A8, symBinAddr: 0x10001708C, symSize: 0x1C }
  - { offsetInCU: 0x9B24, offset: 0x48495, size: 0x8, addend: 0x0, symName: __ZNSt11_Tuple_implILm0EJP13Four_momentumSt14default_deleteIS0_EEEC2Ev, symObjAddr: 0x1664, symBinAddr: 0x100017048, symSize: 0x28 }
  - { offsetInCU: 0x9B2C, offset: 0x4849D, size: 0x8, addend: 0x0, symName: __ZNSt11_Tuple_implILm0EJP13Four_momentumSt14default_deleteIS0_EEE7_M_headERS4_, symObjAddr: 0x168C, symBinAddr: 0x100017070, symSize: 0x1C }
  - { offsetInCU: 0x9B0C, offset: 0x4847D, size: 0x8, addend: 0x0, symName: __ZNSt12_Destroy_auxILb0EE9__destroyIPSt10shared_ptrI8ParticleEEEvT_S6_, symObjAddr: 0x147C, symBinAddr: 0x100016FFC, symSize: 0x4C }
  - { offsetInCU: 0x9C1A, offset: 0x4858B, size: 0x8, addend: 0x0, symName: __ZSt3getILm1EJP13Four_momentumSt14default_deleteIS0_EEERNSt13tuple_elementIXT_ESt5tupleIJDpT0_EEE4typeERS8_, symObjAddr: 0x1430, symBinAddr: 0x100016FE0, symSize: 0x1C }
  - { offsetInCU: 0x9C4C, offset: 0x485BD, size: 0x8, addend: 0x0, symName: __ZSt12__get_helperILm0EP13Four_momentumJSt14default_deleteIS0_EEERT0_RSt11_Tuple_implIXT_EJS4_DpT1_EE, symObjAddr: 0x1414, symBinAddr: 0x100016FC4, symSize: 0x1C }
  - { offsetInCU: 0x9C54, offset: 0x485C5, size: 0x8, addend: 0x0, symName: __ZSt3getILm1EJP13Four_momentumSt14default_deleteIS0_EEERNSt13tuple_elementIXT_ESt5tupleIJDpT0_EEE4typeERS8_, symObjAddr: 0x1430, symBinAddr: 0x100016FE0, symSize: 0x1C }
  - { offsetInCU: 0x9CB4, offset: 0x48625, size: 0x8, addend: 0x0, symName: __ZNSt5tupleIJP13Four_momentumSt14default_deleteIS0_EEEC1ILb1ELb1EEEv, symObjAddr: 0x13F4, symBinAddr: 0x100016FA4, symSize: 0x20 }
  - { offsetInCU: 0x9CBC, offset: 0x4862D, size: 0x8, addend: 0x0, symName: __ZSt12__get_helperILm0EP13Four_momentumJSt14default_deleteIS0_EEERT0_RSt11_Tuple_implIXT_EJS4_DpT1_EE, symObjAddr: 0x1414, symBinAddr: 0x100016FC4, symSize: 0x1C }
  - { offsetInCU: 0x9D12, offset: 0x48683, size: 0x8, addend: 0x0, symName: __ZSt8_DestroyIPSt10shared_ptrI8ParticleEEvT_S4_, symObjAddr: 0x1344, symBinAddr: 0x100016F7C, symSize: 0x28 }
  - { offsetInCU: 0x9D67, offset: 0x486D8, size: 0x8, addend: 0x0, symName: __ZN9__gnu_cxx13new_allocatorISt10shared_ptrI8ParticleEEC2Ev, symObjAddr: 0x1300, symBinAddr: 0x100016F68, symSize: 0x14 }
  - { offsetInCU: 0x9D59, offset: 0x486CA, size: 0x8, addend: 0x0, symName: __ZNSt15__uniq_ptr_implI13Four_momentumSt14default_deleteIS0_EE10_M_deleterEv, symObjAddr: 0x12E4, symBinAddr: 0x100016F4C, symSize: 0x1C }
  - { offsetInCU: 0x9D61, offset: 0x486D2, size: 0x8, addend: 0x0, symName: __ZN9__gnu_cxx13new_allocatorISt10shared_ptrI8ParticleEEC2Ev, symObjAddr: 0x1300, symBinAddr: 0x100016F68, symSize: 0x14 }
  - { offsetInCU: 0x9DFD, offset: 0x4876E, size: 0x8, addend: 0x0, symName: __ZSt3getILm0EJP13Four_momentumSt14default_deleteIS0_EEERNSt13tuple_elementIXT_ESt5tupleIJDpT0_EEE4typeERS8_, symObjAddr: 0x12C8, symBinAddr: 0x100016F30, symSize: 0x1C }
  - { offsetInCU: 0x9E05, offset: 0x48776, size: 0x8, addend: 0x0, symName: __ZNSt15__uniq_ptr_implI13Four_momentumSt14default_deleteIS0_EE10_M_deleterEv, symObjAddr: 0x12E4, symBinAddr: 0x100016F4C, symSize: 0x1C }
  - { offsetInCU: 0x9E68, offset: 0x487D9, size: 0x8, addend: 0x0, symName: __ZNSt15__uniq_ptr_implI13Four_momentumSt14default_deleteIS0_EEC2EPS0_, symObjAddr: 0x128C, symBinAddr: 0x100016EF4, symSize: 0x3C }
  - { offsetInCU: 0x9E70, offset: 0x487E1, size: 0x8, addend: 0x0, symName: __ZSt3getILm0EJP13Four_momentumSt14default_deleteIS0_EEERNSt13tuple_elementIXT_ESt5tupleIJDpT0_EEE4typeERS8_, symObjAddr: 0x12C8, symBinAddr: 0x100016F30, symSize: 0x1C }
  - { offsetInCU: 0x9E5C, offset: 0x487CD, size: 0x8, addend: 0x0, symName: __ZNK9__gnu_cxx17__normal_iteratorIPKSt10shared_ptrI8ParticleESt6vectorIS3_SaIS3_EEE4baseEv, symObjAddr: 0x1234, symBinAddr: 0x100016EE0, symSize: 0x14 }
  - { offsetInCU: 0x9F10, offset: 0x48881, size: 0x8, addend: 0x0, symName: __ZN9__gnu_cxx17__normal_iteratorIPKSt10shared_ptrI8ParticleESt6vectorIS3_SaIS3_EEEC1ERKS5_, symObjAddr: 0x120C, symBinAddr: 0x100016EB8, symSize: 0x28 }
  - { offsetInCU: 0x9F18, offset: 0x48889, size: 0x8, addend: 0x0, symName: __ZNK9__gnu_cxx17__normal_iteratorIPKSt10shared_ptrI8ParticleESt6vectorIS3_SaIS3_EEE4baseEv, symObjAddr: 0x1234, symBinAddr: 0x100016EE0, symSize: 0x14 }
  - { offsetInCU: 0x9FB2, offset: 0x48923, size: 0x8, addend: 0x0, symName: __ZN9__gnu_cxxeqIPKSt10shared_ptrI8ParticleESt6vectorIS3_SaIS3_EEEEbRKNS_17__normal_iteratorIT_T0_EESE_, symObjAddr: 0x11C8, symBinAddr: 0x100016E74, symSize: 0x44 }
  - { offsetInCU: 0x9FBA, offset: 0x4892B, size: 0x8, addend: 0x0, symName: __ZN9__gnu_cxx17__normal_iteratorIPKSt10shared_ptrI8ParticleESt6vectorIS3_SaIS3_EEEC1ERKS5_, symObjAddr: 0x120C, symBinAddr: 0x100016EB8, symSize: 0x28 }
  - { offsetInCU: 0x9FE5, offset: 0x48956, size: 0x8, addend: 0x0, symName: __ZSt8_DestroyIPSt10shared_ptrI8ParticleES2_EvT_S4_RSaIT0_E, symObjAddr: 0x1144, symBinAddr: 0x100016E48, symSize: 0x2C }
  - { offsetInCU: 0xA03C, offset: 0x489AD, size: 0x8, addend: 0x0, symName: __ZN9__gnu_cxx13new_allocatorISt10shared_ptrI8ParticleEED2Ev, symObjAddr: 0x10E0, symBinAddr: 0x100016E34, symSize: 0x14 }
  - { offsetInCU: 0xA094, offset: 0x48A05, size: 0x8, addend: 0x0, symName: __ZNSt12_Vector_baseISt10shared_ptrI8ParticleESaIS2_EE17_Vector_impl_dataC2Ev, symObjAddr: 0x10B4, symBinAddr: 0x100016E08, symSize: 0x2C }
  - { offsetInCU: 0xA09C, offset: 0x48A0D, size: 0x8, addend: 0x0, symName: __ZN9__gnu_cxx13new_allocatorISt10shared_ptrI8ParticleEED2Ev, symObjAddr: 0x10E0, symBinAddr: 0x100016E34, symSize: 0x14 }
  - { offsetInCU: 0xA0B3, offset: 0x48A24, size: 0x8, addend: 0x0, symName: __ZNSaISt10shared_ptrI8ParticleEEC2Ev, symObjAddr: 0x1094, symBinAddr: 0x100016DE8, symSize: 0x20 }
  - { offsetInCU: 0xA0BB, offset: 0x48A2C, size: 0x8, addend: 0x0, symName: __ZNSt12_Vector_baseISt10shared_ptrI8ParticleESaIS2_EE17_Vector_impl_dataC2Ev, symObjAddr: 0x10B4, symBinAddr: 0x100016E08, symSize: 0x2C }
  - { offsetInCU: 0xA0BC, offset: 0x48A2D, size: 0x8, addend: 0x0, symName: __ZNKSt14default_deleteI13Four_momentumEclEPS0_, symObjAddr: 0x1050, symBinAddr: 0x100016DA4, symSize: 0x44 }
  - { offsetInCU: 0xA0C4, offset: 0x48A35, size: 0x8, addend: 0x0, symName: __ZNSaISt10shared_ptrI8ParticleEEC2Ev, symObjAddr: 0x1094, symBinAddr: 0x100016DE8, symSize: 0x20 }
  - { offsetInCU: 0xA159, offset: 0x48ACA, size: 0x8, addend: 0x0, symName: __ZSt4moveIRP13Four_momentumEONSt16remove_referenceIT_E4typeEOS4_, symObjAddr: 0x103C, symBinAddr: 0x100016D90, symSize: 0x14 }
  - { offsetInCU: 0xA161, offset: 0x48AD2, size: 0x8, addend: 0x0, symName: __ZNKSt14default_deleteI13Four_momentumEclEPS0_, symObjAddr: 0x1050, symBinAddr: 0x100016DA4, symSize: 0x44 }
  - { offsetInCU: 0xA153, offset: 0x48AC4, size: 0x8, addend: 0x0, symName: __ZNSt10unique_ptrI13Four_momentumSt14default_deleteIS0_EE11get_deleterEv, symObjAddr: 0x1020, symBinAddr: 0x100016D74, symSize: 0x1C }
  - { offsetInCU: 0xA15B, offset: 0x48ACC, size: 0x8, addend: 0x0, symName: __ZSt4moveIRP13Four_momentumEONSt16remove_referenceIT_E4typeEOS4_, symObjAddr: 0x103C, symBinAddr: 0x100016D90, symSize: 0x14 }
  - { offsetInCU: 0xA182, offset: 0x48AF3, size: 0x8, addend: 0x0, symName: __ZNSt15__uniq_ptr_implI13Four_momentumSt14default_deleteIS0_EE6_M_ptrEv, symObjAddr: 0x1004, symBinAddr: 0x100016D58, symSize: 0x1C }
  - { offsetInCU: 0xA18A, offset: 0x48AFB, size: 0x8, addend: 0x0, symName: __ZNSt10unique_ptrI13Four_momentumSt14default_deleteIS0_EE11get_deleterEv, symObjAddr: 0x1020, symBinAddr: 0x100016D74, symSize: 0x1C }
  - { offsetInCU: 0xA230, offset: 0x48BA1, size: 0x8, addend: 0x0, symName: __ZNSt10unique_ptrI13Four_momentumSt14default_deleteIS0_EEC1IS2_vEEPS0_, symObjAddr: 0xFDC, symBinAddr: 0x100016D30, symSize: 0x28 }
  - { offsetInCU: 0xA238, offset: 0x48BA9, size: 0x8, addend: 0x0, symName: __ZNSt15__uniq_ptr_implI13Four_momentumSt14default_deleteIS0_EE6_M_ptrEv, symObjAddr: 0x1004, symBinAddr: 0x100016D58, symSize: 0x1C }
  - { offsetInCU: 0xA2C1, offset: 0x48C32, size: 0x8, addend: 0x0, symName: __ZNSt15__uniq_ptr_dataI13Four_momentumSt14default_deleteIS0_ELb1ELb1EECI1St15__uniq_ptr_implIS0_S2_EEPS0_, symObjAddr: 0xFB4, symBinAddr: 0x100016D08, symSize: 0x28 }
  - { offsetInCU: 0xA2C9, offset: 0x48C3A, size: 0x8, addend: 0x0, symName: __ZNSt10unique_ptrI13Four_momentumSt14default_deleteIS0_EEC1IS2_vEEPS0_, symObjAddr: 0xFDC, symBinAddr: 0x100016D30, symSize: 0x28 }
  - { offsetInCU: 0xA2DB, offset: 0x48C4C, size: 0x8, addend: 0x0, symName: __ZSt7forwardIRdEOT_RNSt16remove_referenceIS1_E4typeE, symObjAddr: 0xFA0, symBinAddr: 0x100016CF4, symSize: 0x14 }
  - { offsetInCU: 0xA2E3, offset: 0x48C54, size: 0x8, addend: 0x0, symName: __ZNSt15__uniq_ptr_dataI13Four_momentumSt14default_deleteIS0_ELb1ELb1EECI1St15__uniq_ptr_implIS0_S2_EEPS0_, symObjAddr: 0xFB4, symBinAddr: 0x100016D08, symSize: 0x28 }
  - { offsetInCU: 0xA384, offset: 0x48CF5, size: 0x8, addend: 0x0, symName: __ZSt7forwardIRKNSt7__cxx1112basic_stringIcSt11char_traitsIcESaIcEEEEOT_RNSt16remove_referenceIS8_E4typeE, symObjAddr: 0xF8C, symBinAddr: 0x100016CE0, symSize: 0x14 }
  - { offsetInCU: 0xA38C, offset: 0x48CFD, size: 0x8, addend: 0x0, symName: __ZSt7forwardIRdEOT_RNSt16remove_referenceIS1_E4typeE, symObjAddr: 0xFA0, symBinAddr: 0x100016CF4, symSize: 0x14 }
  - { offsetInCU: 0xA33B, offset: 0x48CAC, size: 0x8, addend: 0x0, symName: __ZNK9__gnu_cxx17__normal_iteratorIPKSt10shared_ptrI8ParticleESt6vectorIS3_SaIS3_EEEdeEv, symObjAddr: 0xF58, symBinAddr: 0x100016CC8, symSize: 0x18 }
  - { offsetInCU: 0xA36A, offset: 0x48CDB, size: 0x8, addend: 0x0, symName: __ZN9__gnu_cxx17__normal_iteratorIPKSt10shared_ptrI8ParticleESt6vectorIS3_SaIS3_EEEppEv, symObjAddr: 0xF30, symBinAddr: 0x100016CA0, symSize: 0x28 }
  - { offsetInCU: 0xA372, offset: 0x48CE3, size: 0x8, addend: 0x0, symName: __ZNK9__gnu_cxx17__normal_iteratorIPKSt10shared_ptrI8ParticleESt6vectorIS3_SaIS3_EEEdeEv, symObjAddr: 0xF58, symBinAddr: 0x100016CC8, symSize: 0x18 }
  - { offsetInCU: 0xA45C, offset: 0x48DCD, size: 0x8, addend: 0x0, symName: __ZN9__gnu_cxxneIPKSt10shared_ptrI8ParticleESt6vectorIS3_SaIS3_EEEEbRKNS_17__normal_iteratorIT_T0_EESE_, symObjAddr: 0xEEC, symBinAddr: 0x100016C5C, symSize: 0x44 }
  - { offsetInCU: 0xA464, offset: 0x48DD5, size: 0x8, addend: 0x0, symName: __ZN9__gnu_cxx17__normal_iteratorIPKSt10shared_ptrI8ParticleESt6vectorIS3_SaIS3_EEEppEv, symObjAddr: 0xF30, symBinAddr: 0x100016CA0, symSize: 0x28 }
  - { offsetInCU: 0xA407, offset: 0x48D78, size: 0x8, addend: 0x0, symName: __ZNKSt6vectorISt10shared_ptrI8ParticleESaIS2_EE3endEv, symObjAddr: 0xEC4, symBinAddr: 0x100016C34, symSize: 0x28 }
  - { offsetInCU: 0xA40F, offset: 0x48D80, size: 0x8, addend: 0x0, symName: __ZN9__gnu_cxxneIPKSt10shared_ptrI8ParticleESt6vectorIS3_SaIS3_EEEEbRKNS_17__normal_iteratorIT_T0_EESE_, symObjAddr: 0xEEC, symBinAddr: 0x100016C5C, symSize: 0x44 }
  - { offsetInCU: 0xA436, offset: 0x48DA7, size: 0x8, addend: 0x0, symName: __ZNKSt6vectorISt10shared_ptrI8ParticleESaIS2_EE5beginEv, symObjAddr: 0xEA0, symBinAddr: 0x100016C10, symSize: 0x24 }
  - { offsetInCU: 0xA43E, offset: 0x48DAF, size: 0x8, addend: 0x0, symName: __ZNKSt6vectorISt10shared_ptrI8ParticleESaIS2_EE3endEv, symObjAddr: 0xEC4, symBinAddr: 0x100016C34, symSize: 0x28 }
  - { offsetInCU: 0xA465, offset: 0x48DD6, size: 0x8, addend: 0x0, symName: __ZNKSt6vectorISt10shared_ptrI8ParticleESaIS2_EE5emptyEv, symObjAddr: 0xE64, symBinAddr: 0x100016BD4, symSize: 0x3C }
  - { offsetInCU: 0xA46D, offset: 0x48DDE, size: 0x8, addend: 0x0, symName: __ZNKSt6vectorISt10shared_ptrI8ParticleESaIS2_EE5beginEv, symObjAddr: 0xEA0, symBinAddr: 0x100016C10, symSize: 0x24 }
  - { offsetInCU: 0xA494, offset: 0x48E05, size: 0x8, addend: 0x0, symName: __ZNK9__gnu_cxx17__normal_iteratorIPSt10shared_ptrI8ParticleESt6vectorIS3_SaIS3_EEEdeEv, symObjAddr: 0xE30, symBinAddr: 0x100016BBC, symSize: 0x18 }
  - { offsetInCU: 0xA4C3, offset: 0x48E34, size: 0x8, addend: 0x0, symName: __ZN9__gnu_cxx17__normal_iteratorIPSt10shared_ptrI8ParticleESt6vectorIS3_SaIS3_EEEppEv, symObjAddr: 0xE08, symBinAddr: 0x100016B94, symSize: 0x28 }
  - { offsetInCU: 0xA4CB, offset: 0x48E3C, size: 0x8, addend: 0x0, symName: __ZNK9__gnu_cxx17__normal_iteratorIPSt10shared_ptrI8ParticleESt6vectorIS3_SaIS3_EEEdeEv, symObjAddr: 0xE30, symBinAddr: 0x100016BBC, symSize: 0x18 }
  - { offsetInCU: 0xA5AE, offset: 0x48F1F, size: 0x8, addend: 0x0, symName: __ZN9__gnu_cxxneIPSt10shared_ptrI8ParticleESt6vectorIS3_SaIS3_EEEEbRKNS_17__normal_iteratorIT_T0_EESD_, symObjAddr: 0xDC4, symBinAddr: 0x100016B50, symSize: 0x44 }
  - { offsetInCU: 0xA5B6, offset: 0x48F27, size: 0x8, addend: 0x0, symName: __ZN9__gnu_cxx17__normal_iteratorIPSt10shared_ptrI8ParticleESt6vectorIS3_SaIS3_EEEppEv, symObjAddr: 0xE08, symBinAddr: 0x100016B94, symSize: 0x28 }
  - { offsetInCU: 0xA5C4, offset: 0x48F35, size: 0x8, addend: 0x0, symName: __ZNSt6vectorISt10shared_ptrI8ParticleESaIS2_EED1Ev, symObjAddr: 0xD28, symBinAddr: 0x100016B00, symSize: 0x50 }
  - { offsetInCU: 0xA620, offset: 0x48F91, size: 0x8, addend: 0x0, symName: __ZNSt12_Vector_baseISt10shared_ptrI8ParticleESaIS2_EED2Ev, symObjAddr: 0xCD8, symBinAddr: 0x100016AB0, symSize: 0x50 }
  - { offsetInCU: 0xA628, offset: 0x48F99, size: 0x8, addend: 0x0, symName: __ZNSt6vectorISt10shared_ptrI8ParticleESaIS2_EED1Ev, symObjAddr: 0xD28, symBinAddr: 0x100016B00, symSize: 0x50 }
  - { offsetInCU: 0xA660, offset: 0x48FD1, size: 0x8, addend: 0x0, symName: __ZNSaISt10shared_ptrI8ParticleEED2Ev, symObjAddr: 0xCB8, symBinAddr: 0x100016A90, symSize: 0x20 }
  - { offsetInCU: 0xA668, offset: 0x48FD9, size: 0x8, addend: 0x0, symName: __ZNSt12_Vector_baseISt10shared_ptrI8ParticleESaIS2_EED2Ev, symObjAddr: 0xCD8, symBinAddr: 0x100016AB0, symSize: 0x50 }
  - { offsetInCU: 0xA6CA, offset: 0x4903B, size: 0x8, addend: 0x0, symName: __ZNSt12_Vector_baseISt10shared_ptrI8ParticleESaIS2_EE12_Vector_implC1Ev, symObjAddr: 0xC90, symBinAddr: 0x100016A68, symSize: 0x28 }
  - { offsetInCU: 0xA6D2, offset: 0x49043, size: 0x8, addend: 0x0, symName: __ZNSaISt10shared_ptrI8ParticleEED2Ev, symObjAddr: 0xCB8, symBinAddr: 0x100016A90, symSize: 0x20 }
  - { offsetInCU: 0xA72A, offset: 0x4909B, size: 0x8, addend: 0x0, symName: __ZNSt10unique_ptrI13Four_momentumSt14default_deleteIS0_EED1Ev, symObjAddr: 0xC28, symBinAddr: 0x100016A00, symSize: 0x68 }
  - { offsetInCU: 0xA732, offset: 0x490A3, size: 0x8, addend: 0x0, symName: __ZNSt12_Vector_baseISt10shared_ptrI8ParticleESaIS2_EE12_Vector_implC1Ev, symObjAddr: 0xC90, symBinAddr: 0x100016A68, symSize: 0x28 }
  - { offsetInCU: 0xA882, offset: 0x491F3, size: 0x8, addend: 0x0, symName: __ZSt11make_uniqueI13Four_momentumJRKNSt7__cxx1112basic_stringIcSt11char_traitsIcESaIcEEERdS9_S9_S9_EENSt9_MakeUniqIT_E15__single_objectEDpOT0_, symObjAddr: 0xB50, symBinAddr: 0x100016928, symSize: 0xD8 }
  - { offsetInCU: 0xA88A, offset: 0x491FB, size: 0x8, addend: 0x0, symName: __ZNSt10unique_ptrI13Four_momentumSt14default_deleteIS0_EED1Ev, symObjAddr: 0xC28, symBinAddr: 0x100016A00, symSize: 0x68 }
  - { offsetInCU: 0xA806, offset: 0x49177, size: 0x8, addend: 0x0, symName: __ZNKSt10unique_ptrI13Four_momentumSt14default_deleteIS0_EEptEv, symObjAddr: 0xB34, symBinAddr: 0x10001690C, symSize: 0x1C }
  - { offsetInCU: 0xA80E, offset: 0x4917F, size: 0x8, addend: 0x0, symName: __ZSt11make_uniqueI13Four_momentumJRKNSt7__cxx1112basic_stringIcSt11char_traitsIcESaIcEEERdS9_S9_S9_EENSt9_MakeUniqIT_E15__single_objectEDpOT0_, symObjAddr: 0xB50, symBinAddr: 0x100016928, symSize: 0xD8 }
  - { offsetInCU: 0xA835, offset: 0x491A6, size: 0x8, addend: 0x0, symName: __ZNSt6vectorIdSaIdEEixEm, symObjAddr: 0xB0C, symBinAddr: 0x1000168E4, symSize: 0x28 }
  - { offsetInCU: 0xA83D, offset: 0x491AE, size: 0x8, addend: 0x0, symName: __ZNKSt10unique_ptrI13Four_momentumSt14default_deleteIS0_EEptEv, symObjAddr: 0xB34, symBinAddr: 0x10001690C, symSize: 0x1C }
  - { offsetInCU: 0xA878, offset: 0x491E9, size: 0x8, addend: 0x0, symName: __ZNK8Particle20print_decay_productsEv, symObjAddr: 0x8BC, symBinAddr: 0x100016694, symSize: 0x250 }
  - { offsetInCU: 0xA880, offset: 0x491F1, size: 0x8, addend: 0x0, symName: __ZNSt6vectorIdSaIdEEixEm, symObjAddr: 0xB0C, symBinAddr: 0x1000168E4, symSize: 0x28 }
  - { offsetInCU: 0xA904, offset: 0x49275, size: 0x8, addend: 0x0, symName: __ZN8Particle23validate_decay_productsEv, symObjAddr: 0x760, symBinAddr: 0x100016538, symSize: 0x15C }
  - { offsetInCU: 0xA90C, offset: 0x4927D, size: 0x8, addend: 0x0, symName: __ZNK8Particle20print_decay_productsEv, symObjAddr: 0x8BC, symBinAddr: 0x100016694, symSize: 0x250 }
  - { offsetInCU: 0xA9A4, offset: 0x49315, size: 0x8, addend: 0x0, symName: __ZNK8Particle15print_core_dataEv, symObjAddr: 0x658, symBinAddr: 0x100016430, symSize: 0x108 }
  - { offsetInCU: 0xA9AC, offset: 0x4931D, size: 0x8, addend: 0x0, symName: __ZN8Particle23validate_decay_productsEv, symObjAddr: 0x760, symBinAddr: 0x100016538, symSize: 0x15C }
  - { offsetInCU: 0xAAC1, offset: 0x49432, size: 0x8, addend: 0x0, symName: __ZN8ParticleC1ERKNSt7__cxx1112basic_stringIcSt11char_traitsIcESaIcEEEddddbdd, symObjAddr: 0x500, symBinAddr: 0x1000162D8, symSize: 0x158 }
  - { offsetInCU: 0xAAC9, offset: 0x4943A, size: 0x8, addend: 0x0, symName: __ZNK8Particle15print_core_dataEv, symObjAddr: 0x658, symBinAddr: 0x100016430, symSize: 0x108 }
  - { offsetInCU: 0xAB50, offset: 0x494C1, size: 0x8, addend: 0x0, symName: __ZN8ParticleC2ERKNSt7__cxx1112basic_stringIcSt11char_traitsIcESaIcEEEddddbdd, symObjAddr: 0x3A8, symBinAddr: 0x100016180, symSize: 0x158 }
  - { offsetInCU: 0xAB58, offset: 0x494C9, size: 0x8, addend: 0x0, symName: __ZN8ParticleC1ERKNSt7__cxx1112basic_stringIcSt11char_traitsIcESaIcEEEddddbdd, symObjAddr: 0x500, symBinAddr: 0x1000162D8, symSize: 0x158 }
  - { offsetInCU: 0xABDE, offset: 0x4954F, size: 0x8, addend: 0x0, symName: __ZNSt6vectorISt10shared_ptrI8ParticleESaIS2_EEC1Ev, symObjAddr: 0x388, symBinAddr: 0x100016160, symSize: 0x20 }
  - { offsetInCU: 0xABE6, offset: 0x49557, size: 0x8, addend: 0x0, symName: __ZN8ParticleC2ERKNSt7__cxx1112basic_stringIcSt11char_traitsIcESaIcEEEddddbdd, symObjAddr: 0x3A8, symBinAddr: 0x100016180, symSize: 0x158 }
  - { offsetInCU: 0xAC2C, offset: 0x4959D, size: 0x8, addend: 0x0, symName: __ZNSt12_Vector_baseISt10shared_ptrI8ParticleESaIS2_EEC2Ev, symObjAddr: 0x368, symBinAddr: 0x100016140, symSize: 0x20 }
  - { offsetInCU: 0xAC34, offset: 0x495A5, size: 0x8, addend: 0x0, symName: __ZNSt6vectorISt10shared_ptrI8ParticleESaIS2_EEC1Ev, symObjAddr: 0x388, symBinAddr: 0x100016160, symSize: 0x20 }
  - { offsetInCU: 0xAC93, offset: 0x49604, size: 0x8, addend: 0x0, symName: __ZNSt12_Vector_baseISt10shared_ptrI8ParticleESaIS2_EE12_Vector_implD1Ev, symObjAddr: 0x348, symBinAddr: 0x100016120, symSize: 0x20 }
  - { offsetInCU: 0xAC9B, offset: 0x4960C, size: 0x8, addend: 0x0, symName: __ZNSt12_Vector_baseISt10shared_ptrI8ParticleESaIS2_EEC2Ev, symObjAddr: 0x368, symBinAddr: 0x100016140, symSize: 0x20 }
  - { offsetInCU: 0xAC79, offset: 0x495EA, size: 0x8, addend: 0x0, symName: __ZN8Particle22check_mass_consistencyEv, symObjAddr: 0x320, symBinAddr: 0x1000160F8, symSize: 0x28 }
  - { offsetInCU: 0xAC81, offset: 0x495F2, size: 0x8, addend: 0x0, symName: __ZNSt12_Vector_baseISt10shared_ptrI8ParticleESaIS2_EE12_Vector_implD1Ev, symObjAddr: 0x348, symBinAddr: 0x100016120, symSize: 0x20 }
  - { offsetInCU: 0xACA8, offset: 0x49619, size: 0x8, addend: 0x0, symName: __ZN8Particle17set_four_momentumERKNSt7__cxx1112basic_stringIcSt11char_traitsIcESaIcEEEdddd, symObjAddr: 0x2A4, symBinAddr: 0x10001607C, symSize: 0x7C }
  - { offsetInCU: 0xACB0, offset: 0x49621, size: 0x8, addend: 0x0, symName: __ZN8Particle22check_mass_consistencyEv, symObjAddr: 0x320, symBinAddr: 0x1000160F8, symSize: 0x28 }
  - { offsetInCU: 0xAD36, offset: 0x496A7, size: 0x8, addend: 0x0, symName: __ZNK8Particle14get_tau_numberEv, symObjAddr: 0x290, symBinAddr: 0x100016068, symSize: 0x14 }
  - { offsetInCU: 0xAD3E, offset: 0x496AF, size: 0x8, addend: 0x0, symName: __ZN8Particle17set_four_momentumERKNSt7__cxx1112basic_stringIcSt11char_traitsIcESaIcEEEdddd, symObjAddr: 0x2A4, symBinAddr: 0x10001607C, symSize: 0x7C }
  - { offsetInCU: 0xAD65, offset: 0x496D6, size: 0x8, addend: 0x0, symName: __ZNK8Particle15get_muon_numberEv, symObjAddr: 0x27C, symBinAddr: 0x100016054, symSize: 0x14 }
  - { offsetInCU: 0xAD6D, offset: 0x496DE, size: 0x8, addend: 0x0, symName: __ZNK8Particle14get_tau_numberEv, symObjAddr: 0x290, symBinAddr: 0x100016068, symSize: 0x14 }
  - { offsetInCU: 0xAD94, offset: 0x49705, size: 0x8, addend: 0x0, symName: __ZNK8Particle19get_electron_numberEv, symObjAddr: 0x268, symBinAddr: 0x100016040, symSize: 0x14 }
  - { offsetInCU: 0xAD9C, offset: 0x4970D, size: 0x8, addend: 0x0, symName: __ZNK8Particle15get_muon_numberEv, symObjAddr: 0x27C, symBinAddr: 0x100016054, symSize: 0x14 }
  - { offsetInCU: 0xADC3, offset: 0x49734, size: 0x8, addend: 0x0, symName: __ZNK8Particle10get_chargeEv, symObjAddr: 0x250, symBinAddr: 0x100016028, symSize: 0x18 }
  - { offsetInCU: 0xADCB, offset: 0x4973C, size: 0x8, addend: 0x0, symName: __ZNK8Particle19get_electron_numberEv, symObjAddr: 0x268, symBinAddr: 0x100016040, symSize: 0x14 }
  - { offsetInCU: 0xADF2, offset: 0x49763, size: 0x8, addend: 0x0, symName: __ZN13Four_momentum5setpzEd, symObjAddr: 0x218, symBinAddr: 0x100015FF0, symSize: 0x38 }
  - { offsetInCU: 0xADFA, offset: 0x4976B, size: 0x8, addend: 0x0, symName: __ZNK8Particle10get_chargeEv, symObjAddr: 0x250, symBinAddr: 0x100016028, symSize: 0x18 }
  - { offsetInCU: 0xAE34, offset: 0x497A5, size: 0x8, addend: 0x0, symName: __ZN13Four_momentum5setpyEd, symObjAddr: 0x1E0, symBinAddr: 0x100015FB8, symSize: 0x38 }
  - { offsetInCU: 0xAE3C, offset: 0x497AD, size: 0x8, addend: 0x0, symName: __ZN13Four_momentum5setpzEd, symObjAddr: 0x218, symBinAddr: 0x100015FF0, symSize: 0x38 }
  - { offsetInCU: 0xAE76, offset: 0x497E7, size: 0x8, addend: 0x0, symName: __ZN13Four_momentum5setpxEd, symObjAddr: 0x1A8, symBinAddr: 0x100015F80, symSize: 0x38 }
  - { offsetInCU: 0xAE7E, offset: 0x497EF, size: 0x8, addend: 0x0, symName: __ZN13Four_momentum5setpyEd, symObjAddr: 0x1E0, symBinAddr: 0x100015FB8, symSize: 0x38 }
  - { offsetInCU: 0xAEDD, offset: 0x4984E, size: 0x8, addend: 0x0, symName: __ZSt12setprecisioni, symObjAddr: 0x180, symBinAddr: 0x100015F6C, symSize: 0x14 }
  - { offsetInCU: 0xAF18, offset: 0x49889, size: 0x8, addend: 0x0, symName: __ZSt5fixedRSt8ios_base, symObjAddr: 0x158, symBinAddr: 0x100015F44, symSize: 0x28 }
  - { offsetInCU: 0xAF20, offset: 0x49891, size: 0x8, addend: 0x0, symName: __ZSt12setprecisioni, symObjAddr: 0x180, symBinAddr: 0x100015F6C, symSize: 0x14 }
  - { offsetInCU: 0xAF58, offset: 0x498C9, size: 0x8, addend: 0x0, symName: __ZL18__gthread_active_pv, symObjAddr: 0x0, symBinAddr: 0x100015F3C, symSize: 0x8 }
  - { offsetInCU: 0xD7, offset: 0x499AF, size: 0x8, addend: 0x0, symName: __Z41__static_initialization_and_destruction_0ii, symObjAddr: 0x0, symBinAddr: 0x1000171D8, symSize: 0x60 }
  - { offsetInCU: 0xDF, offset: 0x499B7, size: 0x8, addend: 0x0, symName: __ZN9__gnu_cxxL21__default_lock_policyE, symObjAddr: 0x7C, symBinAddr: 0x100027188, symSize: 0x0 }
  - { offsetInCU: 0x2337, offset: 0x4BC0F, size: 0x8, addend: 0x0, symName: __ZStL8__ioinit, symObjAddr: 0x23FA0, symBinAddr: 0x1000410B2, symSize: 0x0 }
  - { offsetInCU: 0x25B5, offset: 0x4BE8D, size: 0x8, addend: 0x0, symName: __ZN9__gnu_cxxL21__default_lock_policyE, symObjAddr: 0x7C, symBinAddr: 0x100027188, symSize: 0x0 }
  - { offsetInCU: 0x261D, offset: 0x4BEF5, size: 0x8, addend: 0x0, symName: __ZN6__pstl9execution2v1L3seqE, symObjAddr: 0x80, symBinAddr: 0x10002718C, symSize: 0x0 }
  - { offsetInCU: 0x2637, offset: 0x4BF0F, size: 0x8, addend: 0x0, symName: __ZN6__pstl9execution2v1L3parE, symObjAddr: 0x81, symBinAddr: 0x10002718D, symSize: 0x0 }
  - { offsetInCU: 0x2657, offset: 0x4BF2F, size: 0x8, addend: 0x0, symName: __ZN6__pstl9execution2v1L9par_unseqE, symObjAddr: 0x82, symBinAddr: 0x10002718E, symSize: 0x0 }
  - { offsetInCU: 0x266D, offset: 0x4BF45, size: 0x8, addend: 0x0, symName: __ZN6__pstl9execution2v1L5unseqE, symObjAddr: 0x83, symBinAddr: 0x10002718F, symSize: 0x0 }
  - { offsetInCU: 0x29E3, offset: 0x4C2BB, size: 0x8, addend: 0x0, symName: __GLOBAL__sub_I_boson.cpp, symObjAddr: 0x60, symBinAddr: 0x100017238, symSize: 0x1C }
  - { offsetInCU: 0x29EB, offset: 0x4C2C3, size: 0x8, addend: 0x0, symName: __ZN9__gnu_cxxL21__default_lock_policyE, symObjAddr: 0x7C, symBinAddr: 0x100027188, symSize: 0x0 }
  - { offsetInCU: 0x2A0E, offset: 0x4C2E6, size: 0x8, addend: 0x0, symName: __Z41__static_initialization_and_destruction_0ii, symObjAddr: 0x0, symBinAddr: 0x1000171D8, symSize: 0x60 }
  - { offsetInCU: 0x2A16, offset: 0x4C2EE, size: 0x8, addend: 0x0, symName: __GLOBAL__sub_I_boson.cpp, symObjAddr: 0x60, symBinAddr: 0x100017238, symSize: 0x1C }
  - { offsetInCU: 0xD9, offset: 0x4C3D5, size: 0x8, addend: 0x0, symName: __ZNK6Lepton19get_electron_numberEv, symObjAddr: 0x0, symBinAddr: 0x100017254, symSize: 0x14 }
  - { offsetInCU: 0xE1, offset: 0x4C3DD, size: 0x8, addend: 0x0, symName: __ZN9__gnu_cxxL21__default_lock_policyE, symObjAddr: 0x590, symBinAddr: 0x100027190, symSize: 0x0 }
  - { offsetInCU: 0x507D, offset: 0x51379, size: 0x8, addend: 0x0, symName: __ZStL8__ioinit, symObjAddr: 0x39C68, symBinAddr: 0x1000410B3, symSize: 0x0 }
  - { offsetInCU: 0x52FB, offset: 0x515F7, size: 0x8, addend: 0x0, symName: __ZN9__gnu_cxxL21__default_lock_policyE, symObjAddr: 0x590, symBinAddr: 0x100027190, symSize: 0x0 }
  - { offsetInCU: 0x5363, offset: 0x5165F, size: 0x8, addend: 0x0, symName: __ZN6__pstl9execution2v1L3seqE, symObjAddr: 0x594, symBinAddr: 0x100027194, symSize: 0x0 }
  - { offsetInCU: 0x537D, offset: 0x51679, size: 0x8, addend: 0x0, symName: __ZN6__pstl9execution2v1L3parE, symObjAddr: 0x595, symBinAddr: 0x100027195, symSize: 0x0 }
  - { offsetInCU: 0x539D, offset: 0x51699, size: 0x8, addend: 0x0, symName: __ZN6__pstl9execution2v1L9par_unseqE, symObjAddr: 0x596, symBinAddr: 0x100027196, symSize: 0x0 }
  - { offsetInCU: 0x53B3, offset: 0x516AF, size: 0x8, addend: 0x0, symName: __ZN6__pstl9execution2v1L5unseqE, symObjAddr: 0x597, symBinAddr: 0x100027197, symSize: 0x0 }
  - { offsetInCU: 0x8AE9, offset: 0x54DE5, size: 0x8, addend: 0x0, symName: __GLOBAL__sub_I_lepton.cpp, symObjAddr: 0x574, symBinAddr: 0x1000176A4, symSize: 0x1C }
  - { offsetInCU: 0x8AF1, offset: 0x54DED, size: 0x8, addend: 0x0, symName: __ZN9__gnu_cxxL21__default_lock_policyE, symObjAddr: 0x590, symBinAddr: 0x100027190, symSize: 0x0 }
  - { offsetInCU: 0x8B13, offset: 0x54E0F, size: 0x8, addend: 0x0, symName: __Z41__static_initialization_and_destruction_0ii, symObjAddr: 0x514, symBinAddr: 0x100017644, symSize: 0x60 }
  - { offsetInCU: 0x8B1B, offset: 0x54E17, size: 0x8, addend: 0x0, symName: __GLOBAL__sub_I_lepton.cpp, symObjAddr: 0x574, symBinAddr: 0x1000176A4, symSize: 0x1C }
  - { offsetInCU: 0x8B2C, offset: 0x54E28, size: 0x8, addend: 0x0, symName: __ZN6Lepton23validate_decay_productsEv, symObjAddr: 0x17C, symBinAddr: 0x1000173D0, symSize: 0x274 }
  - { offsetInCU: 0x8D18, offset: 0x55014, size: 0x8, addend: 0x0, symName: __ZN6LeptonC1ERKNSt7__cxx1112basic_stringIcSt11char_traitsIcESaIcEEEddddbdd, symObjAddr: 0xDC, symBinAddr: 0x100017330, symSize: 0xA0 }
  - { offsetInCU: 0x8D20, offset: 0x5501C, size: 0x8, addend: 0x0, symName: __ZN6Lepton23validate_decay_productsEv, symObjAddr: 0x17C, symBinAddr: 0x1000173D0, symSize: 0x274 }
  - { offsetInCU: 0x8DA7, offset: 0x550A3, size: 0x8, addend: 0x0, symName: __ZN6LeptonC2ERKNSt7__cxx1112basic_stringIcSt11char_traitsIcESaIcEEEddddbdd, symObjAddr: 0x3C, symBinAddr: 0x100017290, symSize: 0xA0 }
  - { offsetInCU: 0x8DAF, offset: 0x550AB, size: 0x8, addend: 0x0, symName: __ZN6LeptonC1ERKNSt7__cxx1112basic_stringIcSt11char_traitsIcESaIcEEEddddbdd, symObjAddr: 0xDC, symBinAddr: 0x100017330, symSize: 0xA0 }
  - { offsetInCU: 0x8DEB, offset: 0x550E7, size: 0x8, addend: 0x0, symName: __ZNK6Lepton14get_tau_numberEv, symObjAddr: 0x28, symBinAddr: 0x10001727C, symSize: 0x14 }
  - { offsetInCU: 0x8DF3, offset: 0x550EF, size: 0x8, addend: 0x0, symName: __ZN6LeptonC2ERKNSt7__cxx1112basic_stringIcSt11char_traitsIcESaIcEEEddddbdd, symObjAddr: 0x3C, symBinAddr: 0x100017290, symSize: 0xA0 }
  - { offsetInCU: 0x8E1A, offset: 0x55116, size: 0x8, addend: 0x0, symName: __ZNK6Lepton15get_muon_numberEv, symObjAddr: 0x14, symBinAddr: 0x100017268, symSize: 0x14 }
  - { offsetInCU: 0x8E22, offset: 0x5511E, size: 0x8, addend: 0x0, symName: __ZNK6Lepton14get_tau_numberEv, symObjAddr: 0x28, symBinAddr: 0x10001727C, symSize: 0x14 }
  - { offsetInCU: 0x8E49, offset: 0x55145, size: 0x8, addend: 0x0, symName: __ZNK6Lepton19get_electron_numberEv, symObjAddr: 0x0, symBinAddr: 0x100017254, symSize: 0x14 }
  - { offsetInCU: 0x8E51, offset: 0x5514D, size: 0x8, addend: 0x0, symName: __ZNK6Lepton15get_muon_numberEv, symObjAddr: 0x14, symBinAddr: 0x100017268, symSize: 0x14 }
  - { offsetInCU: 0xD8, offset: 0x55248, size: 0x8, addend: 0x0, symName: __ZNSt11char_traitsIcE6lengthEPKc, symObjAddr: 0x0, symBinAddr: 0x1000176C0, symSize: 0x40 }
  - { offsetInCU: 0x571B, offset: 0x5A88B, size: 0x8, addend: 0x0, symName: __ZStL8__ioinit, symObjAddr: 0x438D8, symBinAddr: 0x1000410B4, symSize: 0x0 }
  - { offsetInCU: 0x59ED, offset: 0x5AB5D, size: 0x8, addend: 0x0, symName: __ZN9__gnu_cxxL21__default_lock_policyE, symObjAddr: 0x1830, symBinAddr: 0x1000271A0, symSize: 0x0 }
  - { offsetInCU: 0x5A55, offset: 0x5ABC5, size: 0x8, addend: 0x0, symName: __ZN6__pstl9execution2v1L3seqE, symObjAddr: 0x1834, symBinAddr: 0x1000271A4, symSize: 0x0 }
  - { offsetInCU: 0x5A6F, offset: 0x5ABDF, size: 0x8, addend: 0x0, symName: __ZN6__pstl9execution2v1L3parE, symObjAddr: 0x1835, symBinAddr: 0x1000271A5, symSize: 0x0 }
  - { offsetInCU: 0x5A8F, offset: 0x5ABFF, size: 0x8, addend: 0x0, symName: __ZN6__pstl9execution2v1L9par_unseqE, symObjAddr: 0x1836, symBinAddr: 0x1000271A6, symSize: 0x0 }
  - { offsetInCU: 0x5AA5, offset: 0x5AC15, size: 0x8, addend: 0x0, symName: __ZN6__pstl9execution2v1L5unseqE, symObjAddr: 0x1837, symBinAddr: 0x1000271A7, symSize: 0x0 }
  - { offsetInCU: 0x93FA, offset: 0x5E56A, size: 0x8, addend: 0x0, symName: __GLOBAL__sub_I_quark.cpp, symObjAddr: 0x1810, symBinAddr: 0x1000184BC, symSize: 0x1C }
  - { offsetInCU: 0x9425, offset: 0x5E595, size: 0x8, addend: 0x0, symName: __Z41__static_initialization_and_destruction_0ii, symObjAddr: 0x17B0, symBinAddr: 0x10001845C, symSize: 0x60 }
  - { offsetInCU: 0x942D, offset: 0x5E59D, size: 0x8, addend: 0x0, symName: __GLOBAL__sub_I_quark.cpp, symObjAddr: 0x1810, symBinAddr: 0x1000184BC, symSize: 0x1C }
  - { offsetInCU: 0x9473, offset: 0x5E5E3, size: 0x8, addend: 0x0, symName: __ZN5QuarkD0Ev, symObjAddr: 0x1788, symBinAddr: 0x100018434, symSize: 0x28 }
  - { offsetInCU: 0x947B, offset: 0x5E5EB, size: 0x8, addend: 0x0, symName: __Z41__static_initialization_and_destruction_0ii, symObjAddr: 0x17B0, symBinAddr: 0x10001845C, symSize: 0x60 }
  - { offsetInCU: 0x94A1, offset: 0x5E611, size: 0x8, addend: 0x0, symName: __ZN5QuarkD1Ev, symObjAddr: 0x1758, symBinAddr: 0x100018404, symSize: 0x30 }
  - { offsetInCU: 0x94A9, offset: 0x5E619, size: 0x8, addend: 0x0, symName: __ZN5QuarkD0Ev, symObjAddr: 0x1788, symBinAddr: 0x100018434, symSize: 0x28 }
  - { offsetInCU: 0x9541, offset: 0x5E6B1, size: 0x8, addend: 0x0, symName: __ZSt10__distanceIPKcENSt15iterator_traitsIT_E15difference_typeES3_S3_St26random_access_iterator_tag, symObjAddr: 0x1250, symBinAddr: 0x1000183E0, symSize: 0x24 }
  - { offsetInCU: 0x95A0, offset: 0x5E710, size: 0x8, addend: 0x0, symName: __ZSt19__iterator_categoryIPKcENSt15iterator_traitsIT_E17iterator_categoryERKS3_, symObjAddr: 0x123C, symBinAddr: 0x1000183CC, symSize: 0x14 }
  - { offsetInCU: 0x95A8, offset: 0x5E718, size: 0x8, addend: 0x0, symName: __ZSt10__distanceIPKcENSt15iterator_traitsIT_E15difference_typeES3_S3_St26random_access_iterator_tag, symObjAddr: 0x1250, symBinAddr: 0x1000183E0, symSize: 0x24 }
  - { offsetInCU: 0x95BB, offset: 0x5E72B, size: 0x8, addend: 0x0, symName: __ZN9__gnu_cxx17__is_null_pointerIKcEEbPT_, symObjAddr: 0x121C, symBinAddr: 0x1000183AC, symSize: 0x20 }
  - { offsetInCU: 0x95C3, offset: 0x5E733, size: 0x8, addend: 0x0, symName: __ZSt19__iterator_categoryIPKcENSt15iterator_traitsIT_E17iterator_categoryERKS3_, symObjAddr: 0x123C, symBinAddr: 0x1000183CC, symSize: 0x14 }
  - { offsetInCU: 0x95BA, offset: 0x5E72A, size: 0x8, addend: 0x0, symName: __ZNSt7__cxx1112basic_stringIcSt11char_traitsIcESaIcEE12_M_constructIPKcEEvT_S8_St20forward_iterator_tag, symObjAddr: 0xF84, symBinAddr: 0x1000182AC, symSize: 0x100 }
  - { offsetInCU: 0x9698, offset: 0x5E808, size: 0x8, addend: 0x0, symName: __ZSt8distanceIPKcENSt15iterator_traitsIT_E15difference_typeES3_S3_, symObjAddr: 0xF48, symBinAddr: 0x100018270, symSize: 0x3C }
  - { offsetInCU: 0x96A0, offset: 0x5E810, size: 0x8, addend: 0x0, symName: __ZNSt7__cxx1112basic_stringIcSt11char_traitsIcESaIcEE12_M_constructIPKcEEvT_S8_St20forward_iterator_tag, symObjAddr: 0xF84, symBinAddr: 0x1000182AC, symSize: 0x100 }
  - { offsetInCU: 0x972A, offset: 0x5E89A, size: 0x8, addend: 0x0, symName: __ZSt4moveIRNSt7__cxx1112basic_stringIcSt11char_traitsIcESaIcEEEEONSt16remove_referenceIT_E4typeEOS8_, symObjAddr: 0xF34, symBinAddr: 0x10001825C, symSize: 0x14 }
  - { offsetInCU: 0x9732, offset: 0x5E8A2, size: 0x8, addend: 0x0, symName: __ZSt8distanceIPKcENSt15iterator_traitsIT_E15difference_typeES3_S3_, symObjAddr: 0xF48, symBinAddr: 0x100018270, symSize: 0x3C }
  - { offsetInCU: 0x9780, offset: 0x5E8F0, size: 0x8, addend: 0x0, symName: __ZStplIcSt11char_traitsIcESaIcEENSt7__cxx1112basic_stringIT_T0_T1_EEOS8_PKS5_, symObjAddr: 0xE08, symBinAddr: 0x100018218, symSize: 0x44 }
  - { offsetInCU: 0x97FF, offset: 0x5E96F, size: 0x8, addend: 0x0, symName: __ZNSt7__cxx1112basic_stringIcSt11char_traitsIcESaIcEEC1IS3_EEPKcRKS3_, symObjAddr: 0xC9C, symBinAddr: 0x100018180, symSize: 0x98 }
  - { offsetInCU: 0x98AF, offset: 0x5EA1F, size: 0x8, addend: 0x0, symName: __ZNSt7__cxx1112basic_stringIcSt11char_traitsIcESaIcEE12_Alloc_hiderD1Ev, symObjAddr: 0xC7C, symBinAddr: 0x100018160, symSize: 0x20 }
  - { offsetInCU: 0x98B7, offset: 0x5EA27, size: 0x8, addend: 0x0, symName: __ZNSt7__cxx1112basic_stringIcSt11char_traitsIcESaIcEEC1IS3_EEPKcRKS3_, symObjAddr: 0xC9C, symBinAddr: 0x100018180, symSize: 0x98 }
  - { offsetInCU: 0x9895, offset: 0x5EA05, size: 0x8, addend: 0x0, symName: __ZN9__gnu_cxx11char_traitsIcE6lengthEPKc, symObjAddr: 0xC24, symBinAddr: 0x100018108, symSize: 0x58 }
  - { offsetInCU: 0x989D, offset: 0x5EA0D, size: 0x8, addend: 0x0, symName: __ZNSt7__cxx1112basic_stringIcSt11char_traitsIcESaIcEE12_Alloc_hiderD1Ev, symObjAddr: 0xC7C, symBinAddr: 0x100018160, symSize: 0x20 }
  - { offsetInCU: 0x98D9, offset: 0x5EA49, size: 0x8, addend: 0x0, symName: __ZN9__gnu_cxx11char_traitsIcE2eqERKcS3_, symObjAddr: 0xBF4, symBinAddr: 0x1000180D8, symSize: 0x30 }
  - { offsetInCU: 0x98E1, offset: 0x5EA51, size: 0x8, addend: 0x0, symName: __ZN9__gnu_cxx11char_traitsIcE6lengthEPKc, symObjAddr: 0xC24, symBinAddr: 0x100018108, symSize: 0x58 }
  - { offsetInCU: 0x991D, offset: 0x5EA8D, size: 0x8, addend: 0x0, symName: __ZN5Quark23validate_decay_productsEv, symObjAddr: 0xA60, symBinAddr: 0x100017F44, symSize: 0x194 }
  - { offsetInCU: 0x9925, offset: 0x5EA95, size: 0x8, addend: 0x0, symName: __ZN9__gnu_cxx11char_traitsIcE2eqERKcS3_, symObjAddr: 0xBF4, symBinAddr: 0x1000180D8, symSize: 0x30 }
  - { offsetInCU: 0x99E4, offset: 0x5EB54, size: 0x8, addend: 0x0, symName: __ZNK5Quark14enum_to_stringB5cxx11E13Quark_flavour, symObjAddr: 0x7FC, symBinAddr: 0x100017CE0, symSize: 0x264 }
  - { offsetInCU: 0x99EC, offset: 0x5EB5C, size: 0x8, addend: 0x0, symName: __ZN5Quark23validate_decay_productsEv, symObjAddr: 0xA60, symBinAddr: 0x100017F44, symSize: 0x194 }
  - { offsetInCU: 0x9A28, offset: 0x5EB98, size: 0x8, addend: 0x0, symName: __ZNK5Quark8get_nameB5cxx11Ev, symObjAddr: 0x764, symBinAddr: 0x100017C48, symSize: 0x98 }
  - { offsetInCU: 0x9A30, offset: 0x5EBA0, size: 0x8, addend: 0x0, symName: __ZNK5Quark14enum_to_stringB5cxx11E13Quark_flavour, symObjAddr: 0x7FC, symBinAddr: 0x100017CE0, symSize: 0x264 }
  - { offsetInCU: 0x9A6A, offset: 0x5EBDA, size: 0x8, addend: 0x0, symName: __ZNK5Quark19print_baryon_numberEv, symObjAddr: 0x6F8, symBinAddr: 0x100017BDC, symSize: 0x6C }
  - { offsetInCU: 0x9A72, offset: 0x5EBE2, size: 0x8, addend: 0x0, symName: __ZNK5Quark8get_nameB5cxx11Ev, symObjAddr: 0x764, symBinAddr: 0x100017C48, symSize: 0x98 }
  - { offsetInCU: 0x9A99, offset: 0x5EC09, size: 0x8, addend: 0x0, symName: __ZNK5Quark10print_dataEv, symObjAddr: 0x618, symBinAddr: 0x100017AFC, symSize: 0xE0 }
  - { offsetInCU: 0x9AA1, offset: 0x5EC11, size: 0x8, addend: 0x0, symName: __ZNK5Quark19print_baryon_numberEv, symObjAddr: 0x6F8, symBinAddr: 0x100017BDC, symSize: 0x6C }
  - { offsetInCU: 0x9AC8, offset: 0x5EC38, size: 0x8, addend: 0x0, symName: __ZN5Quark10set_chargeE13Quark_flavourb, symObjAddr: 0x57C, symBinAddr: 0x100017A60, symSize: 0x9C }
  - { offsetInCU: 0x9AD0, offset: 0x5EC40, size: 0x8, addend: 0x0, symName: __ZNK5Quark10print_dataEv, symObjAddr: 0x618, symBinAddr: 0x100017AFC, symSize: 0xE0 }
  - { offsetInCU: 0x9BEF, offset: 0x5ED5F, size: 0x8, addend: 0x0, symName: __ZN5QuarkC1Eddddb13Quark_flavour11Colour_listd, symObjAddr: 0x45C, symBinAddr: 0x100017940, symSize: 0x120 }
  - { offsetInCU: 0x9BF7, offset: 0x5ED67, size: 0x8, addend: 0x0, symName: __ZN5Quark10set_chargeE13Quark_flavourb, symObjAddr: 0x57C, symBinAddr: 0x100017A60, symSize: 0x9C }
  - { offsetInCU: 0x9C82, offset: 0x5EDF2, size: 0x8, addend: 0x0, symName: __ZN5QuarkC2Eddddb13Quark_flavour11Colour_listd, symObjAddr: 0x33C, symBinAddr: 0x100017820, symSize: 0x120 }
  - { offsetInCU: 0x9C8A, offset: 0x5EDFA, size: 0x8, addend: 0x0, symName: __ZN5QuarkC1Eddddb13Quark_flavour11Colour_listd, symObjAddr: 0x45C, symBinAddr: 0x100017940, symSize: 0x120 }
  - { offsetInCU: 0x9D1E, offset: 0x5EE8E, size: 0x8, addend: 0x0, symName: __ZN8ParticleD2Ev, symObjAddr: 0x2EC, symBinAddr: 0x1000177D0, symSize: 0x50 }
  - { offsetInCU: 0x9D26, offset: 0x5EE96, size: 0x8, addend: 0x0, symName: __ZN5QuarkC2Eddddb13Quark_flavour11Colour_listd, symObjAddr: 0x33C, symBinAddr: 0x100017820, symSize: 0x120 }
  - { offsetInCU: 0x9D3B, offset: 0x5EEAB, size: 0x8, addend: 0x0, symName: __ZNK5Quark17get_baryon_numberEv, symObjAddr: 0x2D0, symBinAddr: 0x1000177B4, symSize: 0x1C }
  - { offsetInCU: 0x9D43, offset: 0x5EEB3, size: 0x8, addend: 0x0, symName: __ZN8ParticleD2Ev, symObjAddr: 0x2EC, symBinAddr: 0x1000177D0, symSize: 0x50 }
  - { offsetInCU: 0x9D6A, offset: 0x5EEDA, size: 0x8, addend: 0x0, symName: __ZNK13Colour_charge12print_colourEv, symObjAddr: 0x1AC, symBinAddr: 0x100017708, symSize: 0xAC }
  - { offsetInCU: 0x9DB1, offset: 0x5EF21, size: 0x8, addend: 0x0, symName: __ZL18__gthread_active_pv, symObjAddr: 0x40, symBinAddr: 0x100017700, symSize: 0x8 }
  - { offsetInCU: 0x9DBE, offset: 0x5EF2E, size: 0x8, addend: 0x0, symName: __ZNSt11char_traitsIcE6lengthEPKc, symObjAddr: 0x0, symBinAddr: 0x1000176C0, symSize: 0x40 }
  - { offsetInCU: 0x9DC6, offset: 0x5EF36, size: 0x8, addend: 0x0, symName: __ZL18__gthread_active_pv, symObjAddr: 0x40, symBinAddr: 0x100017700, symSize: 0x8 }
  - { offsetInCU: 0xEA, offset: 0x5F0A4, size: 0x8, addend: 0x0, symName: __ZN9__gnu_cxxL21__default_lock_policyE, symObjAddr: 0xE58, symBinAddr: 0x1000271C0, symSize: 0x0 }
  - { offsetInCU: 0x236E, offset: 0x61328, size: 0x8, addend: 0x0, symName: __ZStL8__ioinit, symObjAddr: 0x308C8, symBinAddr: 0x1000410B5, symSize: 0x0 }
  - { offsetInCU: 0x25EC, offset: 0x615A6, size: 0x8, addend: 0x0, symName: __ZN9__gnu_cxxL21__default_lock_policyE, symObjAddr: 0xE58, symBinAddr: 0x1000271C0, symSize: 0x0 }
  - { offsetInCU: 0x2654, offset: 0x6160E, size: 0x8, addend: 0x0, symName: __ZN6__pstl9execution2v1L3seqE, symObjAddr: 0xE5C, symBinAddr: 0x1000271C4, symSize: 0x0 }
  - { offsetInCU: 0x266E, offset: 0x61628, size: 0x8, addend: 0x0, symName: __ZN6__pstl9execution2v1L3parE, symObjAddr: 0xE5D, symBinAddr: 0x1000271C5, symSize: 0x0 }
  - { offsetInCU: 0x268E, offset: 0x61648, size: 0x8, addend: 0x0, symName: __ZN6__pstl9execution2v1L9par_unseqE, symObjAddr: 0xE5E, symBinAddr: 0x1000271C6, symSize: 0x0 }
  - { offsetInCU: 0x26A4, offset: 0x6165E, size: 0x8, addend: 0x0, symName: __ZN6__pstl9execution2v1L5unseqE, symObjAddr: 0xE5F, symBinAddr: 0x1000271C7, symSize: 0x0 }
  - { offsetInCU: 0x2C97, offset: 0x61C51, size: 0x8, addend: 0x0, symName: __GLOBAL__sub_I_colour_charge.cpp, symObjAddr: 0xE3C, symBinAddr: 0x100018FEC, symSize: 0x1C }
  - { offsetInCU: 0x2C9F, offset: 0x61C59, size: 0x8, addend: 0x0, symName: __ZN9__gnu_cxxL21__default_lock_policyE, symObjAddr: 0xE58, symBinAddr: 0x1000271C0, symSize: 0x0 }
  - { offsetInCU: 0x2CBA, offset: 0x61C74, size: 0x8, addend: 0x0, symName: __Z41__static_initialization_and_destruction_0ii, symObjAddr: 0xDDC, symBinAddr: 0x100018F8C, symSize: 0x60 }
  - { offsetInCU: 0x2CC2, offset: 0x61C7C, size: 0x8, addend: 0x0, symName: __GLOBAL__sub_I_colour_charge.cpp, symObjAddr: 0xE3C, symBinAddr: 0x100018FEC, symSize: 0x1C }
  - { offsetInCU: 0x2CD3, offset: 0x61C8D, size: 0x8, addend: 0x0, symName: __ZN9__gnu_cxx5__ops16_Iter_equals_valIK11Colour_listEclIPS3_EEbT_, symObjAddr: 0xDA8, symBinAddr: 0x100018F58, symSize: 0x34 }
  - { offsetInCU: 0x2CDB, offset: 0x61C95, size: 0x8, addend: 0x0, symName: __Z41__static_initialization_and_destruction_0ii, symObjAddr: 0xDDC, symBinAddr: 0x100018F8C, symSize: 0x60 }
  - { offsetInCU: 0x2D9F, offset: 0x61D59, size: 0x8, addend: 0x0, symName: __ZSt9__find_ifIPK11Colour_listN9__gnu_cxx5__ops16_Iter_equals_valIS1_EEET_S7_S7_T0_St26random_access_iterator_tag, symObjAddr: 0xBE8, symBinAddr: 0x100018D98, symSize: 0x1C0 }
  - { offsetInCU: 0x2DA7, offset: 0x61D61, size: 0x8, addend: 0x0, symName: __ZN9__gnu_cxx5__ops16_Iter_equals_valIK11Colour_listEclIPS3_EEbT_, symObjAddr: 0xDA8, symBinAddr: 0x100018F58, symSize: 0x34 }
  - { offsetInCU: 0x2E4D, offset: 0x61E07, size: 0x8, addend: 0x0, symName: __ZSt19__iterator_categoryIPK11Colour_listENSt15iterator_traitsIT_E17iterator_categoryERKS4_, symObjAddr: 0xBD4, symBinAddr: 0x100018D84, symSize: 0x14 }
  - { offsetInCU: 0x2E55, offset: 0x61E0F, size: 0x8, addend: 0x0, symName: __ZSt9__find_ifIPK11Colour_listN9__gnu_cxx5__ops16_Iter_equals_valIS1_EEET_S7_S7_T0_St26random_access_iterator_tag, symObjAddr: 0xBE8, symBinAddr: 0x100018D98, symSize: 0x1C0 }
  - { offsetInCU: 0x2E7A, offset: 0x61E34, size: 0x8, addend: 0x0, symName: __ZN9__gnu_cxx5__ops16_Iter_equals_valIK11Colour_listEC1ERS3_, symObjAddr: 0xBB0, symBinAddr: 0x100018D60, symSize: 0x24 }
  - { offsetInCU: 0x2E82, offset: 0x61E3C, size: 0x8, addend: 0x0, symName: __ZSt19__iterator_categoryIPK11Colour_listENSt15iterator_traitsIT_E17iterator_categoryERKS4_, symObjAddr: 0xBD4, symBinAddr: 0x100018D84, symSize: 0x14 }
  - { offsetInCU: 0x2ED5, offset: 0x61E8F, size: 0x8, addend: 0x0, symName: __ZSt9__find_ifIPK11Colour_listN9__gnu_cxx5__ops16_Iter_equals_valIS1_EEET_S7_S7_T0_, symObjAddr: 0xB14, symBinAddr: 0x100018D1C, symSize: 0x44 }
  - { offsetInCU: 0x2F7B, offset: 0x61F35, size: 0x8, addend: 0x0, symName: __ZN9__gnu_cxx5__ops17__iter_equals_valIK11Colour_listEENS0_16_Iter_equals_valIT_EERS5_, symObjAddr: 0xAF0, symBinAddr: 0x100018CF8, symSize: 0x24 }
  - { offsetInCU: 0x2F83, offset: 0x61F3D, size: 0x8, addend: 0x0, symName: __ZSt9__find_ifIPK11Colour_listN9__gnu_cxx5__ops16_Iter_equals_valIS1_EEET_S7_S7_T0_, symObjAddr: 0xB14, symBinAddr: 0x100018D1C, symSize: 0x44 }
  - { offsetInCU: 0x2F46, offset: 0x61F00, size: 0x8, addend: 0x0, symName: __ZNKSt16initializer_listI11Colour_listE4sizeEv, symObjAddr: 0xAD8, symBinAddr: 0x100018CE0, symSize: 0x18 }
  - { offsetInCU: 0x2F4E, offset: 0x61F08, size: 0x8, addend: 0x0, symName: __ZN9__gnu_cxx5__ops17__iter_equals_valIK11Colour_listEENS0_16_Iter_equals_valIT_EERS5_, symObjAddr: 0xAF0, symBinAddr: 0x100018CF8, symSize: 0x24 }
  - { offsetInCU: 0x2FCC, offset: 0x61F86, size: 0x8, addend: 0x0, symName: __ZSt4findIPK11Colour_listS0_ET_S3_S3_RKT0_, symObjAddr: 0x968, symBinAddr: 0x100018CAC, symSize: 0x34 }
  - { offsetInCU: 0x2FF7, offset: 0x61FB1, size: 0x8, addend: 0x0, symName: __ZNKSt16initializer_listI11Colour_listE3endEv, symObjAddr: 0x930, symBinAddr: 0x100018C74, symSize: 0x38 }
  - { offsetInCU: 0x2FFF, offset: 0x61FB9, size: 0x8, addend: 0x0, symName: __ZSt4findIPK11Colour_listS0_ET_S3_S3_RKT0_, symObjAddr: 0x968, symBinAddr: 0x100018CAC, symSize: 0x34 }
  - { offsetInCU: 0x3026, offset: 0x61FE0, size: 0x8, addend: 0x0, symName: __ZNKSt16initializer_listI11Colour_listE5beginEv, symObjAddr: 0x918, symBinAddr: 0x100018C5C, symSize: 0x18 }
  - { offsetInCU: 0x302E, offset: 0x61FE8, size: 0x8, addend: 0x0, symName: __ZNKSt16initializer_listI11Colour_listE3endEv, symObjAddr: 0x930, symBinAddr: 0x100018C74, symSize: 0x38 }
  - { offsetInCU: 0x3058, offset: 0x62012, size: 0x8, addend: 0x0, symName: __ZNK13Colour_charge17print_two_coloursEv, symObjAddr: 0x6D0, symBinAddr: 0x100018B54, symSize: 0x108 }
  - { offsetInCU: 0x308C, offset: 0x62046, size: 0x8, addend: 0x0, symName: __ZN13Colour_charge27validate_and_correct_colourEb, symObjAddr: 0x58C, symBinAddr: 0x100018A10, symSize: 0x144 }
  - { offsetInCU: 0x3094, offset: 0x6204E, size: 0x8, addend: 0x0, symName: __ZNK13Colour_charge17print_two_coloursEv, symObjAddr: 0x6D0, symBinAddr: 0x100018B54, symSize: 0x108 }
  - { offsetInCU: 0x30D4, offset: 0x6208E, size: 0x8, addend: 0x0, symName: __ZN13Colour_charge23check_and_update_colourER11Colour_listRKSt16initializer_listIS0_E, symObjAddr: 0x51C, symBinAddr: 0x1000189A0, symSize: 0x70 }
  - { offsetInCU: 0x30DC, offset: 0x62096, size: 0x8, addend: 0x0, symName: __ZN13Colour_charge27validate_and_correct_colourEb, symObjAddr: 0x58C, symBinAddr: 0x100018A10, symSize: 0x144 }
  - { offsetInCU: 0x31D7, offset: 0x62191, size: 0x8, addend: 0x0, symName: __ZZN13Colour_charge23check_and_update_colourER11Colour_listRKSt16initializer_listIS0_EENKUlS0_E_clES0_, symObjAddr: 0x4B0, symBinAddr: 0x100018934, symSize: 0x6C }
  - { offsetInCU: 0x31DF, offset: 0x62199, size: 0x8, addend: 0x0, symName: __ZN13Colour_charge23check_and_update_colourER11Colour_listRKSt16initializer_listIS0_E, symObjAddr: 0x51C, symBinAddr: 0x1000189A0, symSize: 0x70 }
  - { offsetInCU: 0x3257, offset: 0x62211, size: 0x8, addend: 0x0, symName: __ZNK13Colour_charge14enum_to_stringB5cxx11E11Colour_list, symObjAddr: 0x24C, symBinAddr: 0x1000186D0, symSize: 0x264 }
  - { offsetInCU: 0x325F, offset: 0x62219, size: 0x8, addend: 0x0, symName: __ZZN13Colour_charge23check_and_update_colourER11Colour_listRKSt16initializer_listIS0_EENKUlS0_E_clES0_, symObjAddr: 0x4B0, symBinAddr: 0x100018934, symSize: 0x6C }
  - { offsetInCU: 0x329F, offset: 0x62259, size: 0x8, addend: 0x0, symName: __ZN13Colour_charge33is_valid_gluon_colour_combinationE11Colour_listS0_, symObjAddr: 0x1E4, symBinAddr: 0x100018668, symSize: 0x68 }
  - { offsetInCU: 0x32A7, offset: 0x62261, size: 0x8, addend: 0x0, symName: __ZNK13Colour_charge14enum_to_stringB5cxx11E11Colour_list, symObjAddr: 0x24C, symBinAddr: 0x1000186D0, symSize: 0x264 }
  - { offsetInCU: 0x3349, offset: 0x62303, size: 0x8, addend: 0x0, symName: __ZN13Colour_chargeC1E11Colour_listS0_, symObjAddr: 0x16C, symBinAddr: 0x1000185F0, symSize: 0x78 }
  - { offsetInCU: 0x3351, offset: 0x6230B, size: 0x8, addend: 0x0, symName: __ZN13Colour_charge33is_valid_gluon_colour_combinationE11Colour_listS0_, symObjAddr: 0x1E4, symBinAddr: 0x100018668, symSize: 0x68 }
  - { offsetInCU: 0x338F, offset: 0x62349, size: 0x8, addend: 0x0, symName: __ZN13Colour_chargeC2E11Colour_listS0_, symObjAddr: 0xF4, symBinAddr: 0x100018578, symSize: 0x78 }
  - { offsetInCU: 0x3397, offset: 0x62351, size: 0x8, addend: 0x0, symName: __ZN13Colour_chargeC1E11Colour_listS0_, symObjAddr: 0x16C, symBinAddr: 0x1000185F0, symSize: 0x78 }
  - { offsetInCU: 0x3400, offset: 0x623BA, size: 0x8, addend: 0x0, symName: __ZN13Colour_chargeC1E11Colour_list, symObjAddr: 0xC4, symBinAddr: 0x100018548, symSize: 0x30 }
  - { offsetInCU: 0x3408, offset: 0x623C2, size: 0x8, addend: 0x0, symName: __ZN13Colour_chargeC2E11Colour_listS0_, symObjAddr: 0xF4, symBinAddr: 0x100018578, symSize: 0x78 }
  - { offsetInCU: 0x343A, offset: 0x623F4, size: 0x8, addend: 0x0, symName: __ZN13Colour_chargeC2E11Colour_list, symObjAddr: 0x94, symBinAddr: 0x100018518, symSize: 0x30 }
  - { offsetInCU: 0x3442, offset: 0x623FC, size: 0x8, addend: 0x0, symName: __ZN13Colour_chargeC1E11Colour_list, symObjAddr: 0xC4, symBinAddr: 0x100018548, symSize: 0x30 }
  - { offsetInCU: 0x3451, offset: 0x6240B, size: 0x8, addend: 0x0, symName: __ZNK13Colour_charge18print_colour_errorEv, symObjAddr: 0x54, symBinAddr: 0x1000184D8, symSize: 0x40 }
  - { offsetInCU: 0x3459, offset: 0x62413, size: 0x8, addend: 0x0, symName: __ZN13Colour_chargeC2E11Colour_list, symObjAddr: 0x94, symBinAddr: 0x100018518, symSize: 0x30 }
  - { offsetInCU: 0xE2, offset: 0x62518, size: 0x8, addend: 0x0, symName: __ZSt17__size_to_integerm, symObjAddr: 0x0, symBinAddr: 0x100019008, symSize: 0x14 }
  - { offsetInCU: 0xEA, offset: 0x62520, size: 0x8, addend: 0x0, symName: __ZN9__gnu_cxxL21__default_lock_policyE, symObjAddr: 0x3458, symBinAddr: 0x1000271E0, symSize: 0x0 }
  - { offsetInCU: 0x519A, offset: 0x675D0, size: 0x8, addend: 0x0, symName: __ZStL8__ioinit, symObjAddr: 0x44B58, symBinAddr: 0x1000410B6, symSize: 0x0 }
  - { offsetInCU: 0x5585, offset: 0x679BB, size: 0x8, addend: 0x0, symName: __ZN9__gnu_cxxL21__default_lock_policyE, symObjAddr: 0x3458, symBinAddr: 0x1000271E0, symSize: 0x0 }
  - { offsetInCU: 0x55ED, offset: 0x67A23, size: 0x8, addend: 0x0, symName: __ZN6__pstl9execution2v1L3seqE, symObjAddr: 0x345C, symBinAddr: 0x1000271E4, symSize: 0x0 }
  - { offsetInCU: 0x5607, offset: 0x67A3D, size: 0x8, addend: 0x0, symName: __ZN6__pstl9execution2v1L3parE, symObjAddr: 0x345D, symBinAddr: 0x1000271E5, symSize: 0x0 }
  - { offsetInCU: 0x5627, offset: 0x67A5D, size: 0x8, addend: 0x0, symName: __ZN6__pstl9execution2v1L9par_unseqE, symObjAddr: 0x345E, symBinAddr: 0x1000271E6, symSize: 0x0 }
  - { offsetInCU: 0x563D, offset: 0x67A73, size: 0x8, addend: 0x0, symName: __ZN6__pstl9execution2v1L5unseqE, symObjAddr: 0x345F, symBinAddr: 0x1000271E7, symSize: 0x0 }
  - { offsetInCU: 0x75A2, offset: 0x699D8, size: 0x8, addend: 0x0, symName: __ZN13Four_momentum10debug_modeE, symObjAddr: 0x44B59, symBinAddr: 0x1000410C8, symSize: 0x0 }
  - { offsetInCU: 0x7CA8, offset: 0x6A0DE, size: 0x8, addend: 0x0, symName: __GLOBAL__sub_I_four_momentum.cpp, symObjAddr: 0x343C, symBinAddr: 0x10001BE60, symSize: 0x1C }
  - { offsetInCU: 0x7CB0, offset: 0x6A0E6, size: 0x8, addend: 0x0, symName: __ZN9__gnu_cxxL21__default_lock_policyE, symObjAddr: 0x3458, symBinAddr: 0x1000271E0, symSize: 0x0 }
  - { offsetInCU: 0x7CCB, offset: 0x6A101, size: 0x8, addend: 0x0, symName: __Z41__static_initialization_and_destruction_0ii, symObjAddr: 0x33DC, symBinAddr: 0x10001BE00, symSize: 0x60 }
  - { offsetInCU: 0x7CD3, offset: 0x6A109, size: 0x8, addend: 0x0, symName: __GLOBAL__sub_I_four_momentum.cpp, symObjAddr: 0x343C, symBinAddr: 0x10001BE60, symSize: 0x1C }
  - { offsetInCU: 0x7D61, offset: 0x6A197, size: 0x8, addend: 0x0, symName: __ZSt9__fill_a1IPddEN9__gnu_cxx11__enable_ifIXsrSt11__is_scalarIT0_E7__valueEvE6__typeET_S8_RKS4_, symObjAddr: 0x3384, symBinAddr: 0x10001BDA8, symSize: 0x58 }
  - { offsetInCU: 0x7D69, offset: 0x6A19F, size: 0x8, addend: 0x0, symName: __Z41__static_initialization_and_destruction_0ii, symObjAddr: 0x33DC, symBinAddr: 0x10001BE00, symSize: 0x60 }
  - { offsetInCU: 0x7DB0, offset: 0x6A1E6, size: 0x8, addend: 0x0, symName: __ZSt12__niter_baseIPKdET_S2_, symObjAddr: 0x3370, symBinAddr: 0x10001BD94, symSize: 0x14 }
  - { offsetInCU: 0x7DB8, offset: 0x6A1EE, size: 0x8, addend: 0x0, symName: __ZSt9__fill_a1IPddEN9__gnu_cxx11__enable_ifIXsrSt11__is_scalarIT0_E7__valueEvE6__typeET_S8_RKS4_, symObjAddr: 0x3384, symBinAddr: 0x10001BDA8, symSize: 0x58 }
  - { offsetInCU: 0x7DF8, offset: 0x6A22E, size: 0x8, addend: 0x0, symName: __ZSt8__fill_aIPddEvT_S1_RKT0_, symObjAddr: 0x3340, symBinAddr: 0x10001BD64, symSize: 0x30 }
  - { offsetInCU: 0x7E00, offset: 0x6A236, size: 0x8, addend: 0x0, symName: __ZSt12__niter_baseIPKdET_S2_, symObjAddr: 0x3370, symBinAddr: 0x10001BD94, symSize: 0x14 }
  - { offsetInCU: 0x7E96, offset: 0x6A2CC, size: 0x8, addend: 0x0, symName: __ZSt13__copy_move_aILb0EPKdPdET1_T0_S4_S3_, symObjAddr: 0x32E0, symBinAddr: 0x10001BD04, symSize: 0x60 }
  - { offsetInCU: 0x7E9E, offset: 0x6A2D4, size: 0x8, addend: 0x0, symName: __ZSt8__fill_aIPddEvT_S1_RKT0_, symObjAddr: 0x3340, symBinAddr: 0x10001BD64, symSize: 0x30 }
  - { offsetInCU: 0x7F07, offset: 0x6A33D, size: 0x8, addend: 0x0, symName: __ZSt12__miter_baseIPKdET_S2_, symObjAddr: 0x32CC, symBinAddr: 0x10001BCF0, symSize: 0x14 }
  - { offsetInCU: 0x7F0F, offset: 0x6A345, size: 0x8, addend: 0x0, symName: __ZSt13__copy_move_aILb0EPKdPdET1_T0_S4_S3_, symObjAddr: 0x32E0, symBinAddr: 0x10001BD04, symSize: 0x60 }
  - { offsetInCU: 0x7F8C, offset: 0x6A3C2, size: 0x8, addend: 0x0, symName: __ZSt10__fill_n_aIPdmdET_S1_T0_RKT1_St26random_access_iterator_tag, symObjAddr: 0x3268, symBinAddr: 0x10001BC8C, symSize: 0x64 }
  - { offsetInCU: 0x7F94, offset: 0x6A3CA, size: 0x8, addend: 0x0, symName: __ZSt12__miter_baseIPKdET_S2_, symObjAddr: 0x32CC, symBinAddr: 0x10001BCF0, symSize: 0x14 }
  - { offsetInCU: 0x8021, offset: 0x6A457, size: 0x8, addend: 0x0, symName: __ZSt19__iterator_categoryIPdENSt15iterator_traitsIT_E17iterator_categoryERKS2_, symObjAddr: 0x3254, symBinAddr: 0x10001BC78, symSize: 0x14 }
  - { offsetInCU: 0x8029, offset: 0x6A45F, size: 0x8, addend: 0x0, symName: __ZSt10__fill_n_aIPdmdET_S1_T0_RKT1_St26random_access_iterator_tag, symObjAddr: 0x3268, symBinAddr: 0x10001BC8C, symSize: 0x64 }
  - { offsetInCU: 0x7FF5, offset: 0x6A42B, size: 0x8, addend: 0x0, symName: __ZNSt11__copy_moveILb0ELb1ESt26random_access_iterator_tagE8__copy_mIdEEPT_PKS3_S6_S4_, symObjAddr: 0x31F0, symBinAddr: 0x10001BC14, symSize: 0x64 }
  - { offsetInCU: 0x7FFD, offset: 0x6A433, size: 0x8, addend: 0x0, symName: __ZSt19__iterator_categoryIPdENSt15iterator_traitsIT_E17iterator_categoryERKS2_, symObjAddr: 0x3254, symBinAddr: 0x10001BC78, symSize: 0x14 }
  - { offsetInCU: 0x8133, offset: 0x6A569, size: 0x8, addend: 0x0, symName: __ZSt13__copy_move_aILb0EN9__gnu_cxx17__normal_iteratorIPKdSt6vectorIdSaIdEEEEPdET1_T0_SA_S9_, symObjAddr: 0x3190, symBinAddr: 0x10001BBB4, symSize: 0x60 }
  - { offsetInCU: 0x813B, offset: 0x6A571, size: 0x8, addend: 0x0, symName: __ZNSt11__copy_moveILb0ELb1ESt26random_access_iterator_tagE8__copy_mIdEEPT_PKS3_S6_S4_, symObjAddr: 0x31F0, symBinAddr: 0x10001BC14, symSize: 0x64 }
  - { offsetInCU: 0x813E, offset: 0x6A574, size: 0x8, addend: 0x0, symName: __ZSt4copyIPKdPdET0_T_S4_S3_, symObjAddr: 0x3148, symBinAddr: 0x10001BB6C, symSize: 0x48 }
  - { offsetInCU: 0x8146, offset: 0x6A57C, size: 0x8, addend: 0x0, symName: __ZSt13__copy_move_aILb0EN9__gnu_cxx17__normal_iteratorIPKdSt6vectorIdSaIdEEEEPdET1_T0_SA_S9_, symObjAddr: 0x3190, symBinAddr: 0x10001BBB4, symSize: 0x60 }
  - { offsetInCU: 0x81D1, offset: 0x6A607, size: 0x8, addend: 0x0, symName: __ZSt6fill_nIPdmdET_S1_T0_RKT1_, symObjAddr: 0x30F0, symBinAddr: 0x10001BB14, symSize: 0x58 }
  - { offsetInCU: 0x81D9, offset: 0x6A60F, size: 0x8, addend: 0x0, symName: __ZSt4copyIPKdPdET0_T_S4_S3_, symObjAddr: 0x3148, symBinAddr: 0x10001BB6C, symSize: 0x48 }
  - { offsetInCU: 0x826A, offset: 0x6A6A0, size: 0x8, addend: 0x0, symName: __ZSt14__copy_move_a2ILb0EPdS0_ET1_T0_S2_S1_, symObjAddr: 0x30C4, symBinAddr: 0x10001BAE8, symSize: 0x2C }
  - { offsetInCU: 0x8272, offset: 0x6A6A8, size: 0x8, addend: 0x0, symName: __ZSt6fill_nIPdmdET_S1_T0_RKT1_, symObjAddr: 0x30F0, symBinAddr: 0x10001BB14, symSize: 0x58 }
  - { offsetInCU: 0x82A1, offset: 0x6A6D7, size: 0x8, addend: 0x0, symName: __ZNK9__gnu_cxx17__normal_iteratorIPdSt6vectorIdSaIdEEEplEl, symObjAddr: 0x3084, symBinAddr: 0x10001BAA8, symSize: 0x40 }
  - { offsetInCU: 0x82A9, offset: 0x6A6DF, size: 0x8, addend: 0x0, symName: __ZSt14__copy_move_a2ILb0EPdS0_ET1_T0_S2_S1_, symObjAddr: 0x30C4, symBinAddr: 0x10001BAE8, symSize: 0x2C }
  - { offsetInCU: 0x8343, offset: 0x6A779, size: 0x8, addend: 0x0, symName: __ZSt14__copy_move_a2ILb0EPKdPdET1_T0_S4_S3_, symObjAddr: 0x3058, symBinAddr: 0x10001BA7C, symSize: 0x2C }
  - { offsetInCU: 0x834B, offset: 0x6A781, size: 0x8, addend: 0x0, symName: __ZNK9__gnu_cxx17__normal_iteratorIPdSt6vectorIdSaIdEEEplEl, symObjAddr: 0x3084, symBinAddr: 0x10001BAA8, symSize: 0x40 }
  - { offsetInCU: 0x8374, offset: 0x6A7AA, size: 0x8, addend: 0x0, symName: __ZNK9__gnu_cxx17__normal_iteratorIPdSt6vectorIdSaIdEEE4baseEv, symObjAddr: 0x3044, symBinAddr: 0x10001BA68, symSize: 0x14 }
  - { offsetInCU: 0x837C, offset: 0x6A7B2, size: 0x8, addend: 0x0, symName: __ZSt14__copy_move_a2ILb0EPKdPdET1_T0_S4_S3_, symObjAddr: 0x3058, symBinAddr: 0x10001BA7C, symSize: 0x2C }
  - { offsetInCU: 0x83A3, offset: 0x6A7D9, size: 0x8, addend: 0x0, symName: __ZNK9__gnu_cxx17__normal_iteratorIPKdSt6vectorIdSaIdEEE4baseEv, symObjAddr: 0x3030, symBinAddr: 0x10001BA54, symSize: 0x14 }
  - { offsetInCU: 0x83AB, offset: 0x6A7E1, size: 0x8, addend: 0x0, symName: __ZNK9__gnu_cxx17__normal_iteratorIPdSt6vectorIdSaIdEEE4baseEv, symObjAddr: 0x3044, symBinAddr: 0x10001BA68, symSize: 0x14 }
  - { offsetInCU: 0x8476, offset: 0x6A8AC, size: 0x8, addend: 0x0, symName: __ZSt4copyIN9__gnu_cxx17__normal_iteratorIPKdSt6vectorIdSaIdEEEEPdET0_T_SA_S9_, symObjAddr: 0x2FE8, symBinAddr: 0x10001BA0C, symSize: 0x48 }
  - { offsetInCU: 0x847E, offset: 0x6A8B4, size: 0x8, addend: 0x0, symName: __ZNK9__gnu_cxx17__normal_iteratorIPKdSt6vectorIdSaIdEEE4baseEv, symObjAddr: 0x3030, symBinAddr: 0x10001BA54, symSize: 0x14 }
  - { offsetInCU: 0x8454, offset: 0x6A88A, size: 0x8, addend: 0x0, symName: __ZNSt20__uninitialized_copyILb1EE13__uninit_copyIPKdPdEET0_T_S6_S5_, symObjAddr: 0x2FBC, symBinAddr: 0x10001B9E0, symSize: 0x2C }
  - { offsetInCU: 0x845C, offset: 0x6A892, size: 0x8, addend: 0x0, symName: __ZSt4copyIN9__gnu_cxx17__normal_iteratorIPKdSt6vectorIdSaIdEEEEPdET0_T_SA_S9_, symObjAddr: 0x2FE8, symBinAddr: 0x10001BA0C, symSize: 0x48 }
  - { offsetInCU: 0x84C5, offset: 0x6A8FB, size: 0x8, addend: 0x0, symName: __ZN9__gnu_cxx13new_allocatorIdE8allocateEmPKv, symObjAddr: 0x2F44, symBinAddr: 0x10001B968, symSize: 0x78 }
  - { offsetInCU: 0x84CD, offset: 0x6A903, size: 0x8, addend: 0x0, symName: __ZNSt20__uninitialized_copyILb1EE13__uninit_copyIPKdPdEET0_T_S6_S5_, symObjAddr: 0x2FBC, symBinAddr: 0x10001B9E0, symSize: 0x2C }
  - { offsetInCU: 0x8527, offset: 0x6A95D, size: 0x8, addend: 0x0, symName: __ZNK9__gnu_cxx13new_allocatorIdE11_M_max_sizeEv, symObjAddr: 0x2F30, symBinAddr: 0x10001B954, symSize: 0x14 }
  - { offsetInCU: 0x852F, offset: 0x6A965, size: 0x8, addend: 0x0, symName: __ZN9__gnu_cxx13new_allocatorIdE8allocateEmPKv, symObjAddr: 0x2F44, symBinAddr: 0x10001B968, symSize: 0x78 }
  - { offsetInCU: 0x8556, offset: 0x6A98C, size: 0x8, addend: 0x0, symName: __ZNSt22__uninitialized_fill_nILb1EE15__uninit_fill_nIPdmdEET_S3_T0_RKT1_, symObjAddr: 0x2F04, symBinAddr: 0x10001B928, symSize: 0x2C }
  - { offsetInCU: 0x855E, offset: 0x6A994, size: 0x8, addend: 0x0, symName: __ZNK9__gnu_cxx13new_allocatorIdE11_M_max_sizeEv, symObjAddr: 0x2F30, symBinAddr: 0x10001B954, symSize: 0x14 }
  - { offsetInCU: 0x85D4, offset: 0x6AA0A, size: 0x8, addend: 0x0, symName: __ZNK9__gnu_cxx13new_allocatorIdE8max_sizeEv, symObjAddr: 0x2EE8, symBinAddr: 0x10001B90C, symSize: 0x1C }
  - { offsetInCU: 0x85DC, offset: 0x6AA12, size: 0x8, addend: 0x0, symName: __ZNSt22__uninitialized_fill_nILb1EE15__uninit_fill_nIPdmdEET_S3_T0_RKT1_, symObjAddr: 0x2F04, symBinAddr: 0x10001B928, symSize: 0x2C }
  - { offsetInCU: 0x865B, offset: 0x6AA91, size: 0x8, addend: 0x0, symName: __ZSt4moveIRSaIdEEONSt16remove_referenceIT_E4typeEOS3_, symObjAddr: 0x2ED4, symBinAddr: 0x10001B8F8, symSize: 0x14 }
  - { offsetInCU: 0x8663, offset: 0x6AA99, size: 0x8, addend: 0x0, symName: __ZNK9__gnu_cxx13new_allocatorIdE8max_sizeEv, symObjAddr: 0x2EE8, symBinAddr: 0x10001B90C, symSize: 0x1C }
  - { offsetInCU: 0x8658, offset: 0x6AA8E, size: 0x8, addend: 0x0, symName: __ZNSt12_Vector_baseIdSaIdEE17_Vector_impl_data12_M_copy_dataERKS2_, symObjAddr: 0x2E8C, symBinAddr: 0x10001B8B0, symSize: 0x48 }
  - { offsetInCU: 0x8660, offset: 0x6AA96, size: 0x8, addend: 0x0, symName: __ZSt4moveIRSaIdEEONSt16remove_referenceIT_E4typeEOS3_, symObjAddr: 0x2ED4, symBinAddr: 0x10001B8F8, symSize: 0x14 }
  - { offsetInCU: 0x869A, offset: 0x6AAD0, size: 0x8, addend: 0x0, symName: __ZNSt20__uninitialized_copyILb1EE13__uninit_copyIPdS2_EET0_T_S4_S3_, symObjAddr: 0x2E60, symBinAddr: 0x10001B884, symSize: 0x2C }
  - { offsetInCU: 0x86A2, offset: 0x6AAD8, size: 0x8, addend: 0x0, symName: __ZNSt12_Vector_baseIdSaIdEE17_Vector_impl_data12_M_copy_dataERKS2_, symObjAddr: 0x2E8C, symBinAddr: 0x10001B8B0, symSize: 0x48 }
  - { offsetInCU: 0x8747, offset: 0x6AB7D, size: 0x8, addend: 0x0, symName: __ZSt12__niter_wrapIPdET_RKS1_S1_, symObjAddr: 0x2E48, symBinAddr: 0x10001B86C, symSize: 0x18 }
  - { offsetInCU: 0x874F, offset: 0x6AB85, size: 0x8, addend: 0x0, symName: __ZNSt20__uninitialized_copyILb1EE13__uninit_copyIPdS2_EET0_T_S4_S3_, symObjAddr: 0x2E60, symBinAddr: 0x10001B884, symSize: 0x2C }
  - { offsetInCU: 0x87BD, offset: 0x6ABF3, size: 0x8, addend: 0x0, symName: __ZSt14__copy_move_a1ILb0EPdS0_ET1_T0_S2_S1_, symObjAddr: 0x2E1C, symBinAddr: 0x10001B840, symSize: 0x2C }
  - { offsetInCU: 0x87C5, offset: 0x6ABFB, size: 0x8, addend: 0x0, symName: __ZSt12__niter_wrapIPdET_RKS1_S1_, symObjAddr: 0x2E48, symBinAddr: 0x10001B86C, symSize: 0x18 }
  - { offsetInCU: 0x882B, offset: 0x6AC61, size: 0x8, addend: 0x0, symName: __ZSt12__niter_baseIPdET_S1_, symObjAddr: 0x2E08, symBinAddr: 0x10001B82C, symSize: 0x14 }
  - { offsetInCU: 0x8833, offset: 0x6AC69, size: 0x8, addend: 0x0, symName: __ZSt14__copy_move_a1ILb0EPdS0_ET1_T0_S2_S1_, symObjAddr: 0x2E1C, symBinAddr: 0x10001B840, symSize: 0x2C }
  - { offsetInCU: 0x8841, offset: 0x6AC77, size: 0x8, addend: 0x0, symName: __ZNSt12_Destroy_auxILb1EE9__destroyIN9__gnu_cxx17__normal_iteratorIPdSt6vectorIdSaIdEEEEEEvT_S9_, symObjAddr: 0x2DF0, symBinAddr: 0x10001B814, symSize: 0x18 }
  - { offsetInCU: 0x8849, offset: 0x6AC7F, size: 0x8, addend: 0x0, symName: __ZSt12__niter_baseIPdET_S1_, symObjAddr: 0x2E08, symBinAddr: 0x10001B82C, symSize: 0x14 }
  - { offsetInCU: 0x8930, offset: 0x6AD66, size: 0x8, addend: 0x0, symName: __ZSt12__niter_wrapIN9__gnu_cxx17__normal_iteratorIPdSt6vectorIdSaIdEEEES2_ET_S7_T0_, symObjAddr: 0x2DB4, symBinAddr: 0x10001B7D8, symSize: 0x3C }
  - { offsetInCU: 0x8938, offset: 0x6AD6E, size: 0x8, addend: 0x0, symName: __ZNSt12_Destroy_auxILb1EE9__destroyIN9__gnu_cxx17__normal_iteratorIPdSt6vectorIdSaIdEEEEEEvT_S9_, symObjAddr: 0x2DF0, symBinAddr: 0x10001B814, symSize: 0x18 }
  - { offsetInCU: 0x8951, offset: 0x6AD87, size: 0x8, addend: 0x0, symName: __ZSt14__copy_move_a1ILb0EPKdPdET1_T0_S4_S3_, symObjAddr: 0x2D88, symBinAddr: 0x10001B7AC, symSize: 0x2C }
  - { offsetInCU: 0x8959, offset: 0x6AD8F, size: 0x8, addend: 0x0, symName: __ZSt12__niter_wrapIN9__gnu_cxx17__normal_iteratorIPdSt6vectorIdSaIdEEEES2_ET_S7_T0_, symObjAddr: 0x2DB4, symBinAddr: 0x10001B7D8, symSize: 0x3C }
  - { offsetInCU: 0x8A04, offset: 0x6AE3A, size: 0x8, addend: 0x0, symName: __ZSt12__niter_baseIPdSt6vectorIdSaIdEEET_N9__gnu_cxx17__normal_iteratorIS4_T0_EE, symObjAddr: 0x2D68, symBinAddr: 0x10001B78C, symSize: 0x20 }
  - { offsetInCU: 0x8A0C, offset: 0x6AE42, size: 0x8, addend: 0x0, symName: __ZSt14__copy_move_a1ILb0EPKdPdET1_T0_S4_S3_, symObjAddr: 0x2D88, symBinAddr: 0x10001B7AC, symSize: 0x2C }
  - { offsetInCU: 0x8A65, offset: 0x6AE9B, size: 0x8, addend: 0x0, symName: __ZSt12__niter_baseIPKdSt6vectorIdSaIdEEET_N9__gnu_cxx17__normal_iteratorIS5_T0_EE, symObjAddr: 0x2D48, symBinAddr: 0x10001B76C, symSize: 0x20 }
  - { offsetInCU: 0x8A6D, offset: 0x6AEA3, size: 0x8, addend: 0x0, symName: __ZSt12__niter_baseIPdSt6vectorIdSaIdEEET_N9__gnu_cxx17__normal_iteratorIS4_T0_EE, symObjAddr: 0x2D68, symBinAddr: 0x10001B78C, symSize: 0x20 }
  - { offsetInCU: 0x8A36, offset: 0x6AE6C, size: 0x8, addend: 0x0, symName: __ZN9__gnu_cxx13new_allocatorIdE10deallocateEPdm, symObjAddr: 0x2D18, symBinAddr: 0x10001B73C, symSize: 0x30 }
  - { offsetInCU: 0x8A3E, offset: 0x6AE74, size: 0x8, addend: 0x0, symName: __ZSt12__niter_baseIPKdSt6vectorIdSaIdEEET_N9__gnu_cxx17__normal_iteratorIS5_T0_EE, symObjAddr: 0x2D48, symBinAddr: 0x10001B76C, symSize: 0x20 }
  - { offsetInCU: 0x8A8B, offset: 0x6AEC1, size: 0x8, addend: 0x0, symName: __ZNSt20__uninitialized_copyILb1EE13__uninit_copyIN9__gnu_cxx17__normal_iteratorIPKdSt6vectorIdSaIdEEEEPdEET0_T_SC_SB_, symObjAddr: 0x2CEC, symBinAddr: 0x10001B710, symSize: 0x2C }
  - { offsetInCU: 0x8A93, offset: 0x6AEC9, size: 0x8, addend: 0x0, symName: __ZN9__gnu_cxx13new_allocatorIdE10deallocateEPdm, symObjAddr: 0x2D18, symBinAddr: 0x10001B73C, symSize: 0x30 }
  - { offsetInCU: 0x8B56, offset: 0x6AF8C, size: 0x8, addend: 0x0, symName: __ZSt18uninitialized_copyIPKdPdET0_T_S4_S3_, symObjAddr: 0x2CB8, symBinAddr: 0x10001B6DC, symSize: 0x34 }
  - { offsetInCU: 0x8B5E, offset: 0x6AF94, size: 0x8, addend: 0x0, symName: __ZNSt20__uninitialized_copyILb1EE13__uninit_copyIN9__gnu_cxx17__normal_iteratorIPKdSt6vectorIdSaIdEEEEPdEET0_T_SC_SB_, symObjAddr: 0x2CEC, symBinAddr: 0x10001B710, symSize: 0x2C }
  - { offsetInCU: 0x8B8D, offset: 0x6AFC3, size: 0x8, addend: 0x0, symName: __ZNSt16allocator_traitsISaIdEE8allocateERS0_m, symObjAddr: 0x2C90, symBinAddr: 0x10001B6B4, symSize: 0x28 }
  - { offsetInCU: 0x8B95, offset: 0x6AFCB, size: 0x8, addend: 0x0, symName: __ZSt18uninitialized_copyIPKdPdET0_T_S4_S3_, symObjAddr: 0x2CB8, symBinAddr: 0x10001B6DC, symSize: 0x34 }
  - { offsetInCU: 0x8BD3, offset: 0x6B009, size: 0x8, addend: 0x0, symName: __ZNSt12_Destroy_auxILb1EE9__destroyIPdEEvT_S3_, symObjAddr: 0x2C78, symBinAddr: 0x10001B69C, symSize: 0x18 }
  - { offsetInCU: 0x8BDB, offset: 0x6B011, size: 0x8, addend: 0x0, symName: __ZNSt16allocator_traitsISaIdEE8allocateERS0_m, symObjAddr: 0x2C90, symBinAddr: 0x10001B6B4, symSize: 0x28 }
  - { offsetInCU: 0x8C82, offset: 0x6B0B8, size: 0x8, addend: 0x0, symName: __ZSt20uninitialized_fill_nIPdmdET_S1_T0_RKT1_, symObjAddr: 0x2C44, symBinAddr: 0x10001B668, symSize: 0x34 }
  - { offsetInCU: 0x8C8A, offset: 0x6B0C0, size: 0x8, addend: 0x0, symName: __ZNSt12_Destroy_auxILb1EE9__destroyIPdEEvT_S3_, symObjAddr: 0x2C78, symBinAddr: 0x10001B69C, symSize: 0x18 }
  - { offsetInCU: 0x8D05, offset: 0x6B13B, size: 0x8, addend: 0x0, symName: __ZNSt12_Vector_baseIdSaIdEE17_Vector_impl_dataC1Ev, symObjAddr: 0x2C18, symBinAddr: 0x10001B63C, symSize: 0x2C }
  - { offsetInCU: 0x8D0D, offset: 0x6B143, size: 0x8, addend: 0x0, symName: __ZSt20uninitialized_fill_nIPdmdET_S1_T0_RKT1_, symObjAddr: 0x2C44, symBinAddr: 0x10001B668, symSize: 0x34 }
  - { offsetInCU: 0x8D33, offset: 0x6B169, size: 0x8, addend: 0x0, symName: __ZNSt12_Vector_baseIdSaIdEE17_Vector_impl_dataC2Ev, symObjAddr: 0x2BEC, symBinAddr: 0x10001B610, symSize: 0x2C }
  - { offsetInCU: 0x8D3B, offset: 0x6B171, size: 0x8, addend: 0x0, symName: __ZNSt12_Vector_baseIdSaIdEE17_Vector_impl_dataC1Ev, symObjAddr: 0x2C18, symBinAddr: 0x10001B63C, symSize: 0x2C }
  - { offsetInCU: 0x8D2E, offset: 0x6B164, size: 0x8, addend: 0x0, symName: __ZNSt16allocator_traitsISaIdEE8max_sizeERKS0_, symObjAddr: 0x2BD0, symBinAddr: 0x10001B5F4, symSize: 0x1C }
  - { offsetInCU: 0x8D36, offset: 0x6B16C, size: 0x8, addend: 0x0, symName: __ZNSt12_Vector_baseIdSaIdEE17_Vector_impl_dataC2Ev, symObjAddr: 0x2BEC, symBinAddr: 0x10001B610, symSize: 0x2C }
  - { offsetInCU: 0x8DAE, offset: 0x6B1E4, size: 0x8, addend: 0x0, symName: __ZSt15__alloc_on_moveISaIdEEvRT_S2_, symObjAddr: 0x2BAC, symBinAddr: 0x10001B5D0, symSize: 0x24 }
  - { offsetInCU: 0x8DB6, offset: 0x6B1EC, size: 0x8, addend: 0x0, symName: __ZNSt16allocator_traitsISaIdEE8max_sizeERKS0_, symObjAddr: 0x2BD0, symBinAddr: 0x10001B5F4, symSize: 0x1C }
  - { offsetInCU: 0x8DB9, offset: 0x6B1EF, size: 0x8, addend: 0x0, symName: __ZNSt12_Vector_baseIdSaIdEE17_Vector_impl_data12_M_swap_dataERS2_, symObjAddr: 0x2B60, symBinAddr: 0x10001B584, symSize: 0x4C }
  - { offsetInCU: 0x8DC1, offset: 0x6B1F7, size: 0x8, addend: 0x0, symName: __ZSt15__alloc_on_moveISaIdEEvRT_S2_, symObjAddr: 0x2BAC, symBinAddr: 0x10001B5D0, symSize: 0x24 }
  - { offsetInCU: 0x8E55, offset: 0x6B28B, size: 0x8, addend: 0x0, symName: __ZNSt6vectorIdSaIdEEC1ERKS0_, symObjAddr: 0x2B38, symBinAddr: 0x10001B55C, symSize: 0x28 }
  - { offsetInCU: 0x8E5D, offset: 0x6B293, size: 0x8, addend: 0x0, symName: __ZNSt12_Vector_baseIdSaIdEE17_Vector_impl_data12_M_swap_dataERS2_, symObjAddr: 0x2B60, symBinAddr: 0x10001B584, symSize: 0x4C }
  - { offsetInCU: 0x8E72, offset: 0x6B2A8, size: 0x8, addend: 0x0, symName: __ZNKSt12_Vector_baseIdSaIdEE13get_allocatorEv, symObjAddr: 0x2B00, symBinAddr: 0x10001B524, symSize: 0x38 }
  - { offsetInCU: 0x8E7A, offset: 0x6B2B0, size: 0x8, addend: 0x0, symName: __ZNSt6vectorIdSaIdEEC1ERKS0_, symObjAddr: 0x2B38, symBinAddr: 0x10001B55C, symSize: 0x28 }
  - { offsetInCU: 0x8EEB, offset: 0x6B321, size: 0x8, addend: 0x0, symName: __ZN9__gnu_cxx13new_allocatorIdEC2ERKS1_, symObjAddr: 0x2AE8, symBinAddr: 0x10001B50C, symSize: 0x18 }
  - { offsetInCU: 0x8EF3, offset: 0x6B329, size: 0x8, addend: 0x0, symName: __ZNKSt12_Vector_baseIdSaIdEE13get_allocatorEv, symObjAddr: 0x2B00, symBinAddr: 0x10001B524, symSize: 0x38 }
  - { offsetInCU: 0x8F51, offset: 0x6B387, size: 0x8, addend: 0x0, symName: __ZSt18uninitialized_copyIPdS0_ET0_T_S2_S1_, symObjAddr: 0x2AB4, symBinAddr: 0x10001B4D8, symSize: 0x34 }
  - { offsetInCU: 0x8F59, offset: 0x6B38F, size: 0x8, addend: 0x0, symName: __ZN9__gnu_cxx13new_allocatorIdEC2ERKS1_, symObjAddr: 0x2AE8, symBinAddr: 0x10001B50C, symSize: 0x18 }
  - { offsetInCU: 0x8FE5, offset: 0x6B41B, size: 0x8, addend: 0x0, symName: __ZSt13__copy_move_aILb0EPdS0_ET1_T0_S2_S1_, symObjAddr: 0x2A54, symBinAddr: 0x10001B478, symSize: 0x60 }
  - { offsetInCU: 0x8FED, offset: 0x6B423, size: 0x8, addend: 0x0, symName: __ZSt18uninitialized_copyIPdS0_ET0_T_S2_S1_, symObjAddr: 0x2AB4, symBinAddr: 0x10001B4D8, symSize: 0x34 }
  - { offsetInCU: 0x9055, offset: 0x6B48B, size: 0x8, addend: 0x0, symName: __ZSt12__miter_baseIPdET_S1_, symObjAddr: 0x2A40, symBinAddr: 0x10001B464, symSize: 0x14 }
  - { offsetInCU: 0x905D, offset: 0x6B493, size: 0x8, addend: 0x0, symName: __ZSt13__copy_move_aILb0EPdS0_ET1_T0_S2_S1_, symObjAddr: 0x2A54, symBinAddr: 0x10001B478, symSize: 0x60 }
  - { offsetInCU: 0x90FD, offset: 0x6B533, size: 0x8, addend: 0x0, symName: __ZSt8_DestroyIN9__gnu_cxx17__normal_iteratorIPdSt6vectorIdSaIdEEEEEvT_S7_, symObjAddr: 0x2A18, symBinAddr: 0x10001B43C, symSize: 0x28 }
  - { offsetInCU: 0x9105, offset: 0x6B53B, size: 0x8, addend: 0x0, symName: __ZSt12__miter_baseIPdET_S1_, symObjAddr: 0x2A40, symBinAddr: 0x10001B464, symSize: 0x14 }
  - { offsetInCU: 0x91C3, offset: 0x6B5F9, size: 0x8, addend: 0x0, symName: __ZSt13__copy_move_aILb0EN9__gnu_cxx17__normal_iteratorIPKdSt6vectorIdSaIdEEEENS1_IPdS6_EEET1_T0_SB_SA_, symObjAddr: 0x29B8, symBinAddr: 0x10001B3DC, symSize: 0x60 }
  - { offsetInCU: 0x91CB, offset: 0x6B601, size: 0x8, addend: 0x0, symName: __ZSt8_DestroyIN9__gnu_cxx17__normal_iteratorIPdSt6vectorIdSaIdEEEEEvT_S7_, symObjAddr: 0x2A18, symBinAddr: 0x10001B43C, symSize: 0x28 }
  - { offsetInCU: 0x91F6, offset: 0x6B62C, size: 0x8, addend: 0x0, symName: __ZSt12__miter_baseIN9__gnu_cxx17__normal_iteratorIPKdSt6vectorIdSaIdEEEEET_S8_, symObjAddr: 0x29A4, symBinAddr: 0x10001B3C8, symSize: 0x14 }
  - { offsetInCU: 0x91FE, offset: 0x6B634, size: 0x8, addend: 0x0, symName: __ZSt13__copy_move_aILb0EN9__gnu_cxx17__normal_iteratorIPKdSt6vectorIdSaIdEEEENS1_IPdS6_EEET1_T0_SB_SA_, symObjAddr: 0x29B8, symBinAddr: 0x10001B3DC, symSize: 0x60 }
  - { offsetInCU: 0x9206, offset: 0x6B63C, size: 0x8, addend: 0x0, symName: __ZN9__gnu_cxx17__normal_iteratorIPdSt6vectorIdSaIdEEEC1ERKS1_, symObjAddr: 0x297C, symBinAddr: 0x10001B3A0, symSize: 0x28 }
  - { offsetInCU: 0x920E, offset: 0x6B644, size: 0x8, addend: 0x0, symName: __ZSt12__miter_baseIN9__gnu_cxx17__normal_iteratorIPKdSt6vectorIdSaIdEEEEET_S8_, symObjAddr: 0x29A4, symBinAddr: 0x10001B3C8, symSize: 0x14 }
  - { offsetInCU: 0x9202, offset: 0x6B638, size: 0x8, addend: 0x0, symName: __ZNSt16allocator_traitsISaIdEE10deallocateERS0_Pdm, symObjAddr: 0x294C, symBinAddr: 0x10001B370, symSize: 0x30 }
  - { offsetInCU: 0x920A, offset: 0x6B640, size: 0x8, addend: 0x0, symName: __ZN9__gnu_cxx17__normal_iteratorIPdSt6vectorIdSaIdEEEC1ERKS1_, symObjAddr: 0x297C, symBinAddr: 0x10001B3A0, symSize: 0x28 }
  - { offsetInCU: 0x925C, offset: 0x6B692, size: 0x8, addend: 0x0, symName: __ZNSt6vectorIdSaIdEE15_M_erase_at_endEPd, symObjAddr: 0x28D8, symBinAddr: 0x10001B2FC, symSize: 0x74 }
  - { offsetInCU: 0x9264, offset: 0x6B69A, size: 0x8, addend: 0x0, symName: __ZNSt16allocator_traitsISaIdEE10deallocateERS0_Pdm, symObjAddr: 0x294C, symBinAddr: 0x10001B370, symSize: 0x30 }
  - { offsetInCU: 0x9386, offset: 0x6B7BC, size: 0x8, addend: 0x0, symName: __ZSt18uninitialized_copyIN9__gnu_cxx17__normal_iteratorIPKdSt6vectorIdSaIdEEEEPdET0_T_SA_S9_, symObjAddr: 0x28A4, symBinAddr: 0x10001B2C8, symSize: 0x34 }
  - { offsetInCU: 0x938E, offset: 0x6B7C4, size: 0x8, addend: 0x0, symName: __ZNSt6vectorIdSaIdEE15_M_erase_at_endEPd, symObjAddr: 0x28D8, symBinAddr: 0x10001B2FC, symSize: 0x74 }
  - { offsetInCU: 0x93C0, offset: 0x6B7F6, size: 0x8, addend: 0x0, symName: __ZN9__gnu_cxx17__normal_iteratorIPKdSt6vectorIdSaIdEEEC1ERKS2_, symObjAddr: 0x287C, symBinAddr: 0x10001B2A0, symSize: 0x28 }
  - { offsetInCU: 0x93C8, offset: 0x6B7FE, size: 0x8, addend: 0x0, symName: __ZSt18uninitialized_copyIN9__gnu_cxx17__normal_iteratorIPKdSt6vectorIdSaIdEEEEPdET0_T_SA_S9_, symObjAddr: 0x28A4, symBinAddr: 0x10001B2C8, symSize: 0x34 }
  - { offsetInCU: 0x93BB, offset: 0x6B7F1, size: 0x8, addend: 0x0, symName: __ZNSt16allocator_traitsISaIdEE37select_on_container_copy_constructionERKS0_, symObjAddr: 0x284C, symBinAddr: 0x10001B270, symSize: 0x30 }
  - { offsetInCU: 0x93C3, offset: 0x6B7F9, size: 0x8, addend: 0x0, symName: __ZN9__gnu_cxx17__normal_iteratorIPKdSt6vectorIdSaIdEEEC1ERKS2_, symObjAddr: 0x287C, symBinAddr: 0x10001B2A0, symSize: 0x28 }
  - { offsetInCU: 0x9461, offset: 0x6B897, size: 0x8, addend: 0x0, symName: __ZSt22__uninitialized_copy_aIPKdPddET0_T_S4_S3_RSaIT1_E, symObjAddr: 0x281C, symBinAddr: 0x10001B240, symSize: 0x30 }
  - { offsetInCU: 0x9469, offset: 0x6B89F, size: 0x8, addend: 0x0, symName: __ZNSt16allocator_traitsISaIdEE37select_on_container_copy_constructionERKS0_, symObjAddr: 0x284C, symBinAddr: 0x10001B270, symSize: 0x30 }
  - { offsetInCU: 0x9488, offset: 0x6B8BE, size: 0x8, addend: 0x0, symName: __ZNSt12_Vector_baseIdSaIdEE11_M_allocateEm, symObjAddr: 0x27E4, symBinAddr: 0x10001B208, symSize: 0x38 }
  - { offsetInCU: 0x9490, offset: 0x6B8C6, size: 0x8, addend: 0x0, symName: __ZSt22__uninitialized_copy_aIPKdPddET0_T_S4_S3_RSaIT1_E, symObjAddr: 0x281C, symBinAddr: 0x10001B240, symSize: 0x30 }
  - { offsetInCU: 0x954D, offset: 0x6B983, size: 0x8, addend: 0x0, symName: __ZSt10__distanceIPKdENSt15iterator_traitsIT_E15difference_typeES3_S3_St26random_access_iterator_tag, symObjAddr: 0x27BC, symBinAddr: 0x10001B1E0, symSize: 0x28 }
  - { offsetInCU: 0x9555, offset: 0x6B98B, size: 0x8, addend: 0x0, symName: __ZNSt12_Vector_baseIdSaIdEE11_M_allocateEm, symObjAddr: 0x27E4, symBinAddr: 0x10001B208, symSize: 0x38 }
  - { offsetInCU: 0x95AC, offset: 0x6B9E2, size: 0x8, addend: 0x0, symName: __ZSt19__iterator_categoryIPKdENSt15iterator_traitsIT_E17iterator_categoryERKS3_, symObjAddr: 0x27A8, symBinAddr: 0x10001B1CC, symSize: 0x14 }
  - { offsetInCU: 0x95B4, offset: 0x6B9EA, size: 0x8, addend: 0x0, symName: __ZSt10__distanceIPKdENSt15iterator_traitsIT_E15difference_typeES3_S3_St26random_access_iterator_tag, symObjAddr: 0x27BC, symBinAddr: 0x10001B1E0, symSize: 0x28 }
  - { offsetInCU: 0x9579, offset: 0x6B9AF, size: 0x8, addend: 0x0, symName: __ZNKSt16initializer_listIdE4sizeEv, symObjAddr: 0x2790, symBinAddr: 0x10001B1B4, symSize: 0x18 }
  - { offsetInCU: 0x9581, offset: 0x6B9B7, size: 0x8, addend: 0x0, symName: __ZSt19__iterator_categoryIPKdENSt15iterator_traitsIT_E17iterator_categoryERKS3_, symObjAddr: 0x27A8, symBinAddr: 0x10001B1CC, symSize: 0x14 }
  - { offsetInCU: 0x95D3, offset: 0x6BA09, size: 0x8, addend: 0x0, symName: __ZSt8_DestroyIPdEvT_S1_, symObjAddr: 0x2768, symBinAddr: 0x10001B18C, symSize: 0x28 }
  - { offsetInCU: 0x95DB, offset: 0x6BA11, size: 0x8, addend: 0x0, symName: __ZNKSt16initializer_listIdE4sizeEv, symObjAddr: 0x2790, symBinAddr: 0x10001B1B4, symSize: 0x18 }
  - { offsetInCU: 0x9683, offset: 0x6BAB9, size: 0x8, addend: 0x0, symName: __ZSt24__uninitialized_fill_n_aIPdmddET_S1_T0_RKT1_RSaIT2_E, symObjAddr: 0x2738, symBinAddr: 0x10001B15C, symSize: 0x30 }
  - { offsetInCU: 0x968B, offset: 0x6BAC1, size: 0x8, addend: 0x0, symName: __ZSt8_DestroyIPdEvT_S1_, symObjAddr: 0x2768, symBinAddr: 0x10001B18C, symSize: 0x28 }
  - { offsetInCU: 0x96A6, offset: 0x6BADC, size: 0x8, addend: 0x0, symName: __ZNSt12_Vector_baseIdSaIdEE17_M_create_storageEm, symObjAddr: 0x26D8, symBinAddr: 0x10001B0FC, symSize: 0x60 }
  - { offsetInCU: 0x96AE, offset: 0x6BAE4, size: 0x8, addend: 0x0, symName: __ZSt24__uninitialized_fill_n_aIPdmddET_S1_T0_RKT1_RSaIT2_E, symObjAddr: 0x2738, symBinAddr: 0x10001B15C, symSize: 0x30 }
  - { offsetInCU: 0x9745, offset: 0x6BB7B, size: 0x8, addend: 0x0, symName: __ZNSt12_Vector_baseIdSaIdEE12_Vector_implC1ERKS0_, symObjAddr: 0x26A8, symBinAddr: 0x10001B0CC, symSize: 0x30 }
  - { offsetInCU: 0x974D, offset: 0x6BB83, size: 0x8, addend: 0x0, symName: __ZNSt12_Vector_baseIdSaIdEE17_M_create_storageEm, symObjAddr: 0x26D8, symBinAddr: 0x10001B0FC, symSize: 0x60 }
  - { offsetInCU: 0x974D, offset: 0x6BB83, size: 0x8, addend: 0x0, symName: __ZNSt6vectorIdSaIdEE11_S_max_sizeERKS0_, symObjAddr: 0x2670, symBinAddr: 0x10001B094, symSize: 0x38 }
  - { offsetInCU: 0x9755, offset: 0x6BB8B, size: 0x8, addend: 0x0, symName: __ZNSt12_Vector_baseIdSaIdEE12_Vector_implC1ERKS0_, symObjAddr: 0x26A8, symBinAddr: 0x10001B0CC, symSize: 0x30 }
  - { offsetInCU: 0x97A7, offset: 0x6BBDD, size: 0x8, addend: 0x0, symName: __ZNSt6vectorIdSaIdEE14_M_move_assignEOS1_St17integral_constantIbLb1EE, symObjAddr: 0x2590, symBinAddr: 0x10001B00C, symSize: 0x88 }
  - { offsetInCU: 0x986A, offset: 0x6BCA0, size: 0x8, addend: 0x0, symName: __ZNSt12_Vector_baseIdSaIdEE17_Vector_impl_dataC2EOS2_, symObjAddr: 0x2520, symBinAddr: 0x10001AF9C, symSize: 0x70 }
  - { offsetInCU: 0x9872, offset: 0x6BCA8, size: 0x8, addend: 0x0, symName: __ZNSt6vectorIdSaIdEE14_M_move_assignEOS1_St17integral_constantIbLb1EE, symObjAddr: 0x2590, symBinAddr: 0x10001B00C, symSize: 0x88 }
  - { offsetInCU: 0x98A8, offset: 0x6BCDE, size: 0x8, addend: 0x0, symName: __ZNSaIdEC1ERKS_, symObjAddr: 0x24F8, symBinAddr: 0x10001AF74, symSize: 0x28 }
  - { offsetInCU: 0x98B0, offset: 0x6BCE6, size: 0x8, addend: 0x0, symName: __ZNSt12_Vector_baseIdSaIdEE17_Vector_impl_dataC2EOS2_, symObjAddr: 0x2520, symBinAddr: 0x10001AF9C, symSize: 0x70 }
  - { offsetInCU: 0x98E2, offset: 0x6BD18, size: 0x8, addend: 0x0, symName: __ZNSaIdEC2ERKS_, symObjAddr: 0x24D0, symBinAddr: 0x10001AF4C, symSize: 0x28 }
  - { offsetInCU: 0x98EA, offset: 0x6BD20, size: 0x8, addend: 0x0, symName: __ZNSaIdEC1ERKS_, symObjAddr: 0x24F8, symBinAddr: 0x10001AF74, symSize: 0x28 }
  - { offsetInCU: 0x99B1, offset: 0x6BDE7, size: 0x8, addend: 0x0, symName: __ZSt4moveIRNSt12_Vector_baseIdSaIdEE12_Vector_implEEONSt16remove_referenceIT_E4typeEOS6_, symObjAddr: 0x24BC, symBinAddr: 0x10001AF38, symSize: 0x14 }
  - { offsetInCU: 0x99B9, offset: 0x6BDEF, size: 0x8, addend: 0x0, symName: __ZNSaIdEC2ERKS_, symObjAddr: 0x24D0, symBinAddr: 0x10001AF4C, symSize: 0x28 }
  - { offsetInCU: 0x99D9, offset: 0x6BE0F, size: 0x8, addend: 0x0, symName: __ZSt22__uninitialized_copy_aIPdS0_dET0_T_S2_S1_RSaIT1_E, symObjAddr: 0x248C, symBinAddr: 0x10001AF08, symSize: 0x30 }
  - { offsetInCU: 0x99E1, offset: 0x6BE17, size: 0x8, addend: 0x0, symName: __ZSt4moveIRNSt12_Vector_baseIdSaIdEE12_Vector_implEEONSt16remove_referenceIT_E4typeEOS6_, symObjAddr: 0x24BC, symBinAddr: 0x10001AF38, symSize: 0x14 }
  - { offsetInCU: 0x9A3E, offset: 0x6BE74, size: 0x8, addend: 0x0, symName: __ZSt4copyIPdS0_ET0_T_S2_S1_, symObjAddr: 0x2444, symBinAddr: 0x10001AEC0, symSize: 0x48 }
  - { offsetInCU: 0x9A46, offset: 0x6BE7C, size: 0x8, addend: 0x0, symName: __ZSt22__uninitialized_copy_aIPdS0_dET0_T_S2_S1_RSaIT1_E, symObjAddr: 0x248C, symBinAddr: 0x10001AF08, symSize: 0x30 }
  - { offsetInCU: 0x9B2A, offset: 0x6BF60, size: 0x8, addend: 0x0, symName: __ZSt8_DestroyIN9__gnu_cxx17__normal_iteratorIPdSt6vectorIdSaIdEEEEdEvT_S7_RSaIT0_E, symObjAddr: 0x2418, symBinAddr: 0x10001AE94, symSize: 0x2C }
  - { offsetInCU: 0x9B32, offset: 0x6BF68, size: 0x8, addend: 0x0, symName: __ZSt4copyIPdS0_ET0_T_S2_S1_, symObjAddr: 0x2444, symBinAddr: 0x10001AEC0, symSize: 0x48 }
  - { offsetInCU: 0x9AFA, offset: 0x6BF30, size: 0x8, addend: 0x0, symName: __ZNSt6vectorIdSaIdEE3endEv, symObjAddr: 0x23F0, symBinAddr: 0x10001AE6C, symSize: 0x28 }
  - { offsetInCU: 0x9B02, offset: 0x6BF38, size: 0x8, addend: 0x0, symName: __ZSt8_DestroyIN9__gnu_cxx17__normal_iteratorIPdSt6vectorIdSaIdEEEEdEvT_S7_RSaIT0_E, symObjAddr: 0x2418, symBinAddr: 0x10001AE94, symSize: 0x2C }
  - { offsetInCU: 0x9C0C, offset: 0x6C042, size: 0x8, addend: 0x0, symName: __ZSt4copyIN9__gnu_cxx17__normal_iteratorIPKdSt6vectorIdSaIdEEEENS1_IPdS6_EEET0_T_SB_SA_, symObjAddr: 0x23A8, symBinAddr: 0x10001AE24, symSize: 0x48 }
  - { offsetInCU: 0x9C14, offset: 0x6C04A, size: 0x8, addend: 0x0, symName: __ZNSt6vectorIdSaIdEE3endEv, symObjAddr: 0x23F0, symBinAddr: 0x10001AE6C, symSize: 0x28 }
  - { offsetInCU: 0x9BAB, offset: 0x6BFE1, size: 0x8, addend: 0x0, symName: __ZNSt6vectorIdSaIdEE5beginEv, symObjAddr: 0x2384, symBinAddr: 0x10001AE00, symSize: 0x24 }
  - { offsetInCU: 0x9BB3, offset: 0x6BFE9, size: 0x8, addend: 0x0, symName: __ZSt4copyIN9__gnu_cxx17__normal_iteratorIPKdSt6vectorIdSaIdEEEENS1_IPdS6_EEET0_T_SB_SA_, symObjAddr: 0x23A8, symBinAddr: 0x10001AE24, symSize: 0x48 }
  - { offsetInCU: 0x9BDA, offset: 0x6C010, size: 0x8, addend: 0x0, symName: __ZNSt6vectorIdSaIdEE20_M_allocate_and_copyIN9__gnu_cxx17__normal_iteratorIPKdS1_EEEEPdmT_S9_, symObjAddr: 0x2300, symBinAddr: 0x10001AD7C, symSize: 0x84 }
  - { offsetInCU: 0x9BE2, offset: 0x6C018, size: 0x8, addend: 0x0, symName: __ZNSt6vectorIdSaIdEE5beginEv, symObjAddr: 0x2384, symBinAddr: 0x10001AE00, symSize: 0x24 }
  - { offsetInCU: 0x9C66, offset: 0x6C09C, size: 0x8, addend: 0x0, symName: __ZNKSt6vectorIdSaIdEE8capacityEv, symObjAddr: 0x22D8, symBinAddr: 0x10001AD54, symSize: 0x28 }
  - { offsetInCU: 0x9C6E, offset: 0x6C0A4, size: 0x8, addend: 0x0, symName: __ZNSt6vectorIdSaIdEE20_M_allocate_and_copyIN9__gnu_cxx17__normal_iteratorIPKdS1_EEEEPdmT_S9_, symObjAddr: 0x2300, symBinAddr: 0x10001AD7C, symSize: 0x84 }
  - { offsetInCU: 0x9CE5, offset: 0x6C11B, size: 0x8, addend: 0x0, symName: __ZSt15__alloc_on_copyISaIdEEvRT_RKS1_, symObjAddr: 0x22C0, symBinAddr: 0x10001AD3C, symSize: 0x18 }
  - { offsetInCU: 0x9CED, offset: 0x6C123, size: 0x8, addend: 0x0, symName: __ZNKSt6vectorIdSaIdEE8capacityEv, symObjAddr: 0x22D8, symBinAddr: 0x10001AD54, symSize: 0x28 }
  - { offsetInCU: 0x9CEE, offset: 0x6C124, size: 0x8, addend: 0x0, symName: __ZNSt12_Vector_baseIdSaIdEE13_M_deallocateEPdm, symObjAddr: 0x2284, symBinAddr: 0x10001AD00, symSize: 0x3C }
  - { offsetInCU: 0x9CF6, offset: 0x6C12C, size: 0x8, addend: 0x0, symName: __ZSt15__alloc_on_copyISaIdEEvRT_RKS1_, symObjAddr: 0x22C0, symBinAddr: 0x10001AD3C, symSize: 0x18 }
  - { offsetInCU: 0x9D45, offset: 0x6C17B, size: 0x8, addend: 0x0, symName: __ZNSt6vectorIdSaIdEE5clearEv, symObjAddr: 0x2258, symBinAddr: 0x10001ACD4, symSize: 0x2C }
  - { offsetInCU: 0x9D4D, offset: 0x6C183, size: 0x8, addend: 0x0, symName: __ZNSt12_Vector_baseIdSaIdEE13_M_deallocateEPdm, symObjAddr: 0x2284, symBinAddr: 0x10001AD00, symSize: 0x3C }
  - { offsetInCU: 0x9D94, offset: 0x6C1CA, size: 0x8, addend: 0x0, symName: __ZStneRKSaIdES1_, symObjAddr: 0x2240, symBinAddr: 0x10001ACBC, symSize: 0x18 }
  - { offsetInCU: 0x9D9C, offset: 0x6C1D2, size: 0x8, addend: 0x0, symName: __ZNSt6vectorIdSaIdEE5clearEv, symObjAddr: 0x2258, symBinAddr: 0x10001ACD4, symSize: 0x2C }
  - { offsetInCU: 0x9E91, offset: 0x6C2C7, size: 0x8, addend: 0x0, symName: __ZSt22__uninitialized_copy_aIN9__gnu_cxx17__normal_iteratorIPKdSt6vectorIdSaIdEEEEPddET0_T_SA_S9_RSaIT1_E, symObjAddr: 0x2210, symBinAddr: 0x10001AC8C, symSize: 0x30 }
  - { offsetInCU: 0x9E99, offset: 0x6C2CF, size: 0x8, addend: 0x0, symName: __ZStneRKSaIdES1_, symObjAddr: 0x2240, symBinAddr: 0x10001ACBC, symSize: 0x18 }
  - { offsetInCU: 0x9E52, offset: 0x6C288, size: 0x8, addend: 0x0, symName: __ZNKSt6vectorIdSaIdEE3endEv, symObjAddr: 0x21E8, symBinAddr: 0x10001AC64, symSize: 0x28 }
  - { offsetInCU: 0x9E5A, offset: 0x6C290, size: 0x8, addend: 0x0, symName: __ZSt22__uninitialized_copy_aIN9__gnu_cxx17__normal_iteratorIPKdSt6vectorIdSaIdEEEEPddET0_T_SA_S9_RSaIT1_E, symObjAddr: 0x2210, symBinAddr: 0x10001AC8C, symSize: 0x30 }
  - { offsetInCU: 0x9E81, offset: 0x6C2B7, size: 0x8, addend: 0x0, symName: __ZNKSt6vectorIdSaIdEE5beginEv, symObjAddr: 0x21C4, symBinAddr: 0x10001AC40, symSize: 0x24 }
  - { offsetInCU: 0x9E89, offset: 0x6C2BF, size: 0x8, addend: 0x0, symName: __ZNKSt6vectorIdSaIdEE3endEv, symObjAddr: 0x21E8, symBinAddr: 0x10001AC64, symSize: 0x28 }
  - { offsetInCU: 0x9EB0, offset: 0x6C2E6, size: 0x8, addend: 0x0, symName: __ZNKSt12_Vector_baseIdSaIdEE19_M_get_Tp_allocatorEv, symObjAddr: 0x21B0, symBinAddr: 0x10001AC2C, symSize: 0x14 }
  - { offsetInCU: 0x9EB8, offset: 0x6C2EE, size: 0x8, addend: 0x0, symName: __ZNKSt6vectorIdSaIdEE5beginEv, symObjAddr: 0x21C4, symBinAddr: 0x10001AC40, symSize: 0x24 }
  - { offsetInCU: 0x9EDF, offset: 0x6C315, size: 0x8, addend: 0x0, symName: __ZN9__gnu_cxx14__alloc_traitsISaIdEdE17_S_select_on_copyERKS1_, symObjAddr: 0x2180, symBinAddr: 0x10001ABFC, symSize: 0x30 }
  - { offsetInCU: 0x9EE7, offset: 0x6C31D, size: 0x8, addend: 0x0, symName: __ZNKSt12_Vector_baseIdSaIdEE19_M_get_Tp_allocatorEv, symObjAddr: 0x21B0, symBinAddr: 0x10001AC2C, symSize: 0x14 }
  - { offsetInCU: 0x9F10, offset: 0x6C346, size: 0x8, addend: 0x0, symName: __ZNKSt6vectorIdSaIdEE4sizeEv, symObjAddr: 0x2158, symBinAddr: 0x10001ABD4, symSize: 0x28 }
  - { offsetInCU: 0x9F18, offset: 0x6C34E, size: 0x8, addend: 0x0, symName: __ZN9__gnu_cxx14__alloc_traitsISaIdEdE17_S_select_on_copyERKS1_, symObjAddr: 0x2180, symBinAddr: 0x10001ABFC, symSize: 0x30 }
  - { offsetInCU: 0x9F3F, offset: 0x6C375, size: 0x8, addend: 0x0, symName: __ZNSt6vectorIdSaIdEE19_M_range_initializeIPKdEEvT_S5_St20forward_iterator_tag, symObjAddr: 0x20A0, symBinAddr: 0x10001AB1C, symSize: 0xB8 }
  - { offsetInCU: 0x9F47, offset: 0x6C37D, size: 0x8, addend: 0x0, symName: __ZNKSt6vectorIdSaIdEE4sizeEv, symObjAddr: 0x2158, symBinAddr: 0x10001ABD4, symSize: 0x28 }
  - { offsetInCU: 0xA022, offset: 0x6C458, size: 0x8, addend: 0x0, symName: __ZSt8distanceIPKdENSt15iterator_traitsIT_E15difference_typeES3_S3_, symObjAddr: 0x2064, symBinAddr: 0x10001AAE0, symSize: 0x3C }
  - { offsetInCU: 0xA02A, offset: 0x6C460, size: 0x8, addend: 0x0, symName: __ZNSt6vectorIdSaIdEE19_M_range_initializeIPKdEEvT_S5_St20forward_iterator_tag, symObjAddr: 0x20A0, symBinAddr: 0x10001AB1C, symSize: 0xB8 }
  - { offsetInCU: 0xA021, offset: 0x6C457, size: 0x8, addend: 0x0, symName: __ZNKSt16initializer_listIdE3endEv, symObjAddr: 0x202C, symBinAddr: 0x10001AAA8, symSize: 0x38 }
  - { offsetInCU: 0xA029, offset: 0x6C45F, size: 0x8, addend: 0x0, symName: __ZSt8distanceIPKdENSt15iterator_traitsIT_E15difference_typeES3_S3_, symObjAddr: 0x2064, symBinAddr: 0x10001AAE0, symSize: 0x3C }
  - { offsetInCU: 0xA050, offset: 0x6C486, size: 0x8, addend: 0x0, symName: __ZNKSt16initializer_listIdE5beginEv, symObjAddr: 0x2014, symBinAddr: 0x10001AA90, symSize: 0x18 }
  - { offsetInCU: 0xA058, offset: 0x6C48E, size: 0x8, addend: 0x0, symName: __ZNKSt16initializer_listIdE3endEv, symObjAddr: 0x202C, symBinAddr: 0x10001AAA8, symSize: 0x38 }
  - { offsetInCU: 0xA0CD, offset: 0x6C503, size: 0x8, addend: 0x0, symName: __ZNSt12_Vector_baseIdSaIdEEC2ERKS0_, symObjAddr: 0x1FEC, symBinAddr: 0x10001AA68, symSize: 0x28 }
  - { offsetInCU: 0xA0D5, offset: 0x6C50B, size: 0x8, addend: 0x0, symName: __ZNKSt16initializer_listIdE5beginEv, symObjAddr: 0x2014, symBinAddr: 0x10001AA90, symSize: 0x18 }
  - { offsetInCU: 0xA11F, offset: 0x6C555, size: 0x8, addend: 0x0, symName: __ZSt8_DestroyIPddEvT_S1_RSaIT0_E, symObjAddr: 0x1FC0, symBinAddr: 0x10001AA3C, symSize: 0x2C }
  - { offsetInCU: 0xA127, offset: 0x6C55D, size: 0x8, addend: 0x0, symName: __ZNSt12_Vector_baseIdSaIdEEC2ERKS0_, symObjAddr: 0x1FEC, symBinAddr: 0x10001AA68, symSize: 0x28 }
  - { offsetInCU: 0xA155, offset: 0x6C58B, size: 0x8, addend: 0x0, symName: __ZNSt12_Vector_baseIdSaIdEE19_M_get_Tp_allocatorEv, symObjAddr: 0x1FAC, symBinAddr: 0x10001AA28, symSize: 0x14 }
  - { offsetInCU: 0xA15D, offset: 0x6C593, size: 0x8, addend: 0x0, symName: __ZSt8_DestroyIPddEvT_S1_RSaIT0_E, symObjAddr: 0x1FC0, symBinAddr: 0x10001AA3C, symSize: 0x2C }
  - { offsetInCU: 0xA184, offset: 0x6C5BA, size: 0x8, addend: 0x0, symName: __ZNSt6vectorIdSaIdEE18_M_fill_initializeEmRKd, symObjAddr: 0x1F54, symBinAddr: 0x10001A9D0, symSize: 0x58 }
  - { offsetInCU: 0xA18C, offset: 0x6C5C2, size: 0x8, addend: 0x0, symName: __ZNSt12_Vector_baseIdSaIdEE19_M_get_Tp_allocatorEv, symObjAddr: 0x1FAC, symBinAddr: 0x10001AA28, symSize: 0x14 }
  - { offsetInCU: 0xA23B, offset: 0x6C671, size: 0x8, addend: 0x0, symName: __ZNSt12_Vector_baseIdSaIdEEC2EmRKS0_, symObjAddr: 0x1F00, symBinAddr: 0x10001A97C, symSize: 0x54 }
  - { offsetInCU: 0xA243, offset: 0x6C679, size: 0x8, addend: 0x0, symName: __ZNSt6vectorIdSaIdEE18_M_fill_initializeEmRKd, symObjAddr: 0x1F54, symBinAddr: 0x10001A9D0, symSize: 0x58 }
  - { offsetInCU: 0xA25C, offset: 0x6C692, size: 0x8, addend: 0x0, symName: __ZNSt6vectorIdSaIdEE17_S_check_init_lenEmRKS0_, symObjAddr: 0x1E98, symBinAddr: 0x10001A914, symSize: 0x68 }
  - { offsetInCU: 0xA264, offset: 0x6C69A, size: 0x8, addend: 0x0, symName: __ZNSt12_Vector_baseIdSaIdEEC2EmRKS0_, symObjAddr: 0x1F00, symBinAddr: 0x10001A97C, symSize: 0x54 }
  - { offsetInCU: 0xA2ED, offset: 0x6C723, size: 0x8, addend: 0x0, symName: __ZN9__gnu_cxx13new_allocatorIdED2Ev, symObjAddr: 0x1E84, symBinAddr: 0x10001A900, symSize: 0x14 }
  - { offsetInCU: 0xA2F5, offset: 0x6C72B, size: 0x8, addend: 0x0, symName: __ZNSt6vectorIdSaIdEE17_S_check_init_lenEmRKS0_, symObjAddr: 0x1E98, symBinAddr: 0x10001A914, symSize: 0x68 }
  - { offsetInCU: 0xA334, offset: 0x6C76A, size: 0x8, addend: 0x0, symName: __ZN9__gnu_cxx13new_allocatorIdEC2Ev, symObjAddr: 0x1E70, symBinAddr: 0x10001A8EC, symSize: 0x14 }
  - { offsetInCU: 0xA33C, offset: 0x6C772, size: 0x8, addend: 0x0, symName: __ZN9__gnu_cxx13new_allocatorIdED2Ev, symObjAddr: 0x1E84, symBinAddr: 0x10001A900, symSize: 0x14 }
  - { offsetInCU: 0xA364, offset: 0x6C79A, size: 0x8, addend: 0x0, symName: __ZSt3maxIdERKT_S2_S2_, symObjAddr: 0x1CF8, symBinAddr: 0x10001A8B0, symSize: 0x3C }
  - { offsetInCU: 0xA39C, offset: 0x6C7D2, size: 0x8, addend: 0x0, symName: __ZNSt6vectorIdSaIdEEaSEOS1_, symObjAddr: 0x1CB4, symBinAddr: 0x10001A86C, symSize: 0x44 }
  - { offsetInCU: 0xA3A4, offset: 0x6C7DA, size: 0x8, addend: 0x0, symName: __ZSt3maxIdERKT_S2_S2_, symObjAddr: 0x1CF8, symBinAddr: 0x10001A8B0, symSize: 0x3C }
  - { offsetInCU: 0xA43A, offset: 0x6C870, size: 0x8, addend: 0x0, symName: __ZNSt12_Vector_baseIdSaIdEED2Ev, symObjAddr: 0x1C64, symBinAddr: 0x10001A81C, symSize: 0x50 }
  - { offsetInCU: 0xA442, offset: 0x6C878, size: 0x8, addend: 0x0, symName: __ZNSt6vectorIdSaIdEEaSEOS1_, symObjAddr: 0x1CB4, symBinAddr: 0x10001A86C, symSize: 0x44 }
  - { offsetInCU: 0xA4A3, offset: 0x6C8D9, size: 0x8, addend: 0x0, symName: __ZNSt12_Vector_baseIdSaIdEE12_Vector_implC1EOS2_, symObjAddr: 0x1C14, symBinAddr: 0x10001A7CC, symSize: 0x50 }
  - { offsetInCU: 0xA4AB, offset: 0x6C8E1, size: 0x8, addend: 0x0, symName: __ZNSt12_Vector_baseIdSaIdEED2Ev, symObjAddr: 0x1C64, symBinAddr: 0x10001A81C, symSize: 0x50 }
  - { offsetInCU: 0xA50D, offset: 0x6C943, size: 0x8, addend: 0x0, symName: __ZSt4moveIRSt6vectorIdSaIdEEEONSt16remove_referenceIT_E4typeEOS5_, symObjAddr: 0x1C00, symBinAddr: 0x10001A7B8, symSize: 0x14 }
  - { offsetInCU: 0xA515, offset: 0x6C94B, size: 0x8, addend: 0x0, symName: __ZNSt12_Vector_baseIdSaIdEE12_Vector_implC1EOS2_, symObjAddr: 0x1C14, symBinAddr: 0x10001A7CC, symSize: 0x50 }
  - { offsetInCU: 0xA501, offset: 0x6C937, size: 0x8, addend: 0x0, symName: __ZNSt6vectorIdSaIdEEaSERKS1_, symObjAddr: 0x18F0, symBinAddr: 0x10001A4A8, symSize: 0x310 }
  - { offsetInCU: 0xA509, offset: 0x6C93F, size: 0x8, addend: 0x0, symName: __ZSt4moveIRSt6vectorIdSaIdEEEONSt16remove_referenceIT_E4typeEOS5_, symObjAddr: 0x1C00, symBinAddr: 0x10001A7B8, symSize: 0x14 }
  - { offsetInCU: 0xA590, offset: 0x6C9C6, size: 0x8, addend: 0x0, symName: __ZN9__gnu_cxx14__alloc_traitsISaIdEdE27_S_propagate_on_copy_assignEv, symObjAddr: 0x18E8, symBinAddr: 0x10001A4A0, symSize: 0x8 }
  - { offsetInCU: 0xA598, offset: 0x6C9CE, size: 0x8, addend: 0x0, symName: __ZNSt6vectorIdSaIdEEaSERKS1_, symObjAddr: 0x18F0, symBinAddr: 0x10001A4A8, symSize: 0x310 }
  - { offsetInCU: 0xA5F3, offset: 0x6CA29, size: 0x8, addend: 0x0, symName: __ZNSt6vectorIdSaIdEEC1ERKS1_, symObjAddr: 0x1804, symBinAddr: 0x10001A3BC, symSize: 0xE4 }
  - { offsetInCU: 0xA5FB, offset: 0x6CA31, size: 0x8, addend: 0x0, symName: __ZN9__gnu_cxx14__alloc_traitsISaIdEdE27_S_propagate_on_copy_assignEv, symObjAddr: 0x18E8, symBinAddr: 0x10001A4A0, symSize: 0x8 }
  - { offsetInCU: 0xA67F, offset: 0x6CAB5, size: 0x8, addend: 0x0, symName: __ZNSt6vectorIdSaIdEEC1ESt16initializer_listIdERKS0_, symObjAddr: 0x1794, symBinAddr: 0x10001A34C, symSize: 0x70 }
  - { offsetInCU: 0xA687, offset: 0x6CABD, size: 0x8, addend: 0x0, symName: __ZNSt6vectorIdSaIdEEC1ERKS1_, symObjAddr: 0x1804, symBinAddr: 0x10001A3BC, symSize: 0xE4 }
  - { offsetInCU: 0xA6D1, offset: 0x6CB07, size: 0x8, addend: 0x0, symName: __ZNSt6vectorIdSaIdEED1Ev, symObjAddr: 0x1744, symBinAddr: 0x10001A2FC, symSize: 0x50 }
  - { offsetInCU: 0xA6D9, offset: 0x6CB0F, size: 0x8, addend: 0x0, symName: __ZNSt6vectorIdSaIdEEC1ESt16initializer_listIdERKS0_, symObjAddr: 0x1794, symBinAddr: 0x10001A34C, symSize: 0x70 }
  - { offsetInCU: 0xA753, offset: 0x6CB89, size: 0x8, addend: 0x0, symName: __ZNSt6vectorIdSaIdEEC1EmRKdRKS0_, symObjAddr: 0x16D4, symBinAddr: 0x10001A28C, symSize: 0x70 }
  - { offsetInCU: 0xA75B, offset: 0x6CB91, size: 0x8, addend: 0x0, symName: __ZNSt6vectorIdSaIdEED1Ev, symObjAddr: 0x1744, symBinAddr: 0x10001A2FC, symSize: 0x50 }
  - { offsetInCU: 0xA7B8, offset: 0x6CBEE, size: 0x8, addend: 0x0, symName: __ZNSaIdED1Ev, symObjAddr: 0x16B4, symBinAddr: 0x10001A26C, symSize: 0x20 }
  - { offsetInCU: 0xA7C0, offset: 0x6CBF6, size: 0x8, addend: 0x0, symName: __ZNSt6vectorIdSaIdEEC1EmRKdRKS0_, symObjAddr: 0x16D4, symBinAddr: 0x10001A28C, symSize: 0x70 }
  - { offsetInCU: 0xA7E6, offset: 0x6CC1C, size: 0x8, addend: 0x0, symName: __ZNSaIdED2Ev, symObjAddr: 0x1694, symBinAddr: 0x10001A24C, symSize: 0x20 }
  - { offsetInCU: 0xA7EE, offset: 0x6CC24, size: 0x8, addend: 0x0, symName: __ZNSaIdED1Ev, symObjAddr: 0x16B4, symBinAddr: 0x10001A26C, symSize: 0x20 }
  - { offsetInCU: 0xA82D, offset: 0x6CC63, size: 0x8, addend: 0x0, symName: __ZNSaIdEC1Ev, symObjAddr: 0x1674, symBinAddr: 0x10001A22C, symSize: 0x20 }
  - { offsetInCU: 0xA835, offset: 0x6CC6B, size: 0x8, addend: 0x0, symName: __ZNSaIdED2Ev, symObjAddr: 0x1694, symBinAddr: 0x10001A24C, symSize: 0x20 }
  - { offsetInCU: 0xA84E, offset: 0x6CC84, size: 0x8, addend: 0x0, symName: __ZNKSt6vectorIdSaIdEEixEm, symObjAddr: 0x164C, symBinAddr: 0x10001A204, symSize: 0x28 }
  - { offsetInCU: 0xA856, offset: 0x6CC8C, size: 0x8, addend: 0x0, symName: __ZNSaIdEC1Ev, symObjAddr: 0x1674, symBinAddr: 0x10001A22C, symSize: 0x20 }
  - { offsetInCU: 0xA894, offset: 0x6CCCA, size: 0x8, addend: 0x0, symName: __ZN13Four_momentum22check_mass_consistencyEv, symObjAddr: 0x1280, symBinAddr: 0x100019FA0, symSize: 0x264 }
  - { offsetInCU: 0xA926, offset: 0x6CD5C, size: 0x8, addend: 0x0, symName: __ZNK13Four_momentum14invariant_massEv, symObjAddr: 0x1244, symBinAddr: 0x100019F64, symSize: 0x3C }
  - { offsetInCU: 0xA92E, offset: 0x6CD64, size: 0x8, addend: 0x0, symName: __ZN13Four_momentum22check_mass_consistencyEv, symObjAddr: 0x1280, symBinAddr: 0x100019FA0, symSize: 0x264 }
  - { offsetInCU: 0xA959, offset: 0x6CD8F, size: 0x8, addend: 0x0, symName: __ZNK13Four_momentummlERKS_, symObjAddr: 0x11B0, symBinAddr: 0x100019ED0, symSize: 0x94 }
  - { offsetInCU: 0xA961, offset: 0x6CD97, size: 0x8, addend: 0x0, symName: __ZNK13Four_momentum14invariant_massEv, symObjAddr: 0x1244, symBinAddr: 0x100019F64, symSize: 0x3C }
  - { offsetInCU: 0xA99F, offset: 0x6CDD5, size: 0x8, addend: 0x0, symName: __ZN13Four_momentumpLERKS_, symObjAddr: 0x10EC, symBinAddr: 0x100019E0C, symSize: 0xC4 }
  - { offsetInCU: 0xA9A7, offset: 0x6CDDD, size: 0x8, addend: 0x0, symName: __ZNK13Four_momentummlERKS_, symObjAddr: 0x11B0, symBinAddr: 0x100019ED0, symSize: 0x94 }
  - { offsetInCU: 0xA9E5, offset: 0x6CE1B, size: 0x8, addend: 0x0, symName: __ZNK13Four_momentummiERKS_, symObjAddr: 0xFD8, symBinAddr: 0x100019CF8, symSize: 0x114 }
  - { offsetInCU: 0xA9ED, offset: 0x6CE23, size: 0x8, addend: 0x0, symName: __ZN13Four_momentumpLERKS_, symObjAddr: 0x10EC, symBinAddr: 0x100019E0C, symSize: 0xC4 }
  - { offsetInCU: 0xAA2B, offset: 0x6CE61, size: 0x8, addend: 0x0, symName: __ZNK13Four_momentumplERKS_, symObjAddr: 0xEC4, symBinAddr: 0x100019BE4, symSize: 0x114 }
  - { offsetInCU: 0xAA33, offset: 0x6CE69, size: 0x8, addend: 0x0, symName: __ZNK13Four_momentummiERKS_, symObjAddr: 0xFD8, symBinAddr: 0x100019CF8, symSize: 0x114 }
  - { offsetInCU: 0xAA71, offset: 0x6CEA7, size: 0x8, addend: 0x0, symName: __ZNK13Four_momentum19print_four_momentumEv, symObjAddr: 0xCA0, symBinAddr: 0x1000199C0, symSize: 0x224 }
  - { offsetInCU: 0xAA79, offset: 0x6CEAF, size: 0x8, addend: 0x0, symName: __ZNK13Four_momentumplERKS_, symObjAddr: 0xEC4, symBinAddr: 0x100019BE4, symSize: 0x114 }
  - { offsetInCU: 0xAAA4, offset: 0x6CEDA, size: 0x8, addend: 0x0, symName: __ZN13Four_momentum4setEEd, symObjAddr: 0xC2C, symBinAddr: 0x10001994C, symSize: 0x74 }
  - { offsetInCU: 0xAAAC, offset: 0x6CEE2, size: 0x8, addend: 0x0, symName: __ZNK13Four_momentum19print_four_momentumEv, symObjAddr: 0xCA0, symBinAddr: 0x1000199C0, symSize: 0x224 }
  - { offsetInCU: 0xAB29, offset: 0x6CF5F, size: 0x8, addend: 0x0, symName: __ZN13Four_momentumD1Ev, symObjAddr: 0xBC4, symBinAddr: 0x1000198E4, symSize: 0x68 }
  - { offsetInCU: 0xAB31, offset: 0x6CF67, size: 0x8, addend: 0x0, symName: __ZN13Four_momentum4setEEd, symObjAddr: 0xC2C, symBinAddr: 0x10001994C, symSize: 0x74 }
  - { offsetInCU: 0xAB57, offset: 0x6CF8D, size: 0x8, addend: 0x0, symName: __ZN13Four_momentumD2Ev, symObjAddr: 0xB5C, symBinAddr: 0x10001987C, symSize: 0x68 }
  - { offsetInCU: 0xAB5F, offset: 0x6CF95, size: 0x8, addend: 0x0, symName: __ZN13Four_momentumD1Ev, symObjAddr: 0xBC4, symBinAddr: 0x1000198E4, symSize: 0x68 }
  - { offsetInCU: 0xAB71, offset: 0x6CFA7, size: 0x8, addend: 0x0, symName: __ZN13Four_momentumaSEOS_, symObjAddr: 0xAE0, symBinAddr: 0x100019800, symSize: 0x7C }
  - { offsetInCU: 0xAB79, offset: 0x6CFAF, size: 0x8, addend: 0x0, symName: __ZN13Four_momentumD2Ev, symObjAddr: 0xB5C, symBinAddr: 0x10001987C, symSize: 0x68 }
  - { offsetInCU: 0xABB5, offset: 0x6CFEB, size: 0x8, addend: 0x0, symName: __ZN9__gnu_cxx14__alloc_traitsISaIdEdE15_S_always_equalEv, symObjAddr: 0xAD8, symBinAddr: 0x1000197F8, symSize: 0x8 }
  - { offsetInCU: 0xABBD, offset: 0x6CFF3, size: 0x8, addend: 0x0, symName: __ZN13Four_momentumaSEOS_, symObjAddr: 0xAE0, symBinAddr: 0x100019800, symSize: 0x7C }
  - { offsetInCU: 0xAC18, offset: 0x6D04E, size: 0x8, addend: 0x0, symName: __ZN13Four_momentumC1EOS_, symObjAddr: 0xA54, symBinAddr: 0x100019774, symSize: 0x84 }
  - { offsetInCU: 0xAC20, offset: 0x6D056, size: 0x8, addend: 0x0, symName: __ZN9__gnu_cxx14__alloc_traitsISaIdEdE15_S_always_equalEv, symObjAddr: 0xAD8, symBinAddr: 0x1000197F8, symSize: 0x8 }
  - { offsetInCU: 0xAC52, offset: 0x6D088, size: 0x8, addend: 0x0, symName: __ZN13Four_momentumC2EOS_, symObjAddr: 0x9D0, symBinAddr: 0x1000196F0, symSize: 0x84 }
  - { offsetInCU: 0xAC5A, offset: 0x6D090, size: 0x8, addend: 0x0, symName: __ZN13Four_momentumC1EOS_, symObjAddr: 0xA54, symBinAddr: 0x100019774, symSize: 0x84 }
  - { offsetInCU: 0xACB1, offset: 0x6D0E7, size: 0x8, addend: 0x0, symName: __ZNSt6vectorIdSaIdEEC1EOS1_, symObjAddr: 0x9A8, symBinAddr: 0x1000196C8, symSize: 0x28 }
  - { offsetInCU: 0xACB9, offset: 0x6D0EF, size: 0x8, addend: 0x0, symName: __ZN13Four_momentumC2EOS_, symObjAddr: 0x9D0, symBinAddr: 0x1000196F0, symSize: 0x84 }
  - { offsetInCU: 0xAD14, offset: 0x6D14A, size: 0x8, addend: 0x0, symName: __ZNSt12_Vector_baseIdSaIdEEC2EOS1_, symObjAddr: 0x980, symBinAddr: 0x1000196A0, symSize: 0x28 }
  - { offsetInCU: 0xAD1C, offset: 0x6D152, size: 0x8, addend: 0x0, symName: __ZNSt6vectorIdSaIdEEC1EOS1_, symObjAddr: 0x9A8, symBinAddr: 0x1000196C8, symSize: 0x28 }
  - { offsetInCU: 0xAD84, offset: 0x6D1BA, size: 0x8, addend: 0x0, symName: __ZNSt12_Vector_baseIdSaIdEE12_Vector_implD1Ev, symObjAddr: 0x960, symBinAddr: 0x100019680, symSize: 0x20 }
  - { offsetInCU: 0xAD8C, offset: 0x6D1C2, size: 0x8, addend: 0x0, symName: __ZNSt12_Vector_baseIdSaIdEEC2EOS1_, symObjAddr: 0x980, symBinAddr: 0x1000196A0, symSize: 0x28 }
  - { offsetInCU: 0xAD87, offset: 0x6D1BD, size: 0x8, addend: 0x0, symName: __ZN13Four_momentumaSERKS_, symObjAddr: 0x8EC, symBinAddr: 0x10001960C, symSize: 0x74 }
  - { offsetInCU: 0xAD8F, offset: 0x6D1C5, size: 0x8, addend: 0x0, symName: __ZNSt12_Vector_baseIdSaIdEE12_Vector_implD1Ev, symObjAddr: 0x960, symBinAddr: 0x100019680, symSize: 0x20 }
  - { offsetInCU: 0xAE12, offset: 0x6D248, size: 0x8, addend: 0x0, symName: __ZN13Four_momentumC1ERKS_, symObjAddr: 0x850, symBinAddr: 0x100019570, symSize: 0x9C }
  - { offsetInCU: 0xAE1A, offset: 0x6D250, size: 0x8, addend: 0x0, symName: __ZN13Four_momentumaSERKS_, symObjAddr: 0x8EC, symBinAddr: 0x10001960C, symSize: 0x74 }
  - { offsetInCU: 0xAE4C, offset: 0x6D282, size: 0x8, addend: 0x0, symName: __ZN13Four_momentumC2ERKS_, symObjAddr: 0x7B4, symBinAddr: 0x1000194D4, symSize: 0x9C }
  - { offsetInCU: 0xAE54, offset: 0x6D28A, size: 0x8, addend: 0x0, symName: __ZN13Four_momentumC1ERKS_, symObjAddr: 0x850, symBinAddr: 0x100019570, symSize: 0x9C }
  - { offsetInCU: 0xAF2E, offset: 0x6D364, size: 0x8, addend: 0x0, symName: __ZN13Four_momentumC1ERKNSt7__cxx1112basic_stringIcSt11char_traitsIcESaIcEEEdddd, symObjAddr: 0x674, symBinAddr: 0x100019394, symSize: 0x140 }
  - { offsetInCU: 0xAF36, offset: 0x6D36C, size: 0x8, addend: 0x0, symName: __ZN13Four_momentumC2ERKS_, symObjAddr: 0x7B4, symBinAddr: 0x1000194D4, symSize: 0x9C }
  - { offsetInCU: 0xAF9C, offset: 0x6D3D2, size: 0x8, addend: 0x0, symName: __ZN13Four_momentumC2ERKNSt7__cxx1112basic_stringIcSt11char_traitsIcESaIcEEEdddd, symObjAddr: 0x534, symBinAddr: 0x100019254, symSize: 0x140 }
  - { offsetInCU: 0xAFA4, offset: 0x6D3DA, size: 0x8, addend: 0x0, symName: __ZN13Four_momentumC1ERKNSt7__cxx1112basic_stringIcSt11char_traitsIcESaIcEEEdddd, symObjAddr: 0x674, symBinAddr: 0x100019394, symSize: 0x140 }
  - { offsetInCU: 0xAFEE, offset: 0x6D424, size: 0x8, addend: 0x0, symName: __ZN13Four_momentumC1Ev, symObjAddr: 0x460, symBinAddr: 0x100019180, symSize: 0xD4 }
  - { offsetInCU: 0xAFF6, offset: 0x6D42C, size: 0x8, addend: 0x0, symName: __ZN13Four_momentumC2ERKNSt7__cxx1112basic_stringIcSt11char_traitsIcESaIcEEEdddd, symObjAddr: 0x534, symBinAddr: 0x100019254, symSize: 0x140 }
  - { offsetInCU: 0xB01C, offset: 0x6D452, size: 0x8, addend: 0x0, symName: __ZN13Four_momentumC2Ev, symObjAddr: 0x38C, symBinAddr: 0x1000190AC, symSize: 0xD4 }
  - { offsetInCU: 0xB024, offset: 0x6D45A, size: 0x8, addend: 0x0, symName: __ZN13Four_momentumC1Ev, symObjAddr: 0x460, symBinAddr: 0x100019180, symSize: 0xD4 }
  - { offsetInCU: 0xB033, offset: 0x6D469, size: 0x8, addend: 0x0, symName: __ZNK13Four_momentum5getpzEv, symObjAddr: 0x368, symBinAddr: 0x100019088, symSize: 0x24 }
  - { offsetInCU: 0xB03B, offset: 0x6D471, size: 0x8, addend: 0x0, symName: __ZN13Four_momentumC2Ev, symObjAddr: 0x38C, symBinAddr: 0x1000190AC, symSize: 0xD4 }
  - { offsetInCU: 0xB062, offset: 0x6D498, size: 0x8, addend: 0x0, symName: __ZNK13Four_momentum5getpyEv, symObjAddr: 0x344, symBinAddr: 0x100019064, symSize: 0x24 }
  - { offsetInCU: 0xB06A, offset: 0x6D4A0, size: 0x8, addend: 0x0, symName: __ZNK13Four_momentum5getpzEv, symObjAddr: 0x368, symBinAddr: 0x100019088, symSize: 0x24 }
  - { offsetInCU: 0xB091, offset: 0x6D4C7, size: 0x8, addend: 0x0, symName: __ZNK13Four_momentum5getpxEv, symObjAddr: 0x320, symBinAddr: 0x100019040, symSize: 0x24 }
  - { offsetInCU: 0xB099, offset: 0x6D4CF, size: 0x8, addend: 0x0, symName: __ZNK13Four_momentum5getpyEv, symObjAddr: 0x344, symBinAddr: 0x100019064, symSize: 0x24 }
  - { offsetInCU: 0xB0C0, offset: 0x6D4F6, size: 0x8, addend: 0x0, symName: __ZNK13Four_momentum4getEEv, symObjAddr: 0x2FC, symBinAddr: 0x10001901C, symSize: 0x24 }
  - { offsetInCU: 0xB0C8, offset: 0x6D4FE, size: 0x8, addend: 0x0, symName: __ZNK13Four_momentum5getpxEv, symObjAddr: 0x320, symBinAddr: 0x100019040, symSize: 0x24 }
  - { offsetInCU: 0xB11F, offset: 0x6D555, size: 0x8, addend: 0x0, symName: __ZSt17__size_to_integerm, symObjAddr: 0x0, symBinAddr: 0x100019008, symSize: 0x14 }
  - { offsetInCU: 0xEF, offset: 0x6D650, size: 0x8, addend: 0x0, symName: __ZSt19piecewise_construct, symObjAddr: 0x21F8, symBinAddr: 0x1000271F0, symSize: 0x0 }
  - { offsetInCU: 0x119A, offset: 0x6E6FB, size: 0x8, addend: 0x0, symName: __ZSt19piecewise_construct, symObjAddr: 0x21F8, symBinAddr: 0x1000271F0, symSize: 0x0 }
  - { offsetInCU: 0x50A2, offset: 0x72603, size: 0x8, addend: 0x0, symName: __ZStL8__ioinit, symObjAddr: 0x5BB88, symBinAddr: 0x1000410B7, symSize: 0x0 }
  - { offsetInCU: 0x563E, offset: 0x72B9F, size: 0x8, addend: 0x0, symName: __ZN9__gnu_cxxL21__default_lock_policyE, symObjAddr: 0x21FC, symBinAddr: 0x1000271F4, symSize: 0x0 }
  - { offsetInCU: 0x56A6, offset: 0x72C07, size: 0x8, addend: 0x0, symName: __ZN6__pstl9execution2v1L3seqE, symObjAddr: 0x2200, symBinAddr: 0x1000271F8, symSize: 0x0 }
  - { offsetInCU: 0x56C0, offset: 0x72C21, size: 0x8, addend: 0x0, symName: __ZN6__pstl9execution2v1L3parE, symObjAddr: 0x2201, symBinAddr: 0x1000271F9, symSize: 0x0 }
  - { offsetInCU: 0x56E0, offset: 0x72C41, size: 0x8, addend: 0x0, symName: __ZN6__pstl9execution2v1L9par_unseqE, symObjAddr: 0x2202, symBinAddr: 0x1000271FA, symSize: 0x0 }
  - { offsetInCU: 0x56F6, offset: 0x72C57, size: 0x8, addend: 0x0, symName: __ZN6__pstl9execution2v1L5unseqE, symObjAddr: 0x2203, symBinAddr: 0x1000271FB, symSize: 0x0 }
  - { offsetInCU: 0xBA81, offset: 0x78FE2, size: 0x8, addend: 0x0, symName: __GLOBAL__sub_I_particle_container.cpp, symObjAddr: 0x21DC, symBinAddr: 0x10001D6FC, symSize: 0x1C }
  - { offsetInCU: 0xBA89, offset: 0x78FEA, size: 0x8, addend: 0x0, symName: __ZSt19piecewise_construct, symObjAddr: 0x21F8, symBinAddr: 0x1000271F0, symSize: 0x0 }
  - { offsetInCU: 0xBA9F, offset: 0x79000, size: 0x8, addend: 0x0, symName: __Z41__static_initialization_and_destruction_0ii, symObjAddr: 0x217C, symBinAddr: 0x10001D69C, symSize: 0x60 }
  - { offsetInCU: 0xBAA7, offset: 0x79008, size: 0x8, addend: 0x0, symName: __GLOBAL__sub_I_particle_container.cpp, symObjAddr: 0x21DC, symBinAddr: 0x10001D6FC, symSize: 0x1C }
  - { offsetInCU: 0xBAB8, offset: 0x79019, size: 0x8, addend: 0x0, symName: __ZNSt10_Head_baseILm0ERKNSt7__cxx1112basic_stringIcSt11char_traitsIcESaIcEEELb0EE7_M_headERS8_, symObjAddr: 0x2164, symBinAddr: 0x10001D684, symSize: 0x18 }
  - { offsetInCU: 0xBAC0, offset: 0x79021, size: 0x8, addend: 0x0, symName: __Z41__static_initialization_and_destruction_0ii, symObjAddr: 0x217C, symBinAddr: 0x10001D69C, symSize: 0x60 }
  - { offsetInCU: 0xBAE9, offset: 0x7904A, size: 0x8, addend: 0x0, symName: __ZNSt11_Tuple_implILm0EJRKNSt7__cxx1112basic_stringIcSt11char_traitsIcESaIcEEEEE7_M_headERS8_, symObjAddr: 0x2148, symBinAddr: 0x10001D668, symSize: 0x1C }
  - { offsetInCU: 0xBAF1, offset: 0x79052, size: 0x8, addend: 0x0, symName: __ZNSt10_Head_baseILm0ERKNSt7__cxx1112basic_stringIcSt11char_traitsIcESaIcEEELb0EE7_M_headERS8_, symObjAddr: 0x2164, symBinAddr: 0x10001D684, symSize: 0x18 }
  - { offsetInCU: 0xBBCE, offset: 0x7912F, size: 0x8, addend: 0x0, symName: __ZSt12__get_helperILm0ERKNSt7__cxx1112basic_stringIcSt11char_traitsIcESaIcEEEJEERT0_RSt11_Tuple_implIXT_EJS8_DpT1_EE, symObjAddr: 0x212C, symBinAddr: 0x10001D64C, symSize: 0x1C }
  - { offsetInCU: 0xBBD6, offset: 0x79137, size: 0x8, addend: 0x0, symName: __ZNSt11_Tuple_implILm0EJRKNSt7__cxx1112basic_stringIcSt11char_traitsIcESaIcEEEEE7_M_headERS8_, symObjAddr: 0x2148, symBinAddr: 0x10001D668, symSize: 0x1C }
  - { offsetInCU: 0xBC5B, offset: 0x791BC, size: 0x8, addend: 0x0, symName: __ZSt3getILm0EJRKNSt7__cxx1112basic_stringIcSt11char_traitsIcESaIcEEEEERNSt13tuple_elementIXT_ESt5tupleIJDpT0_EEE4typeERSC_, symObjAddr: 0x20FC, symBinAddr: 0x10001D630, symSize: 0x1C }
  - { offsetInCU: 0xBCFA, offset: 0x7925B, size: 0x8, addend: 0x0, symName: __ZNSt4pairIKNSt7__cxx1112basic_stringIcSt11char_traitsIcESaIcEEEiEC1IJRS6_EJLm0EEJEJEEERSt5tupleIJDpT_EERSA_IJDpT1_EESt12_Index_tupleIJXspT0_EEESJ_IJXspT2_EEE, symObjAddr: 0x20A8, symBinAddr: 0x10001D5DC, symSize: 0x54 }
  - { offsetInCU: 0xBD02, offset: 0x79263, size: 0x8, addend: 0x0, symName: __ZSt3getILm0EJRKNSt7__cxx1112basic_stringIcSt11char_traitsIcESaIcEEEEERNSt13tuple_elementIXT_ESt5tupleIJDpT0_EEE4typeERSC_, symObjAddr: 0x20FC, symBinAddr: 0x10001D630, symSize: 0x1C }
  - { offsetInCU: 0xBDCC, offset: 0x7932D, size: 0x8, addend: 0x0, symName: __ZNSt4pairIKNSt7__cxx1112basic_stringIcSt11char_traitsIcESaIcEEEiEC1IJRS6_EJEEESt21piecewise_construct_tSt5tupleIJDpT_EESB_IJDpT0_EE, symObjAddr: 0x206C, symBinAddr: 0x10001D5A0, symSize: 0x3C }
  - { offsetInCU: 0xBDD4, offset: 0x79335, size: 0x8, addend: 0x0, symName: __ZNSt4pairIKNSt7__cxx1112basic_stringIcSt11char_traitsIcESaIcEEEiEC1IJRS6_EJLm0EEJEJEEERSt5tupleIJDpT_EERSA_IJDpT1_EESt12_Index_tupleIJXspT0_EEESJ_IJXspT2_EEE, symObjAddr: 0x20A8, symBinAddr: 0x10001D5DC, symSize: 0x54 }
  - { offsetInCU: 0xBE31, offset: 0x79392, size: 0x8, addend: 0x0, symName: __ZNSt11_Tuple_implILm0EJRKNSt7__cxx1112basic_stringIcSt11char_traitsIcESaIcEEEEEC2EOS8_, symObjAddr: 0x2044, symBinAddr: 0x10001D578, symSize: 0x28 }
  - { offsetInCU: 0xBE39, offset: 0x7939A, size: 0x8, addend: 0x0, symName: __ZNSt4pairIKNSt7__cxx1112basic_stringIcSt11char_traitsIcESaIcEEEiEC1IJRS6_EJEEESt21piecewise_construct_tSt5tupleIJDpT_EESB_IJDpT0_EE, symObjAddr: 0x206C, symBinAddr: 0x10001D5A0, symSize: 0x3C }
  - { offsetInCU: 0xBE17, offset: 0x79378, size: 0x8, addend: 0x0, symName: __ZNK9__gnu_cxx16__aligned_membufISt4pairIKNSt7__cxx1112basic_stringIcSt11char_traitsIcESaIcEEEiEE7_M_addrEv, symObjAddr: 0x201C, symBinAddr: 0x10001D564, symSize: 0x14 }
  - { offsetInCU: 0xBF2C, offset: 0x7948D, size: 0x8, addend: 0x0, symName: __ZSt7forwardIRPSt13_Rb_tree_nodeISt4pairIKNSt7__cxx1112basic_stringIcSt11char_traitsIcESaIcEEEiEEEOT_RNSt16remove_referenceISD_E4typeE, symObjAddr: 0x2008, symBinAddr: 0x10001D550, symSize: 0x14 }
  - { offsetInCU: 0xBF34, offset: 0x79495, size: 0x8, addend: 0x0, symName: __ZNK9__gnu_cxx16__aligned_membufISt4pairIKNSt7__cxx1112basic_stringIcSt11char_traitsIcESaIcEEEiEE7_M_addrEv, symObjAddr: 0x201C, symBinAddr: 0x10001D564, symSize: 0x14 }
  - { offsetInCU: 0xBEB3, offset: 0x79414, size: 0x8, addend: 0x0, symName: __ZN9__gnu_cxx13new_allocatorISt13_Rb_tree_nodeISt4pairIKNSt7__cxx1112basic_stringIcSt11char_traitsIcESaIcEEEiEEE9constructISA_JRKSt21piecewise_construct_tSt5tupleIJRS9_EESH_IJEEEEEvPT_DpOT0_, symObjAddr: 0x1F68, symBinAddr: 0x10001D4B0, symSize: 0xA0 }
  - { offsetInCU: 0xBEBB, offset: 0x7941C, size: 0x8, addend: 0x0, symName: __ZSt7forwardIRPSt13_Rb_tree_nodeISt4pairIKNSt7__cxx1112basic_stringIcSt11char_traitsIcESaIcEEEiEEEOT_RNSt16remove_referenceISD_E4typeE, symObjAddr: 0x2008, symBinAddr: 0x10001D550, symSize: 0x14 }
  - { offsetInCU: 0xBFBC, offset: 0x7951D, size: 0x8, addend: 0x0, symName: __ZNSt5tupleIJRKNSt7__cxx1112basic_stringIcSt11char_traitsIcESaIcEEEEEC1EOS8_, symObjAddr: 0x1F40, symBinAddr: 0x10001D488, symSize: 0x28 }
  - { offsetInCU: 0xBFC4, offset: 0x79525, size: 0x8, addend: 0x0, symName: __ZN9__gnu_cxx13new_allocatorISt13_Rb_tree_nodeISt4pairIKNSt7__cxx1112basic_stringIcSt11char_traitsIcESaIcEEEiEEE9constructISA_JRKSt21piecewise_construct_tSt5tupleIJRS9_EESH_IJEEEEEvPT_DpOT0_, symObjAddr: 0x1F68, symBinAddr: 0x10001D4B0, symSize: 0xA0 }
  - { offsetInCU: 0xBFA9, offset: 0x7950A, size: 0x8, addend: 0x0, symName: __ZN9__gnu_cxx13new_allocatorISt13_Rb_tree_nodeISt4pairIKNSt7__cxx1112basic_stringIcSt11char_traitsIcESaIcEEEiEEE8allocateEmPKv, symObjAddr: 0x1EB0, symBinAddr: 0x10001D3F8, symSize: 0x90 }
  - { offsetInCU: 0xBFB1, offset: 0x79512, size: 0x8, addend: 0x0, symName: __ZNSt5tupleIJRKNSt7__cxx1112basic_stringIcSt11char_traitsIcESaIcEEEEEC1EOS8_, symObjAddr: 0x1F40, symBinAddr: 0x10001D488, symSize: 0x28 }
  - { offsetInCU: 0xC00B, offset: 0x7956C, size: 0x8, addend: 0x0, symName: __ZNK9__gnu_cxx13new_allocatorISt13_Rb_tree_nodeISt4pairIKNSt7__cxx1112basic_stringIcSt11char_traitsIcESaIcEEEiEEE11_M_max_sizeEv, symObjAddr: 0x1E90, symBinAddr: 0x10001D3D8, symSize: 0x20 }
  - { offsetInCU: 0xC013, offset: 0x79574, size: 0x8, addend: 0x0, symName: __ZN9__gnu_cxx13new_allocatorISt13_Rb_tree_nodeISt4pairIKNSt7__cxx1112basic_stringIcSt11char_traitsIcESaIcEEEiEEE8allocateEmPKv, symObjAddr: 0x1EB0, symBinAddr: 0x10001D3F8, symSize: 0x90 }
  - { offsetInCU: 0xC03A, offset: 0x7959B, size: 0x8, addend: 0x0, symName: __ZN9__gnu_cxx13new_allocatorISt10_List_nodeISt10shared_ptrI8ParticleEEE8allocateEmPKv, symObjAddr: 0x1D98, symBinAddr: 0x10001D360, symSize: 0x78 }
  - { offsetInCU: 0xC09C, offset: 0x795FD, size: 0x8, addend: 0x0, symName: __ZNK9__gnu_cxx13new_allocatorISt10_List_nodeISt10shared_ptrI8ParticleEEE11_M_max_sizeEv, symObjAddr: 0x1D84, symBinAddr: 0x10001D34C, symSize: 0x14 }
  - { offsetInCU: 0xC0A4, offset: 0x79605, size: 0x8, addend: 0x0, symName: __ZN9__gnu_cxx13new_allocatorISt10_List_nodeISt10shared_ptrI8ParticleEEE8allocateEmPKv, symObjAddr: 0x1D98, symBinAddr: 0x10001D360, symSize: 0x78 }
  - { offsetInCU: 0xC0CB, offset: 0x7962C, size: 0x8, addend: 0x0, symName: __ZNK9__gnu_cxx16__aligned_membufISt4pairIKNSt7__cxx1112basic_stringIcSt11char_traitsIcESaIcEEEiEE6_M_ptrEv, symObjAddr: 0x1D4C, symBinAddr: 0x10001D330, symSize: 0x1C }
  - { offsetInCU: 0xC1D9, offset: 0x7973A, size: 0x8, addend: 0x0, symName: __ZNSt4pairIPSt18_Rb_tree_node_baseS1_EC1IRPSt13_Rb_tree_nodeIS_IKNSt7__cxx1112basic_stringIcSt11char_traitsIcESaIcEEEiEERS1_Lb1EEEOT_OT0_, symObjAddr: 0x1D04, symBinAddr: 0x10001D2E8, symSize: 0x48 }
  - { offsetInCU: 0xC1E1, offset: 0x79742, size: 0x8, addend: 0x0, symName: __ZNK9__gnu_cxx16__aligned_membufISt4pairIKNSt7__cxx1112basic_stringIcSt11char_traitsIcESaIcEEEiEE6_M_ptrEv, symObjAddr: 0x1D4C, symBinAddr: 0x10001D330, symSize: 0x1C }
  - { offsetInCU: 0xC221, offset: 0x79782, size: 0x8, addend: 0x0, symName: __ZSt7forwardIRPSt18_Rb_tree_node_baseEOT_RNSt16remove_referenceIS3_E4typeE, symObjAddr: 0x1CC8, symBinAddr: 0x10001D2D4, symSize: 0x14 }
  - { offsetInCU: 0xC204, offset: 0x79765, size: 0x8, addend: 0x0, symName: __ZNSt16allocator_traitsISaISt13_Rb_tree_nodeISt4pairIKNSt7__cxx1112basic_stringIcSt11char_traitsIcESaIcEEEiEEEE9constructIS9_JRKSt21piecewise_construct_tSt5tupleIJRS8_EESH_IJEEEEEvRSB_PT_DpOT0_, symObjAddr: 0x1C60, symBinAddr: 0x10001D26C, symSize: 0x68 }
  - { offsetInCU: 0xC20C, offset: 0x7976D, size: 0x8, addend: 0x0, symName: __ZSt7forwardIRPSt18_Rb_tree_node_baseEOT_RNSt16remove_referenceIS3_E4typeE, symObjAddr: 0x1CC8, symBinAddr: 0x10001D2D4, symSize: 0x14 }
  - { offsetInCU: 0xC2A3, offset: 0x79804, size: 0x8, addend: 0x0, symName: __ZNSt16allocator_traitsISaISt13_Rb_tree_nodeISt4pairIKNSt7__cxx1112basic_stringIcSt11char_traitsIcESaIcEEEiEEEE8allocateERSB_m, symObjAddr: 0x1C38, symBinAddr: 0x10001D244, symSize: 0x28 }
  - { offsetInCU: 0xC2AB, offset: 0x7980C, size: 0x8, addend: 0x0, symName: __ZNSt16allocator_traitsISaISt13_Rb_tree_nodeISt4pairIKNSt7__cxx1112basic_stringIcSt11char_traitsIcESaIcEEEiEEEE9constructIS9_JRKSt21piecewise_construct_tSt5tupleIJRS8_EESH_IJEEEEEvRSB_PT_DpOT0_, symObjAddr: 0x1C60, symBinAddr: 0x10001D26C, symSize: 0x68 }
  - { offsetInCU: 0xC2E9, offset: 0x7984A, size: 0x8, addend: 0x0, symName: __ZN9__gnu_cxx13new_allocatorISt10_List_nodeISt10shared_ptrI8ParticleEEE9constructIS4_JRKS4_EEEvPT_DpOT0_, symObjAddr: 0x1B6C, symBinAddr: 0x10001D1F8, symSize: 0x4C }
  - { offsetInCU: 0xC3EF, offset: 0x79950, size: 0x8, addend: 0x0, symName: __ZSt11__addressofISaISt10_List_nodeISt10shared_ptrI8ParticleEEEEPT_RS6_, symObjAddr: 0x1B58, symBinAddr: 0x10001D1E4, symSize: 0x14 }
  - { offsetInCU: 0xC3F7, offset: 0x79958, size: 0x8, addend: 0x0, symName: __ZN9__gnu_cxx13new_allocatorISt10_List_nodeISt10shared_ptrI8ParticleEEE9constructIS4_JRKS4_EEEvPT_DpOT0_, symObjAddr: 0x1B6C, symBinAddr: 0x10001D1F8, symSize: 0x4C }
  - { offsetInCU: 0xC3A3, offset: 0x79904, size: 0x8, addend: 0x0, symName: __ZNSt16allocator_traitsISaISt10_List_nodeISt10shared_ptrI8ParticleEEEE8allocateERS5_m, symObjAddr: 0x1B30, symBinAddr: 0x10001D1BC, symSize: 0x28 }
  - { offsetInCU: 0xC3AB, offset: 0x7990C, size: 0x8, addend: 0x0, symName: __ZSt11__addressofISaISt10_List_nodeISt10shared_ptrI8ParticleEEEEPT_RS6_, symObjAddr: 0x1B58, symBinAddr: 0x10001D1E4, symSize: 0x14 }
  - { offsetInCU: 0xC3E9, offset: 0x7994A, size: 0x8, addend: 0x0, symName: __ZNKSt10_Select1stISt4pairIKNSt7__cxx1112basic_stringIcSt11char_traitsIcESaIcEEEiEEclERKS8_, symObjAddr: 0x1A24, symBinAddr: 0x10001D1A4, symSize: 0x18 }
  - { offsetInCU: 0xC42C, offset: 0x7998D, size: 0x8, addend: 0x0, symName: __ZNKSt13_Rb_tree_nodeISt4pairIKNSt7__cxx1112basic_stringIcSt11char_traitsIcESaIcEEEiEE9_M_valptrEv, symObjAddr: 0x1A04, symBinAddr: 0x10001D184, symSize: 0x20 }
  - { offsetInCU: 0xC434, offset: 0x79995, size: 0x8, addend: 0x0, symName: __ZNKSt10_Select1stISt4pairIKNSt7__cxx1112basic_stringIcSt11char_traitsIcESaIcEEEiEEclERKS8_, symObjAddr: 0x1A24, symBinAddr: 0x10001D1A4, symSize: 0x18 }
  - { offsetInCU: 0xC4DF, offset: 0x79A40, size: 0x8, addend: 0x0, symName: __ZNSt4pairIPSt18_Rb_tree_node_baseS1_EC1IRS1_Lb1EEEOT_RKS1_, symObjAddr: 0x19C0, symBinAddr: 0x10001D140, symSize: 0x44 }
  - { offsetInCU: 0xC4E7, offset: 0x79A48, size: 0x8, addend: 0x0, symName: __ZNKSt13_Rb_tree_nodeISt4pairIKNSt7__cxx1112basic_stringIcSt11char_traitsIcESaIcEEEiEE9_M_valptrEv, symObjAddr: 0x1A04, symBinAddr: 0x10001D184, symSize: 0x20 }
  - { offsetInCU: 0xC4F6, offset: 0x79A57, size: 0x8, addend: 0x0, symName: __ZNSt17_Rb_tree_iteratorISt4pairIKNSt7__cxx1112basic_stringIcSt11char_traitsIcESaIcEEEiEEmmEv, symObjAddr: 0x1960, symBinAddr: 0x10001D110, symSize: 0x30 }
  - { offsetInCU: 0xC5B8, offset: 0x79B19, size: 0x8, addend: 0x0, symName: __ZNSt4pairIPSt18_Rb_tree_node_baseS1_EC1IRS1_S4_Lb1EEEOT_OT0_, symObjAddr: 0x1918, symBinAddr: 0x10001D0C8, symSize: 0x48 }
  - { offsetInCU: 0xC5C0, offset: 0x79B21, size: 0x8, addend: 0x0, symName: __ZNSt17_Rb_tree_iteratorISt4pairIKNSt7__cxx1112basic_stringIcSt11char_traitsIcESaIcEEEiEEmmEv, symObjAddr: 0x1960, symBinAddr: 0x10001D110, symSize: 0x30 }
  - { offsetInCU: 0xC5DA, offset: 0x79B3B, size: 0x8, addend: 0x0, symName: __ZNSt8_Rb_treeINSt7__cxx1112basic_stringIcSt11char_traitsIcESaIcEEESt4pairIKS5_iESt10_Select1stIS8_ESt4lessIS5_ESaIS8_EE11_M_leftmostEv, symObjAddr: 0x1900, symBinAddr: 0x10001D0B0, symSize: 0x18 }
  - { offsetInCU: 0xC5E2, offset: 0x79B43, size: 0x8, addend: 0x0, symName: __ZNSt4pairIPSt18_Rb_tree_node_baseS1_EC1IRS1_S4_Lb1EEEOT_OT0_, symObjAddr: 0x1918, symBinAddr: 0x10001D0C8, symSize: 0x48 }
  - { offsetInCU: 0xC609, offset: 0x79B6A, size: 0x8, addend: 0x0, symName: __ZNSt8_Rb_treeINSt7__cxx1112basic_stringIcSt11char_traitsIcESaIcEEESt4pairIKS5_iESt10_Select1stIS8_ESt4lessIS5_ESaIS8_EE24_M_get_insert_unique_posERS7_, symObjAddr: 0x17B0, symBinAddr: 0x10001CF60, symSize: 0x150 }
  - { offsetInCU: 0xC611, offset: 0x79B72, size: 0x8, addend: 0x0, symName: __ZNSt8_Rb_treeINSt7__cxx1112basic_stringIcSt11char_traitsIcESaIcEEESt4pairIKS5_iESt10_Select1stIS8_ESt4lessIS5_ESaIS8_EE11_M_leftmostEv, symObjAddr: 0x1900, symBinAddr: 0x10001D0B0, symSize: 0x18 }
  - { offsetInCU: 0xC725, offset: 0x79C86, size: 0x8, addend: 0x0, symName: __ZNSt4pairIPSt18_Rb_tree_node_baseS1_EC1IRS1_Lb1EEERKS1_OT_, symObjAddr: 0x176C, symBinAddr: 0x10001CF1C, symSize: 0x44 }
  - { offsetInCU: 0xC72D, offset: 0x79C8E, size: 0x8, addend: 0x0, symName: __ZNSt8_Rb_treeINSt7__cxx1112basic_stringIcSt11char_traitsIcESaIcEEESt4pairIKS5_iESt10_Select1stIS8_ESt4lessIS5_ESaIS8_EE24_M_get_insert_unique_posERS7_, symObjAddr: 0x17B0, symBinAddr: 0x10001CF60, symSize: 0x150 }
  - { offsetInCU: 0xC73C, offset: 0x79C9D, size: 0x8, addend: 0x0, symName: __ZNSt8_Rb_treeINSt7__cxx1112basic_stringIcSt11char_traitsIcESaIcEEESt4pairIKS5_iESt10_Select1stIS8_ESt4lessIS5_ESaIS8_EE6_S_keyEPKSt18_Rb_tree_node_base, symObjAddr: 0x1750, symBinAddr: 0x10001CF00, symSize: 0x1C }
  - { offsetInCU: 0xC744, offset: 0x79CA5, size: 0x8, addend: 0x0, symName: __ZNSt4pairIPSt18_Rb_tree_node_baseS1_EC1IRS1_Lb1EEERKS1_OT_, symObjAddr: 0x176C, symBinAddr: 0x10001CF1C, symSize: 0x44 }
  - { offsetInCU: 0xC76E, offset: 0x79CCF, size: 0x8, addend: 0x0, symName: __ZNSt8_Rb_treeINSt7__cxx1112basic_stringIcSt11char_traitsIcESaIcEEESt4pairIKS5_iESt10_Select1stIS8_ESt4lessIS5_ESaIS8_EE12_M_rightmostEv, symObjAddr: 0x1738, symBinAddr: 0x10001CEE8, symSize: 0x18 }
  - { offsetInCU: 0xC776, offset: 0x79CD7, size: 0x8, addend: 0x0, symName: __ZNSt8_Rb_treeINSt7__cxx1112basic_stringIcSt11char_traitsIcESaIcEEESt4pairIKS5_iESt10_Select1stIS8_ESt4lessIS5_ESaIS8_EE6_S_keyEPKSt18_Rb_tree_node_base, symObjAddr: 0x1750, symBinAddr: 0x10001CF00, symSize: 0x1C }
  - { offsetInCU: 0xC79D, offset: 0x79CFE, size: 0x8, addend: 0x0, symName: __ZNKSt8_Rb_treeINSt7__cxx1112basic_stringIcSt11char_traitsIcESaIcEEESt4pairIKS5_iESt10_Select1stIS8_ESt4lessIS5_ESaIS8_EE4sizeEv, symObjAddr: 0x1720, symBinAddr: 0x10001CED0, symSize: 0x18 }
  - { offsetInCU: 0xC7A5, offset: 0x79D06, size: 0x8, addend: 0x0, symName: __ZNSt8_Rb_treeINSt7__cxx1112basic_stringIcSt11char_traitsIcESaIcEEESt4pairIKS5_iESt10_Select1stIS8_ESt4lessIS5_ESaIS8_EE12_M_rightmostEv, symObjAddr: 0x1738, symBinAddr: 0x10001CEE8, symSize: 0x18 }
  - { offsetInCU: 0xC7CC, offset: 0x79D2D, size: 0x8, addend: 0x0, symName: __ZNKSt23_Rb_tree_const_iteratorISt4pairIKNSt7__cxx1112basic_stringIcSt11char_traitsIcESaIcEEEiEE13_M_const_castEv, symObjAddr: 0x16F8, symBinAddr: 0x10001CEA8, symSize: 0x28 }
  - { offsetInCU: 0xC7D4, offset: 0x79D35, size: 0x8, addend: 0x0, symName: __ZNKSt8_Rb_treeINSt7__cxx1112basic_stringIcSt11char_traitsIcESaIcEEESt4pairIKS5_iESt10_Select1stIS8_ESt4lessIS5_ESaIS8_EE4sizeEv, symObjAddr: 0x1720, symBinAddr: 0x10001CED0, symSize: 0x18 }
  - { offsetInCU: 0xC7FB, offset: 0x79D5C, size: 0x8, addend: 0x0, symName: __ZNSt8_Rb_treeINSt7__cxx1112basic_stringIcSt11char_traitsIcESaIcEEESt4pairIKS5_iESt10_Select1stIS8_ESt4lessIS5_ESaIS8_EE17_M_construct_nodeIJRKSt21piecewise_construct_tSt5tupleIJRS7_EESJ_IJEEEEEvPSt13_Rb_tree_nodeIS8_EDpOT_, symObjAddr: 0x163C, symBinAddr: 0x10001CDEC, symSize: 0xBC }
  - { offsetInCU: 0xC803, offset: 0x79D64, size: 0x8, addend: 0x0, symName: __ZNKSt23_Rb_tree_const_iteratorISt4pairIKNSt7__cxx1112basic_stringIcSt11char_traitsIcESaIcEEEiEE13_M_const_castEv, symObjAddr: 0x16F8, symBinAddr: 0x10001CEA8, symSize: 0x28 }
  - { offsetInCU: 0xC88A, offset: 0x79DEB, size: 0x8, addend: 0x0, symName: __ZNSt8_Rb_treeINSt7__cxx1112basic_stringIcSt11char_traitsIcESaIcEEESt4pairIKS5_iESt10_Select1stIS8_ESt4lessIS5_ESaIS8_EE11_M_get_nodeEv, symObjAddr: 0x1618, symBinAddr: 0x10001CDC8, symSize: 0x24 }
  - { offsetInCU: 0xC892, offset: 0x79DF3, size: 0x8, addend: 0x0, symName: __ZNSt8_Rb_treeINSt7__cxx1112basic_stringIcSt11char_traitsIcESaIcEEESt4pairIKS5_iESt10_Select1stIS8_ESt4lessIS5_ESaIS8_EE17_M_construct_nodeIJRKSt21piecewise_construct_tSt5tupleIJRS7_EESJ_IJEEEEEvPSt13_Rb_tree_nodeIS8_EDpOT_, symObjAddr: 0x163C, symBinAddr: 0x10001CDEC, symSize: 0xBC }
  - { offsetInCU: 0xC93B, offset: 0x79E9C, size: 0x8, addend: 0x0, symName: __ZNSt10_Head_baseILm0ERKNSt7__cxx1112basic_stringIcSt11char_traitsIcESaIcEEELb0EEC2ES7_, symObjAddr: 0x15F4, symBinAddr: 0x10001CDA4, symSize: 0x24 }
  - { offsetInCU: 0xC943, offset: 0x79EA4, size: 0x8, addend: 0x0, symName: __ZNSt8_Rb_treeINSt7__cxx1112basic_stringIcSt11char_traitsIcESaIcEEESt4pairIKS5_iESt10_Select1stIS8_ESt4lessIS5_ESaIS8_EE11_M_get_nodeEv, symObjAddr: 0x1618, symBinAddr: 0x10001CDC8, symSize: 0x24 }
  - { offsetInCU: 0xC91D, offset: 0x79E7E, size: 0x8, addend: 0x0, symName: __ZNSt8_Rb_treeINSt7__cxx1112basic_stringIcSt11char_traitsIcESaIcEEESt4pairIKS5_iESt10_Select1stIS8_ESt4lessIS5_ESaIS8_EE14_M_lower_boundEPSt13_Rb_tree_nodeIS8_EPSt18_Rb_tree_node_baseRS7_, symObjAddr: 0x153C, symBinAddr: 0x10001CD08, symSize: 0x9C }
  - { offsetInCU: 0xC988, offset: 0x79EE9, size: 0x8, addend: 0x0, symName: __ZNSt8_Rb_treeINSt7__cxx1112basic_stringIcSt11char_traitsIcESaIcEEESt4pairIKS5_iESt10_Select1stIS8_ESt4lessIS5_ESaIS8_EE6_M_endEv, symObjAddr: 0x1524, symBinAddr: 0x10001CCF0, symSize: 0x18 }
  - { offsetInCU: 0xC990, offset: 0x79EF1, size: 0x8, addend: 0x0, symName: __ZNSt8_Rb_treeINSt7__cxx1112basic_stringIcSt11char_traitsIcESaIcEEESt4pairIKS5_iESt10_Select1stIS8_ESt4lessIS5_ESaIS8_EE14_M_lower_boundEPSt13_Rb_tree_nodeIS8_EPSt18_Rb_tree_node_baseRS7_, symObjAddr: 0x153C, symBinAddr: 0x10001CD08, symSize: 0x9C }
  - { offsetInCU: 0xC9B7, offset: 0x79F18, size: 0x8, addend: 0x0, symName: __ZNSt15__allocated_ptrISaISt10_List_nodeISt10shared_ptrI8ParticleEEEEaSEDn, symObjAddr: 0x147C, symBinAddr: 0x10001CCD0, symSize: 0x20 }
  - { offsetInCU: 0xC9F2, offset: 0x79F53, size: 0x8, addend: 0x0, symName: __ZNSt16allocator_traitsISaISt10_List_nodeISt10shared_ptrI8ParticleEEEE9constructIS3_JRKS3_EEEvRS5_PT_DpOT0_, symObjAddr: 0x1444, symBinAddr: 0x10001CC98, symSize: 0x38 }
  - { offsetInCU: 0xC9FA, offset: 0x79F5B, size: 0x8, addend: 0x0, symName: __ZNSt15__allocated_ptrISaISt10_List_nodeISt10shared_ptrI8ParticleEEEEaSEDn, symObjAddr: 0x147C, symBinAddr: 0x10001CCD0, symSize: 0x20 }
  - { offsetInCU: 0xCAD8, offset: 0x7A039, size: 0x8, addend: 0x0, symName: __ZNSt15__allocated_ptrISaISt10_List_nodeISt10shared_ptrI8ParticleEEEED1Ev, symObjAddr: 0x13FC, symBinAddr: 0x10001CC50, symSize: 0x48 }
  - { offsetInCU: 0xCAE0, offset: 0x7A041, size: 0x8, addend: 0x0, symName: __ZNSt16allocator_traitsISaISt10_List_nodeISt10shared_ptrI8ParticleEEEE9constructIS3_JRKS3_EEEvRS5_PT_DpOT0_, symObjAddr: 0x1444, symBinAddr: 0x10001CC98, symSize: 0x38 }
  - { offsetInCU: 0xCB48, offset: 0x7A0A9, size: 0x8, addend: 0x0, symName: __ZNSt15__allocated_ptrISaISt10_List_nodeISt10shared_ptrI8ParticleEEEEC1ERS5_PS4_, symObjAddr: 0x13BC, symBinAddr: 0x10001CC10, symSize: 0x40 }
  - { offsetInCU: 0xCB50, offset: 0x7A0B1, size: 0x8, addend: 0x0, symName: __ZNSt15__allocated_ptrISaISt10_List_nodeISt10shared_ptrI8ParticleEEEED1Ev, symObjAddr: 0x13FC, symBinAddr: 0x10001CC50, symSize: 0x48 }
  - { offsetInCU: 0xCB3D, offset: 0x7A09E, size: 0x8, addend: 0x0, symName: __ZNSt7__cxx1110_List_baseISt10shared_ptrI8ParticleESaIS3_EE11_M_get_nodeEv, symObjAddr: 0x139C, symBinAddr: 0x10001CBF0, symSize: 0x20 }
  - { offsetInCU: 0xCB45, offset: 0x7A0A6, size: 0x8, addend: 0x0, symName: __ZNSt15__allocated_ptrISaISt10_List_nodeISt10shared_ptrI8ParticleEEEEC1ERS5_PS4_, symObjAddr: 0x13BC, symBinAddr: 0x10001CC10, symSize: 0x40 }
  - { offsetInCU: 0xCB6C, offset: 0x7A0CD, size: 0x8, addend: 0x0, symName: __ZNSt8_Rb_treeINSt7__cxx1112basic_stringIcSt11char_traitsIcESaIcEEESt4pairIKS5_iESt10_Select1stIS8_ESt4lessIS5_ESaIS8_EE14_M_insert_nodeEPSt18_Rb_tree_node_baseSG_PSt13_Rb_tree_nodeIS8_E, symObjAddr: 0x11F8, symBinAddr: 0x10001CB20, symSize: 0xD0 }
  - { offsetInCU: 0xCBEB, offset: 0x7A14C, size: 0x8, addend: 0x0, symName: __ZNSt8_Rb_treeINSt7__cxx1112basic_stringIcSt11char_traitsIcESaIcEEESt4pairIKS5_iESt10_Select1stIS8_ESt4lessIS5_ESaIS8_EE6_S_keyEPKSt13_Rb_tree_nodeIS8_E, symObjAddr: 0x11D0, symBinAddr: 0x10001CAF8, symSize: 0x28 }
  - { offsetInCU: 0xCBF3, offset: 0x7A154, size: 0x8, addend: 0x0, symName: __ZNSt8_Rb_treeINSt7__cxx1112basic_stringIcSt11char_traitsIcESaIcEEESt4pairIKS5_iESt10_Select1stIS8_ESt4lessIS5_ESaIS8_EE14_M_insert_nodeEPSt18_Rb_tree_node_baseSG_PSt13_Rb_tree_nodeIS8_E, symObjAddr: 0x11F8, symBinAddr: 0x10001CB20, symSize: 0xD0 }
